---
triple:          'arm64-apple-darwin'
binary-path:     MyGame
relocations:
  - { offset: 0x4457, size: 0x8, addend: 0x0, symName: __ZN2sfmlIfEENS_7Vector2IT_EERKS3_S2_, symObjAddr: 0x13D0, symBinAddr: 0x100004278, symSize: 0x50 }
  - { offset: 0x449A, size: 0x8, addend: 0x0, symName: __ZN2sfmiIfEENS_7Vector2IT_EERKS3_S5_, symObjAddr: 0x1538, symBinAddr: 0x1000043E0, symSize: 0x58 }
  - { offset: 0x44DD, size: 0x8, addend: 0x0, symName: __ZN2sfeqIfEEbRKNS_7Vector2IT_EES5_, symObjAddr: 0x4C38, symBinAddr: 0x100007AE0, symSize: 0x64 }
  - { offset: 0x1614D, size: 0x8, addend: 0x0, symName: __ZNSt3__124__put_character_sequenceB8ue170006IcNS_11char_traitsIcEEEERNS_13basic_ostreamIT_T0_EES7_PKS4_m, symObjAddr: 0x1F4C, symBinAddr: 0x100004DF4, symSize: 0x1EC }
  - { offset: 0x1A736, size: 0x8, addend: 0x0, symName: __ZNSt3__17advanceB8ue170006IPP13IGameObserverllvEEvRT_T0_, symObjAddr: 0x73FC, symBinAddr: 0x10000A2A4, symSize: 0x38 }
  - { offset: 0x1A7A1, size: 0x8, addend: 0x0, symName: __ZNSt3__17advanceB8ue170006IPN2sf6VertexEllvEEvRT_T0_, symObjAddr: 0x8954, symBinAddr: 0x10000B7FC, symSize: 0x38 }
  - { offset: 0x1AA23, size: 0x8, addend: 0x0, symName: __ZNSt3__1neB8ue170006IP6EntityEEbRKNS_11__wrap_iterIT_EES7_, symObjAddr: 0x1A8, symBinAddr: 0x100003050, symSize: 0x34 }
  - { offset: 0x1AA66, size: 0x8, addend: 0x0, symName: __ZNSt3__1lsB8ue170006INS_11char_traitsIcEEEERNS_13basic_ostreamIcT_EES6_PKc, symObjAddr: 0x214, symBinAddr: 0x1000030BC, symSize: 0x48 }
  - { offset: 0x1AAAC, size: 0x8, addend: 0x0, symName: __ZNSt3__14endlB8ue170006IcNS_11char_traitsIcEEEERNS_13basic_ostreamIT_T0_EES7_, symObjAddr: 0x288, symBinAddr: 0x100003130, symSize: 0x58 }
  - { offset: 0x1AAEC, size: 0x8, addend: 0x0, symName: __ZNSt3__1neB8ue170006IP7MonsterEEbRKNS_11__wrap_iterIT_EES7_, symObjAddr: 0x14EC, symBinAddr: 0x100004394, symSize: 0x34 }
  - { offset: 0x1AB2F, size: 0x8, addend: 0x0, symName: __ZNSt3__14findB8ue170006INS_11__wrap_iterIP7MonsterEES2_EET_S5_S5_RKT0_, symObjAddr: 0x16B0, symBinAddr: 0x100004558, symSize: 0x78 }
  - { offset: 0x1ABB3, size: 0x8, addend: 0x0, symName: __ZNSt3__1eqB8ue170006IP6EntityEEbRKNS_11__wrap_iterIT_EES7_, symObjAddr: 0x1B9C, symBinAddr: 0x100004A44, symSize: 0x48 }
  - { offset: 0x1ABF6, size: 0x8, addend: 0x0, symName: __ZNSt3__112__to_addressB8ue170006I6EntityEEPT_S3_, symObjAddr: 0x1BFC, symBinAddr: 0x100004AA4, symSize: 0x14 }
  - { offset: 0x1AC2B, size: 0x8, addend: 0x0, symName: __ZNSt3__1eqB8ue170006IP7MonsterEEbRKNS_11__wrap_iterIT_EES7_, symObjAddr: 0x1C10, symBinAddr: 0x100004AB8, symSize: 0x48 }
  - { offset: 0x1AC6E, size: 0x8, addend: 0x0, symName: __ZNSt3__1neB8ue170006IPP13IGameObserverEEbRKNS_11__wrap_iterIT_EES8_, symObjAddr: 0x1D7C, symBinAddr: 0x100004C24, symSize: 0x34 }
  - { offset: 0x1ACB1, size: 0x8, addend: 0x0, symName: __ZNSt3__1eqB8ue170006IPP13IGameObserverEEbRKNS_11__wrap_iterIT_EES8_, symObjAddr: 0x1E6C, symBinAddr: 0x100004D14, symSize: 0x48 }
  - { offset: 0x1ACF4, size: 0x8, addend: 0x0, symName: __ZNSt3__116__pad_and_outputB8ue170006IcNS_11char_traitsIcEEEENS_19ostreambuf_iteratorIT_T0_EES6_PKS4_S8_S8_RNS_8ios_baseES4_, symObjAddr: 0x2188, symBinAddr: 0x100005030, symSize: 0x240 }
  - { offset: 0x1ADC3, size: 0x8, addend: 0x0, symName: __ZNSt3__112__to_addressB8ue170006IcEEPT_S2_, symObjAddr: 0x26F0, symBinAddr: 0x100005598, symSize: 0x14 }
  - { offset: 0x1AE2B, size: 0x8, addend: 0x0, symName: __ZNSt3__19use_facetB8ue170006INS_5ctypeIcEEEERKT_RKNS_6localeE, symObjAddr: 0x29A8, symBinAddr: 0x100005850, symSize: 0x2C }
  - { offset: 0x1B2F8, size: 0x8, addend: 0x0, symName: __ZNSt3__118__constexpr_strlenB8ue170006EPKc, symObjAddr: 0x2A40, symBinAddr: 0x1000058E8, symSize: 0x24 }
  - { offset: 0x1B324, size: 0x8, addend: 0x0, symName: __ZNSt3__13maxB8ue170006ImEERKT_S3_S3_, symObjAddr: 0x33D8, symBinAddr: 0x100006280, symSize: 0x2C }
  - { offset: 0x1B367, size: 0x8, addend: 0x0, symName: __ZNSt3__13minB8ue170006ImEERKT_S3_S3_, symObjAddr: 0x3404, symBinAddr: 0x1000062AC, symSize: 0x2C }
  - { offset: 0x1B594, size: 0x8, addend: 0x0, symName: __ZNSt3__13minB8ue170006ImNS_6__lessIvvEEEERKT_S5_S5_T0_, symObjAddr: 0x3490, symBinAddr: 0x100006338, symSize: 0x54 }
  - { offset: 0x1B633, size: 0x8, addend: 0x0, symName: __ZNSt3__120__throw_length_errorB8ue170006EPKc, symObjAddr: 0x3570, symBinAddr: 0x100006418, symSize: 0x64 }
  - { offset: 0x1B65D, size: 0x8, addend: 0x0, symName: __ZNSt3__13maxB8ue170006ImNS_6__lessIvvEEEERKT_S5_S5_T0_, symObjAddr: 0x36AC, symBinAddr: 0x100006554, symSize: 0x54 }
  - { offset: 0x1B6B7, size: 0x8, addend: 0x0, symName: __ZNSt3__119__allocate_at_leastB8ue170006INS_9allocatorI6EntityEEEENS_19__allocation_resultINS_16allocator_traitsIT_E7pointerEEERS6_m, symObjAddr: 0x381C, symBinAddr: 0x1000066C4, symSize: 0x40 }
  - { offset: 0x1B6FA, size: 0x8, addend: 0x0, symName: __ZNSt3__117__libcpp_allocateB8ue170006Emm, symObjAddr: 0x39C0, symBinAddr: 0x100006868, symSize: 0x60 }
  - { offset: 0x1B754, size: 0x8, addend: 0x0, symName: __ZNSt3__124__is_overaligned_for_newB8ue170006Em, symObjAddr: 0x3A20, symBinAddr: 0x1000068C8, symSize: 0x20 }
  - { offset: 0x1B782, size: 0x8, addend: 0x0, symName: __ZNSt3__121__libcpp_operator_newB8ue170006IJmSt11align_val_tEEEPvDpT_, symObjAddr: 0x3A40, symBinAddr: 0x1000068E8, symSize: 0x2C }
  - { offset: 0x1B7CF, size: 0x8, addend: 0x0, symName: __ZNSt3__121__libcpp_operator_newB8ue170006IJmEEEPvDpT_, symObjAddr: 0x3A6C, symBinAddr: 0x100006914, symSize: 0x24 }
  - { offset: 0x1B808, size: 0x8, addend: 0x0, symName: __ZNSt3__142__uninitialized_allocator_move_if_noexceptB8ue170006INS_9allocatorI6EntityEENS_16reverse_iteratorIPS2_EES6_S6_EET2_RT_T0_T1_S7_, symObjAddr: 0x3BC8, symBinAddr: 0x100006A70, symSize: 0x12C }
  - { offset: 0x1B8A8, size: 0x8, addend: 0x0, symName: __ZNSt3__14swapB8ue170006IP6EntityEENS_9enable_ifIXaasr21is_move_constructibleIT_EE5valuesr18is_move_assignableIS4_EE5valueEvE4typeERS4_S7_, symObjAddr: 0x3D40, symBinAddr: 0x100006BE8, symSize: 0x3C }
  - { offset: 0x1B8F9, size: 0x8, addend: 0x0, symName: __ZNSt3__122__make_exception_guardB8ue170006INS_29_AllocatorDestroyRangeReverseINS_9allocatorI6EntityEENS_16reverse_iteratorIPS3_EEEEEENS_28__exception_guard_exceptionsIT_EESA_, symObjAddr: 0x3E8C, symBinAddr: 0x100006D34, symSize: 0x4C }
  - { offset: 0x1B92F, size: 0x8, addend: 0x0, symName: __ZNSt3__1neB8ue170006IP6EntityS2_EEbRKNS_16reverse_iteratorIT_EERKNS3_IT0_EE, symObjAddr: 0x3F1C, symBinAddr: 0x100006DC4, symSize: 0x48 }
  - { offset: 0x1B97B, size: 0x8, addend: 0x0, symName: __ZNSt3__112__to_addressB8ue170006INS_16reverse_iteratorIP6EntityEEvEEu7__decayIDTclsr19__to_address_helperIT_EE6__callclsr3stdE7declvalIRKS5_EEEEES7_, symObjAddr: 0x3F98, symBinAddr: 0x100006E40, symSize: 0x24 }
  - { offset: 0x1B9DA, size: 0x8, addend: 0x0, symName: __ZNSt3__119__allocator_destroyB8ue170006INS_9allocatorI6EntityEENS_16reverse_iteratorINS4_IPS2_EEEES7_EEvRT_T0_T1_, symObjAddr: 0x4278, symBinAddr: 0x100007120, symSize: 0x70 }
  - { offset: 0x1BA3F, size: 0x8, addend: 0x0, symName: __ZNSt3__1neB8ue170006INS_16reverse_iteratorIP6EntityEES4_EEbRKNS1_IT_EERKNS1_IT0_EE, symObjAddr: 0x4324, symBinAddr: 0x1000071CC, symSize: 0x60 }
  - { offset: 0x1BA8B, size: 0x8, addend: 0x0, symName: __ZNSt3__112__to_addressB8ue170006INS_16reverse_iteratorINS1_IP6EntityEEEEvEEu7__decayIDTclsr19__to_address_helperIT_EE6__callclsr3stdE7declvalIRKS6_EEEEES8_, symObjAddr: 0x43B0, symBinAddr: 0x100007258, symSize: 0x24 }
  - { offset: 0x1BAEA, size: 0x8, addend: 0x0, symName: __ZNSt3__119__libcpp_deallocateB8ue170006EPvmm, symObjAddr: 0x4774, symBinAddr: 0x10000761C, symSize: 0x60 }
  - { offset: 0x1BB4F, size: 0x8, addend: 0x0, symName: __ZNSt3__127__do_deallocate_handle_sizeB8ue170006IJSt11align_val_tEEEvPvmDpT_, symObjAddr: 0x47D4, symBinAddr: 0x10000767C, symSize: 0x30 }
  - { offset: 0x1BBA2, size: 0x8, addend: 0x0, symName: __ZNSt3__127__do_deallocate_handle_sizeB8ue170006IJEEEvPvmDpT_, symObjAddr: 0x4804, symBinAddr: 0x1000076AC, symSize: 0x28 }
  - { offset: 0x1BBE0, size: 0x8, addend: 0x0, symName: __ZNSt3__124__libcpp_operator_deleteB8ue170006IJPvSt11align_val_tEEEvDpT_, symObjAddr: 0x482C, symBinAddr: 0x1000076D4, symSize: 0x2C }
  - { offset: 0x1BC29, size: 0x8, addend: 0x0, symName: __ZNSt3__124__libcpp_operator_deleteB8ue170006IJPvEEEvDpT_, symObjAddr: 0x4858, symBinAddr: 0x100007700, symSize: 0x24 }
  - { offset: 0x1BC5E, size: 0x8, addend: 0x0, symName: __ZNSt3__113__rewrap_iterB8ue170006INS_11__wrap_iterIP7MonsterEES3_NS_18__unwrap_iter_implIS4_Lb1EEEEET_S7_T0_, symObjAddr: 0x494C, symBinAddr: 0x1000077F4, symSize: 0x4C }
  - { offset: 0x1BCB3, size: 0x8, addend: 0x0, symName: __ZNSt3__111__find_implB8ue170006IP7MonsterS2_S1_NS_10__identityEEET_S4_T0_RKT1_RT2_, symObjAddr: 0x4998, symBinAddr: 0x100007840, symSize: 0x7C }
  - { offset: 0x1BD2D, size: 0x8, addend: 0x0, symName: __ZNSt3__113__unwrap_iterB8ue170006INS_11__wrap_iterIP7MonsterEENS_18__unwrap_iter_implIS4_Lb1EEELi0EEEDTclsrT0_8__unwrapclsr3stdE7declvalIT_EEEES8_, symObjAddr: 0x4A14, symBinAddr: 0x1000078BC, symSize: 0x2C }
  - { offset: 0x1BDC4, size: 0x8, addend: 0x0, symName: __ZNSt3__112__to_addressB8ue170006INS_11__wrap_iterIP7MonsterEEvEEu7__decayIDTclsr19__to_address_helperIT_EE6__callclsr3stdE7declvalIRKS5_EEEEES7_, symObjAddr: 0x4AD8, symBinAddr: 0x100007980, symSize: 0x24 }
  - { offset: 0x1BE9F, size: 0x8, addend: 0x0, symName: __ZNSt3__112__to_addressB8ue170006I7MonsterEEPT_S3_, symObjAddr: 0x4B88, symBinAddr: 0x100007A30, symSize: 0x14 }
  - { offset: 0x1BED4, size: 0x8, addend: 0x0, symName: __ZNSt3__18__invokeB8ue170006IRNS_10__identityEJR7MonsterEEEDTclclsr3stdE7declvalIT_EEspclsr3stdE7declvalIT0_EEEEOS5_DpOS6_, symObjAddr: 0x4B9C, symBinAddr: 0x100007A44, symSize: 0x2C }
  - { offset: 0x1BF52, size: 0x8, addend: 0x0, symName: __ZNSt3__112__to_addressB8ue170006IP7MonsterEEPT_S4_, symObjAddr: 0x4F24, symBinAddr: 0x100007DCC, symSize: 0x14 }
  - { offset: 0x1BF87, size: 0x8, addend: 0x0, symName: __ZNSt3__119__allocate_at_leastB8ue170006INS_9allocatorIP7MonsterEEEENS_19__allocation_resultINS_16allocator_traitsIT_E7pointerEEERS7_m, symObjAddr: 0x5548, symBinAddr: 0x1000083F0, symSize: 0x40 }
  - { offset: 0x1BFCA, size: 0x8, addend: 0x0, symName: __ZNSt3__142__uninitialized_allocator_move_if_noexceptB8ue170006INS_9allocatorIP7MonsterEENS_16reverse_iteratorIPS3_EES7_S3_vEET1_RT_T0_SB_S8_, symObjAddr: 0x57D0, symBinAddr: 0x100008678, symSize: 0x78 }
  - { offset: 0x1C047, size: 0x8, addend: 0x0, symName: __ZNSt3__14swapB8ue170006IPP7MonsterEENS_9enable_ifIXaasr21is_move_constructibleIT_EE5valuesr18is_move_assignableIS5_EE5valueEvE4typeERS5_S8_, symObjAddr: 0x5894, symBinAddr: 0x10000873C, symSize: 0x3C }
  - { offset: 0x1C098, size: 0x8, addend: 0x0, symName: __ZNSt3__14moveB8ue170006INS_16reverse_iteratorIPP7MonsterEES5_EET0_T_S7_S6_, symObjAddr: 0x59C4, symBinAddr: 0x10000886C, symSize: 0x78 }
  - { offset: 0x1C0F2, size: 0x8, addend: 0x0, symName: __ZNSt3__16__moveB8ue170006INS_17_ClassicAlgPolicyENS_16reverse_iteratorIPP7MonsterEES6_S6_EENS_4pairIT0_T2_EES8_T1_S9_, symObjAddr: 0x5A3C, symBinAddr: 0x1000088E4, symSize: 0x64 }
  - { offset: 0x1C15E, size: 0x8, addend: 0x0, symName: __ZNSt3__123__dispatch_copy_or_moveB8ue170006INS_17_ClassicAlgPolicyENS_11__move_loopIS1_EENS_14__move_trivialENS_16reverse_iteratorIPP7MonsterEES9_S9_EENS_4pairIT2_T4_EESB_T3_SC_, symObjAddr: 0x5AA0, symBinAddr: 0x100008948, symSize: 0x64 }
  - { offset: 0x1C1DC, size: 0x8, addend: 0x0, symName: __ZNSt3__121__unwrap_and_dispatchB8ue170006INS_10__overloadINS_11__move_loopINS_17_ClassicAlgPolicyEEENS_14__move_trivialEEENS_16reverse_iteratorIPP7MonsterEESB_SB_Li0EEENS_4pairIT0_T2_EESD_T1_SE_, symObjAddr: 0x5B04, symBinAddr: 0x1000089AC, symSize: 0x12C }
  - { offset: 0x1C26C, size: 0x8, addend: 0x0, symName: __ZNSt3__114__unwrap_rangeB8ue170006INS_16reverse_iteratorIPP7MonsterEES5_EENS_4pairIT0_S7_EET_S9_, symObjAddr: 0x5C30, symBinAddr: 0x100008AD8, symSize: 0x84 }
  - { offset: 0x1C465, size: 0x8, addend: 0x0, symName: __ZNSt3__113__unwrap_iterB8ue170006INS_16reverse_iteratorIPP7MonsterEENS_18__unwrap_iter_implIS5_Lb0EEELi0EEEDTclsrT0_8__unwrapclsr3stdE7declvalIT_EEEES9_, symObjAddr: 0x5D54, symBinAddr: 0x100008BFC, symSize: 0x44 }
  - { offset: 0x1C4A9, size: 0x8, addend: 0x0, symName: __ZNSt3__19make_pairB8ue170006INS_16reverse_iteratorIPP7MonsterEES5_EENS_4pairINS_18__unwrap_ref_decayIT_E4typeENS7_IT0_E4typeEEEOS8_OSB_, symObjAddr: 0x5D98, symBinAddr: 0x100008C40, symSize: 0x38 }
  - { offset: 0x1C4F8, size: 0x8, addend: 0x0, symName: __ZNSt3__114__rewrap_rangeB8ue170006INS_16reverse_iteratorIPP7MonsterEES5_EET_S6_T0_, symObjAddr: 0x5DD0, symBinAddr: 0x100008C78, symSize: 0x5C }
  - { offset: 0x1C544, size: 0x8, addend: 0x0, symName: __ZNSt3__113__rewrap_iterB8ue170006INS_16reverse_iteratorIPP7MonsterEES5_NS_18__unwrap_iter_implIS5_Lb0EEEEET_S8_T0_, symObjAddr: 0x5E2C, symBinAddr: 0x100008CD4, symSize: 0x74 }
  - { offset: 0x1C599, size: 0x8, addend: 0x0, symName: __ZNSt3__1neB8ue170006IPP7MonsterS3_EEbRKNS_16reverse_iteratorIT_EERKNS4_IT0_EE, symObjAddr: 0x5EA0, symBinAddr: 0x100008D48, symSize: 0x48 }
  - { offset: 0x1C6FD, size: 0x8, addend: 0x0, symName: __ZNSt3__1miB8ue170006IPK7MonsterS3_EEDTmicldtfp_4baseEcldtfp0_4baseEERKNS_11__wrap_iterIT_EERKNS5_IT0_EE, symObjAddr: 0x62E4, symBinAddr: 0x10000918C, symSize: 0x48 }
  - { offset: 0x1C749, size: 0x8, addend: 0x0, symName: __ZNSt3__14moveB8ue170006IP7MonsterS2_EET0_T_S4_S3_, symObjAddr: 0x63A4, symBinAddr: 0x10000924C, symSize: 0x40 }
  - { offset: 0x1C7A3, size: 0x8, addend: 0x0, symName: __ZNSt3__16__moveB8ue170006INS_17_ClassicAlgPolicyEP7MonsterS3_S3_EENS_4pairIT0_T2_EES5_T1_S6_, symObjAddr: 0x67B0, symBinAddr: 0x100009658, symSize: 0x44 }
  - { offset: 0x1C80F, size: 0x8, addend: 0x0, symName: __ZNSt3__123__dispatch_copy_or_moveB8ue170006INS_17_ClassicAlgPolicyENS_11__move_loopIS1_EENS_14__move_trivialEP7MonsterS6_S6_EENS_4pairIT2_T4_EES8_T3_S9_, symObjAddr: 0x67F4, symBinAddr: 0x10000969C, symSize: 0x44 }
  - { offset: 0x1C88D, size: 0x8, addend: 0x0, symName: __ZNSt3__121__unwrap_and_dispatchB8ue170006INS_10__overloadINS_11__move_loopINS_17_ClassicAlgPolicyEEENS_14__move_trivialEEEP7MonsterS8_S8_Li0EEENS_4pairIT0_T2_EESA_T1_SB_, symObjAddr: 0x6838, symBinAddr: 0x1000096E0, symSize: 0xB4 }
  - { offset: 0x1C91B, size: 0x8, addend: 0x0, symName: __ZNSt3__114__unwrap_rangeB8ue170006IP7MonsterS2_EENS_4pairIT0_S4_EET_S6_, symObjAddr: 0x68EC, symBinAddr: 0x100009794, symSize: 0x60 }
  - { offset: 0x1CA3B, size: 0x8, addend: 0x0, symName: __ZNSt3__113__unwrap_iterB8ue170006IP7MonsterNS_18__unwrap_iter_implIS2_Lb1EEELi0EEEDTclsrT0_8__unwrapclsr3stdE7declvalIT_EEEES6_, symObjAddr: 0x69DC, symBinAddr: 0x100009884, symSize: 0x24 }
  - { offset: 0x1CA7F, size: 0x8, addend: 0x0, symName: __ZNSt3__19make_pairB8ue170006IP7MonsterS2_EENS_4pairINS_18__unwrap_ref_decayIT_E4typeENS4_IT0_E4typeEEEOS5_OS8_, symObjAddr: 0x6A00, symBinAddr: 0x1000098A8, symSize: 0x38 }
  - { offset: 0x1CACE, size: 0x8, addend: 0x0, symName: __ZNSt3__114__rewrap_rangeB8ue170006IP7MonsterS2_EET_S3_T0_, symObjAddr: 0x6A38, symBinAddr: 0x1000098E0, symSize: 0x2C }
  - { offset: 0x1CB1A, size: 0x8, addend: 0x0, symName: __ZNSt3__113__rewrap_iterB8ue170006IP7MonsterS2_NS_18__unwrap_iter_implIS2_Lb1EEEEET_S5_T0_, symObjAddr: 0x6A64, symBinAddr: 0x10000990C, symSize: 0x3C }
  - { offset: 0x1CB93, size: 0x8, addend: 0x0, symName: __ZNSt3__18distanceB8ue170006IPP13IGameObserverEENS_15iterator_traitsIT_E15difference_typeES5_S5_, symObjAddr: 0x6F84, symBinAddr: 0x100009E2C, symSize: 0x2C }
  - { offset: 0x1CBD6, size: 0x8, addend: 0x0, symName: __ZNSt3__14nextB8ue170006IPP13IGameObserverEENS_9enable_ifIXsr29__has_input_iterator_categoryIT_EE5valueES5_E4typeES5_NS_15iterator_traitsIS5_E15difference_typeE, symObjAddr: 0x7018, symBinAddr: 0x100009EC0, symSize: 0x34 }
  - { offset: 0x1CC19, size: 0x8, addend: 0x0, symName: __ZNSt3__14copyB8ue170006IPP13IGameObserverS3_EET0_T_S5_S4_, symObjAddr: 0x704C, symBinAddr: 0x100009EF4, symSize: 0x40 }
  - { offset: 0x1CC73, size: 0x8, addend: 0x0, symName: __ZNSt3__16__copyB8ue170006INS_17_ClassicAlgPolicyEPP13IGameObserverS4_S4_EENS_4pairIT0_T2_EES6_T1_S7_, symObjAddr: 0x7118, symBinAddr: 0x100009FC0, symSize: 0x44 }
  - { offset: 0x1CCDF, size: 0x8, addend: 0x0, symName: __ZNSt3__121__convert_to_integralB8ue170006El, symObjAddr: 0x7434, symBinAddr: 0x10000A2DC, symSize: 0x14 }
  - { offset: 0x1CD0B, size: 0x8, addend: 0x0, symName: __ZNSt3__19__advanceB8ue170006IPP13IGameObserverEEvRT_NS_15iterator_traitsIS4_E15difference_typeENS_26random_access_iterator_tagE, symObjAddr: 0x7448, symBinAddr: 0x10000A2F0, symSize: 0x28 }
  - { offset: 0x1CD54, size: 0x8, addend: 0x0, symName: __ZNSt3__130__uninitialized_allocator_copyB8ue170006INS_9allocatorIP13IGameObserverEEPS3_S5_S5_EET2_RT_T0_T1_S6_, symObjAddr: 0x74AC, symBinAddr: 0x10000A354, symSize: 0x80 }
  - { offset: 0x1CDF1, size: 0x8, addend: 0x0, symName: __ZNSt3__114__unwrap_rangeB8ue170006IPP13IGameObserverS3_EENS_4pairIT0_S5_EET_S7_, symObjAddr: 0x75C4, symBinAddr: 0x10000A46C, symSize: 0x60 }
  - { offset: 0x1CE3D, size: 0x8, addend: 0x0, symName: __ZNSt3__135__uninitialized_allocator_copy_implB8ue170006INS_9allocatorIP13IGameObserverEES3_S3_S3_LPv0EEEPT2_RT_PT0_SB_S7_, symObjAddr: 0x7624, symBinAddr: 0x10000A4CC, symSize: 0x38 }
  - { offset: 0x1CEBE, size: 0x8, addend: 0x0, symName: __ZNSt3__113__unwrap_iterB8ue170006IPP13IGameObserverNS_18__unwrap_iter_implIS3_Lb1EEELi0EEEDTclsrT0_8__unwrapclsr3stdE7declvalIT_EEEES7_, symObjAddr: 0x765C, symBinAddr: 0x10000A504, symSize: 0x24 }
  - { offset: 0x1CF02, size: 0x8, addend: 0x0, symName: __ZNSt3__113__rewrap_iterB8ue170006IPP13IGameObserverS3_NS_18__unwrap_iter_implIS3_Lb1EEEEET_S6_T0_, symObjAddr: 0x7680, symBinAddr: 0x10000A528, symSize: 0x3C }
  - { offset: 0x1CF57, size: 0x8, addend: 0x0, symName: __ZNSt3__19make_pairB8ue170006IPP13IGameObserverS3_EENS_4pairINS_18__unwrap_ref_decayIT_E4typeENS5_IT0_E4typeEEEOS6_OS9_, symObjAddr: 0x76BC, symBinAddr: 0x10000A564, symSize: 0x38 }
  - { offset: 0x1D0FC, size: 0x8, addend: 0x0, symName: __ZNSt3__112__to_addressB8ue170006IP13IGameObserverEEPT_S4_, symObjAddr: 0x7788, symBinAddr: 0x10000A630, symSize: 0x14 }
  - { offset: 0x1D131, size: 0x8, addend: 0x0, symName: __ZNSt3__123__dispatch_copy_or_moveB8ue170006INS_17_ClassicAlgPolicyENS_11__copy_loopIS1_EENS_14__copy_trivialEPP13IGameObserverS7_S7_EENS_4pairIT2_T4_EES9_T3_SA_, symObjAddr: 0x7844, symBinAddr: 0x10000A6EC, symSize: 0x44 }
  - { offset: 0x1D1AF, size: 0x8, addend: 0x0, symName: __ZNSt3__121__unwrap_and_dispatchB8ue170006INS_10__overloadINS_11__copy_loopINS_17_ClassicAlgPolicyEEENS_14__copy_trivialEEEPP13IGameObserverS9_S9_Li0EEENS_4pairIT0_T2_EESB_T1_SC_, symObjAddr: 0x7888, symBinAddr: 0x10000A730, symSize: 0xB4 }
  - { offset: 0x1D2BF, size: 0x8, addend: 0x0, symName: __ZNSt3__114__rewrap_rangeB8ue170006IPP13IGameObserverS3_EET_S4_T0_, symObjAddr: 0x7984, symBinAddr: 0x10000A82C, symSize: 0x2C }
  - { offset: 0x1D30B, size: 0x8, addend: 0x0, symName: __ZNSt3__119__copy_trivial_implB8ue170006IP13IGameObserverS2_EENS_4pairIPT_PT0_EES5_S5_S7_, symObjAddr: 0x79B0, symBinAddr: 0x10000A858, symSize: 0x80 }
  - { offset: 0x1D373, size: 0x8, addend: 0x0, symName: __ZNSt3__119__constexpr_memmoveB8ue170006IP13IGameObserverS2_Li0EEEPT_S4_PT0_NS_15__element_countE, symObjAddr: 0x7A30, symBinAddr: 0x10000A8D8, symSize: 0x64 }
  - { offset: 0x1D3E1, size: 0x8, addend: 0x0, symName: __ZNSt3__19make_pairB8ue170006IRPP13IGameObserverS3_EENS_4pairINS_18__unwrap_ref_decayIT_E4typeENS6_IT0_E4typeEEEOS7_OSA_, symObjAddr: 0x7A94, symBinAddr: 0x10000A93C, symSize: 0x38 }
  - { offset: 0x1D430, size: 0x8, addend: 0x0, symName: __ZNSt3__119__allocate_at_leastB8ue170006INS_9allocatorIP13IGameObserverEEEENS_19__allocation_resultINS_16allocator_traitsIT_E7pointerEEERS7_m, symObjAddr: 0x7F78, symBinAddr: 0x10000AE20, symSize: 0x40 }
  - { offset: 0x1D473, size: 0x8, addend: 0x0, symName: __ZNSt3__110__distanceB8ue170006IPP13IGameObserverEENS_15iterator_traitsIT_E15difference_typeES5_S5_NS_26random_access_iterator_tagE, symObjAddr: 0x8154, symBinAddr: 0x10000AFFC, symSize: 0x28 }
  - { offset: 0x1D4C0, size: 0x8, addend: 0x0, symName: __ZNSt3__18distanceB8ue170006IPN2sf6VertexEEENS_15iterator_traitsIT_E15difference_typeES5_S5_, symObjAddr: 0x84D4, symBinAddr: 0x10000B37C, symSize: 0x2C }
  - { offset: 0x1D503, size: 0x8, addend: 0x0, symName: __ZNSt3__14nextB8ue170006IPN2sf6VertexEEENS_9enable_ifIXsr29__has_input_iterator_categoryIT_EE5valueES5_E4typeES5_NS_15iterator_traitsIS5_E15difference_typeE, symObjAddr: 0x8568, symBinAddr: 0x10000B410, symSize: 0x34 }
  - { offset: 0x1D546, size: 0x8, addend: 0x0, symName: __ZNSt3__14copyB8ue170006IPN2sf6VertexES3_EET0_T_S5_S4_, symObjAddr: 0x859C, symBinAddr: 0x10000B444, symSize: 0x40 }
  - { offset: 0x1D5A0, size: 0x8, addend: 0x0, symName: __ZNSt3__16__copyB8ue170006INS_17_ClassicAlgPolicyEPN2sf6VertexES4_S4_EENS_4pairIT0_T2_EES6_T1_S7_, symObjAddr: 0x8668, symBinAddr: 0x10000B510, symSize: 0x44 }
  - { offset: 0x1D60C, size: 0x8, addend: 0x0, symName: __ZNSt3__19__advanceB8ue170006IPN2sf6VertexEEEvRT_NS_15iterator_traitsIS4_E15difference_typeENS_26random_access_iterator_tagE, symObjAddr: 0x898C, symBinAddr: 0x10000B834, symSize: 0x30 }
  - { offset: 0x1D655, size: 0x8, addend: 0x0, symName: __ZNSt3__130__uninitialized_allocator_copyB8ue170006INS_9allocatorIN2sf6VertexEEEPS3_S5_S5_EET2_RT_T0_T1_S6_, symObjAddr: 0x89F8, symBinAddr: 0x10000B8A0, symSize: 0x80 }
  - { offset: 0x1D6F2, size: 0x8, addend: 0x0, symName: __ZNSt3__114__unwrap_rangeB8ue170006IPN2sf6VertexES3_EENS_4pairIT0_S5_EET_S7_, symObjAddr: 0x8B18, symBinAddr: 0x10000B9C0, symSize: 0x60 }
  - { offset: 0x1D73E, size: 0x8, addend: 0x0, symName: __ZNSt3__135__uninitialized_allocator_copy_implB8ue170006INS_9allocatorIN2sf6VertexEEES3_S3_S3_LPv0EEEPT2_RT_PT0_SB_S7_, symObjAddr: 0x8B78, symBinAddr: 0x10000BA20, symSize: 0x38 }
  - { offset: 0x1D7BF, size: 0x8, addend: 0x0, symName: __ZNSt3__113__unwrap_iterB8ue170006IPN2sf6VertexENS_18__unwrap_iter_implIS3_Lb1EEELi0EEEDTclsrT0_8__unwrapclsr3stdE7declvalIT_EEEES7_, symObjAddr: 0x8BB0, symBinAddr: 0x10000BA58, symSize: 0x24 }
  - { offset: 0x1D803, size: 0x8, addend: 0x0, symName: __ZNSt3__113__rewrap_iterB8ue170006IPN2sf6VertexES3_NS_18__unwrap_iter_implIS3_Lb1EEEEET_S6_T0_, symObjAddr: 0x8BD4, symBinAddr: 0x10000BA7C, symSize: 0x3C }
  - { offset: 0x1D858, size: 0x8, addend: 0x0, symName: __ZNSt3__19make_pairB8ue170006IPN2sf6VertexES3_EENS_4pairINS_18__unwrap_ref_decayIT_E4typeENS5_IT0_E4typeEEEOS6_OS9_, symObjAddr: 0x8C10, symBinAddr: 0x10000BAB8, symSize: 0x38 }
  - { offset: 0x1D9FD, size: 0x8, addend: 0x0, symName: __ZNSt3__112__to_addressB8ue170006IN2sf6VertexEEEPT_S4_, symObjAddr: 0x8CDC, symBinAddr: 0x10000BB84, symSize: 0x14 }
  - { offset: 0x1DA32, size: 0x8, addend: 0x0, symName: __ZNSt3__123__dispatch_copy_or_moveB8ue170006INS_17_ClassicAlgPolicyENS_11__copy_loopIS1_EENS_14__copy_trivialEPN2sf6VertexES7_S7_EENS_4pairIT2_T4_EES9_T3_SA_, symObjAddr: 0x8DA0, symBinAddr: 0x10000BC48, symSize: 0x44 }
  - { offset: 0x1DAB0, size: 0x8, addend: 0x0, symName: __ZNSt3__121__unwrap_and_dispatchB8ue170006INS_10__overloadINS_11__copy_loopINS_17_ClassicAlgPolicyEEENS_14__copy_trivialEEEPN2sf6VertexES9_S9_Li0EEENS_4pairIT0_T2_EESB_T1_SC_, symObjAddr: 0x8DE4, symBinAddr: 0x10000BC8C, symSize: 0xB4 }
  - { offset: 0x1DB3E, size: 0x8, addend: 0x0, symName: __ZNSt3__114__rewrap_rangeB8ue170006IPN2sf6VertexES3_EET_S4_T0_, symObjAddr: 0x8EE0, symBinAddr: 0x10000BD88, symSize: 0x2C }
  - { offset: 0x1DB8A, size: 0x8, addend: 0x0, symName: __ZNSt3__119__copy_trivial_implB8ue170006IN2sf6VertexES2_EENS_4pairIPT_PT0_EES5_S5_S7_, symObjAddr: 0x8F0C, symBinAddr: 0x10000BDB4, symSize: 0x88 }
  - { offset: 0x1DBF2, size: 0x8, addend: 0x0, symName: __ZNSt3__119__constexpr_memmoveB8ue170006IN2sf6VertexES2_Li0EEEPT_S4_PT0_NS_15__element_countE, symObjAddr: 0x8F94, symBinAddr: 0x10000BE3C, symSize: 0x68 }
  - { offset: 0x1DC60, size: 0x8, addend: 0x0, symName: __ZNSt3__19make_pairB8ue170006IRPN2sf6VertexES3_EENS_4pairINS_18__unwrap_ref_decayIT_E4typeENS6_IT0_E4typeEEEOS7_OSA_, symObjAddr: 0x8FFC, symBinAddr: 0x10000BEA4, symSize: 0x38 }
  - { offset: 0x1DCAF, size: 0x8, addend: 0x0, symName: __ZNSt3__119__allocate_at_leastB8ue170006INS_9allocatorIN2sf6VertexEEEEENS_19__allocation_resultINS_16allocator_traitsIT_E7pointerEEERS7_m, symObjAddr: 0x951C, symBinAddr: 0x10000C3C4, symSize: 0x40 }
  - { offset: 0x1DCF2, size: 0x8, addend: 0x0, symName: __ZNSt3__110__distanceB8ue170006IPN2sf6VertexEEENS_15iterator_traitsIT_E15difference_typeES5_S5_NS_26random_access_iterator_tagE, symObjAddr: 0x971C, symBinAddr: 0x10000C5C4, symSize: 0x28 }
  - { offset: 0x1DD92, size: 0x8, addend: 0x0, symName: __ZNSt3__1miB8ue170006IPK6EntityS3_EEDTmicldtfp_4baseEcldtfp0_4baseEERKNS_11__wrap_iterIT_EERKNS5_IT0_EE, symObjAddr: 0x9830, symBinAddr: 0x10000C6D8, symSize: 0x48 }
  - { offset: 0x1DDDE, size: 0x8, addend: 0x0, symName: __ZNSt3__14moveB8ue170006IP6EntityS2_EET0_T_S4_S3_, symObjAddr: 0x98F0, symBinAddr: 0x10000C798, symSize: 0x40 }
  - { offset: 0x1DE38, size: 0x8, addend: 0x0, symName: __ZNSt3__16__moveB8ue170006INS_17_ClassicAlgPolicyEP6EntityS3_S3_EENS_4pairIT0_T2_EES5_T1_S6_, symObjAddr: 0x9B58, symBinAddr: 0x10000CA00, symSize: 0x44 }
  - { offset: 0x1DEA4, size: 0x8, addend: 0x0, symName: __ZNSt3__123__dispatch_copy_or_moveB8ue170006INS_17_ClassicAlgPolicyENS_11__move_loopIS1_EENS_14__move_trivialEP6EntityS6_S6_EENS_4pairIT2_T4_EES8_T3_S9_, symObjAddr: 0x9B9C, symBinAddr: 0x10000CA44, symSize: 0x44 }
  - { offset: 0x1DF22, size: 0x8, addend: 0x0, symName: __ZNSt3__121__unwrap_and_dispatchB8ue170006INS_10__overloadINS_11__move_loopINS_17_ClassicAlgPolicyEEENS_14__move_trivialEEEP6EntityS8_S8_Li0EEENS_4pairIT0_T2_EESA_T1_SB_, symObjAddr: 0x9BE0, symBinAddr: 0x10000CA88, symSize: 0xB4 }
  - { offset: 0x1DFB0, size: 0x8, addend: 0x0, symName: __ZNSt3__114__unwrap_rangeB8ue170006IP6EntityS2_EENS_4pairIT0_S4_EET_S6_, symObjAddr: 0x9C94, symBinAddr: 0x10000CB3C, symSize: 0x60 }
  - { offset: 0x1E0D0, size: 0x8, addend: 0x0, symName: __ZNSt3__113__unwrap_iterB8ue170006IP6EntityNS_18__unwrap_iter_implIS2_Lb1EEELi0EEEDTclsrT0_8__unwrapclsr3stdE7declvalIT_EEEES6_, symObjAddr: 0x9D84, symBinAddr: 0x10000CC2C, symSize: 0x24 }
  - { offset: 0x1E114, size: 0x8, addend: 0x0, symName: __ZNSt3__19make_pairB8ue170006IP6EntityS2_EENS_4pairINS_18__unwrap_ref_decayIT_E4typeENS4_IT0_E4typeEEEOS5_OS8_, symObjAddr: 0x9DA8, symBinAddr: 0x10000CC50, symSize: 0x38 }
  - { offset: 0x1E163, size: 0x8, addend: 0x0, symName: __ZNSt3__114__rewrap_rangeB8ue170006IP6EntityS2_EET_S3_T0_, symObjAddr: 0x9DE0, symBinAddr: 0x10000CC88, symSize: 0x2C }
  - { offset: 0x1E1AF, size: 0x8, addend: 0x0, symName: __ZNSt3__113__rewrap_iterB8ue170006IP6EntityS2_NS_18__unwrap_iter_implIS2_Lb1EEEEET_S5_T0_, symObjAddr: 0x9E0C, symBinAddr: 0x10000CCB4, symSize: 0x3C }
  - { offset: 0x1F2FF, size: 0x8, addend: 0x0, symName: __ZSt28__throw_bad_array_new_lengthB8ue170006v, symObjAddr: 0x398C, symBinAddr: 0x100006834, symSize: 0x34 }
  - { offset: 0x21CEB, size: 0x8, addend: 0x0, symName: __ZNSt3__16vectorI6EntityNS_9allocatorIS1_EEE26__swap_out_circular_bufferERNS_14__split_bufferIS1_RS3_EE, symObjAddr: 0x31E0, symBinAddr: 0x100006088, symSize: 0x110 }
  - { offset: 0x21EFD, size: 0x8, addend: 0x0, symName: __ZNSt3__16vectorIP7MonsterNS_9allocatorIS2_EEE26__swap_out_circular_bufferERNS_14__split_bufferIS2_RS4_EE, symObjAddr: 0x5148, symBinAddr: 0x100007FF0, symSize: 0x110 }
  - { offset: 0x2205A, size: 0x8, addend: 0x0, symName: __ZN17ProjectileManager4DrawERN2sf12RenderWindowE, symObjAddr: 0x0, symBinAddr: 0x100002EA8, symSize: 0x148 }
  - { offset: 0x220E7, size: 0x8, addend: 0x0, symName: __ZNSt3__16vectorI6EntityNS_9allocatorIS1_EEE5beginB8ue170006Ev, symObjAddr: 0x148, symBinAddr: 0x100002FF0, symSize: 0x30 }
  - { offset: 0x2210F, size: 0x8, addend: 0x0, symName: __ZNSt3__16vectorI6EntityNS_9allocatorIS1_EEE3endB8ue170006Ev, symObjAddr: 0x178, symBinAddr: 0x100003020, symSize: 0x30 }
  - { offset: 0x22137, size: 0x8, addend: 0x0, symName: __ZNKSt3__111__wrap_iterIP6EntityEdeB8ue170006Ev, symObjAddr: 0x1DC, symBinAddr: 0x100003084, symSize: 0x18 }
  - { offset: 0x2215D, size: 0x8, addend: 0x0, symName: __ZNSt3__111__wrap_iterIP6EntityEppB8ue170006Ev, symObjAddr: 0x1F4, symBinAddr: 0x10000309C, symSize: 0x20 }
  - { offset: 0x22183, size: 0x8, addend: 0x0, symName: __ZNSt3__113basic_ostreamIcNS_11char_traitsIcEEElsB8ue170006EPFRS3_S4_E, symObjAddr: 0x25C, symBinAddr: 0x100003104, symSize: 0x2C }
  - { offset: 0x221B7, size: 0x8, addend: 0x0, symName: __ZN17ProjectileManager14FireProjectileE5TowerffN2sf7Vector2IfEES3_f, symObjAddr: 0x2F0, symBinAddr: 0x100003198, symSize: 0x41C }
  - { offset: 0x22258, size: 0x8, addend: 0x0, symName: __ZNK5Tower7GetTypeEv, symObjAddr: 0x70C, symBinAddr: 0x1000035B4, symSize: 0x18 }
  - { offset: 0x2227E, size: 0x8, addend: 0x0, symName: __ZNSt3__16vectorI6EntityNS_9allocatorIS1_EEE9push_backB8ue170006ERKS1_, symObjAddr: 0x724, symBinAddr: 0x1000035CC, symSize: 0x6C }
  - { offset: 0x222B5, size: 0x8, addend: 0x0, symName: __ZNSt3__16vectorI6EntityNS_9allocatorIS1_EEE4backB8ue170006Ev, symObjAddr: 0x790, symBinAddr: 0x100003638, symSize: 0x1C }
  - { offset: 0x222DB, size: 0x8, addend: 0x0, symName: __ZN6Entity11SetRotationEf, symObjAddr: 0x7AC, symBinAddr: 0x100003654, symSize: 0x30 }
  - { offset: 0x2230F, size: 0x8, addend: 0x0, symName: __ZN6Entity12SetDirectionEN2sf7Vector2IfEE, symObjAddr: 0x7DC, symBinAddr: 0x100003684, symSize: 0x24 }
  - { offset: 0x22343, size: 0x8, addend: 0x0, symName: __ZN17ProjectileManager17UpdateProjectilesERNSt3__16vectorI7MonsterNS0_9allocatorIS2_EEEERNS1_IPS2_NS3_IS7_EEEERiRKN2sf7Vector2IfEE, symObjAddr: 0x800, symBinAddr: 0x1000036A8, symSize: 0xB20 }
  - { offset: 0x224A3, size: 0x8, addend: 0x0, symName: __ZNKSt3__16vectorI6EntityNS_9allocatorIS1_EEE4sizeB8ue170006Ev, symObjAddr: 0x1320, symBinAddr: 0x1000041C8, symSize: 0x28 }
  - { offset: 0x224C9, size: 0x8, addend: 0x0, symName: __ZNKSt3__16vectorI7MonsterNS_9allocatorIS1_EEE4sizeB8ue170006Ev, symObjAddr: 0x1348, symBinAddr: 0x1000041F0, symSize: 0x28 }
  - { offset: 0x224EF, size: 0x8, addend: 0x0, symName: __ZNKSt3__111__wrap_iterIP6EntityEptB8ue170006Ev, symObjAddr: 0x1370, symBinAddr: 0x100004218, symSize: 0x28 }
  - { offset: 0x22515, size: 0x8, addend: 0x0, symName: __ZNK6Entity11GetPositionEv, symObjAddr: 0x1398, symBinAddr: 0x100004240, symSize: 0x38 }
  - { offset: 0x2253B, size: 0x8, addend: 0x0, symName: __ZNK6Entity12GetDirectionEv, symObjAddr: 0x1420, symBinAddr: 0x1000042C8, symSize: 0x24 }
  - { offset: 0x22561, size: 0x8, addend: 0x0, symName: __ZNK6Entity8GetSpeedEv, symObjAddr: 0x1444, symBinAddr: 0x1000042EC, symSize: 0x18 }
  - { offset: 0x22587, size: 0x8, addend: 0x0, symName: __ZN6Entity4MoveERKN2sf7Vector2IfEE, symObjAddr: 0x145C, symBinAddr: 0x100004304, symSize: 0x30 }
  - { offset: 0x225BB, size: 0x8, addend: 0x0, symName: __ZNSt3__16vectorI7MonsterNS_9allocatorIS1_EEE5beginB8ue170006Ev, symObjAddr: 0x148C, symBinAddr: 0x100004334, symSize: 0x30 }
  - { offset: 0x225E3, size: 0x8, addend: 0x0, symName: __ZNSt3__16vectorI7MonsterNS_9allocatorIS1_EEE3endB8ue170006Ev, symObjAddr: 0x14BC, symBinAddr: 0x100004364, symSize: 0x30 }
  - { offset: 0x2260B, size: 0x8, addend: 0x0, symName: __ZNKSt3__111__wrap_iterIP7MonsterEdeB8ue170006Ev, symObjAddr: 0x1520, symBinAddr: 0x1000043C8, symSize: 0x18 }
  - { offset: 0x22635, size: 0x8, addend: 0x0, symName: __ZN11MathHelpers6LengthERKN2sf7Vector2IfEE, symObjAddr: 0x1590, symBinAddr: 0x100004438, symSize: 0x50 }
  - { offset: 0x22671, size: 0x8, addend: 0x0, symName: __ZNSt3__112basic_stringIcNS_11char_traitsIcEENS_9allocatorIcEEEC1B8ue170006Ev, symObjAddr: 0x15E0, symBinAddr: 0x100004488, symSize: 0x2C }
  - { offset: 0x2269B, size: 0x8, addend: 0x0, symName: __ZN7Monster14GetMonsterTypeEv, symObjAddr: 0x160C, symBinAddr: 0x1000044B4, symSize: 0x18 }
  - { offset: 0x226C1, size: 0x8, addend: 0x0, symName: __ZNSt3__112basic_stringIcNS_11char_traitsIcEENS_9allocatorIcEEEaSB8ue170006EPKc, symObjAddr: 0x1624, symBinAddr: 0x1000044CC, symSize: 0x2C }
  - { offset: 0x226F6, size: 0x8, addend: 0x0, symName: __ZN7Monster9SetHealthEf, symObjAddr: 0x1650, symBinAddr: 0x1000044F8, symSize: 0x30 }
  - { offset: 0x2272A, size: 0x8, addend: 0x0, symName: __ZNK7Monster9GetHealthEv, symObjAddr: 0x1680, symBinAddr: 0x100004528, symSize: 0x18 }
  - { offset: 0x22750, size: 0x8, addend: 0x0, symName: __ZNK6Entity9GetDamageEv, symObjAddr: 0x1698, symBinAddr: 0x100004540, symSize: 0x18 }
  - { offset: 0x22776, size: 0x8, addend: 0x0, symName: __ZNSt3__16vectorIP7MonsterNS_9allocatorIS2_EEE9push_backB8ue170006EOS2_, symObjAddr: 0x1728, symBinAddr: 0x1000045D0, symSize: 0x6C }
  - { offset: 0x227AD, size: 0x8, addend: 0x0, symName: __ZNSt3__16vectorI7MonsterNS_9allocatorIS1_EEE5eraseB8ue170006ENS_11__wrap_iterIPKS1_EE, symObjAddr: 0x1794, symBinAddr: 0x10000463C, symSize: 0x9C }
  - { offset: 0x2280D, size: 0x8, addend: 0x0, symName: __ZNSt3__111__wrap_iterIPK7MonsterEC1B8ue170006IPS1_EERKNS0_IT_EEPNS_9enable_ifIXsr14is_convertibleIS7_S3_EE5valueEvE4typeE, symObjAddr: 0x1830, symBinAddr: 0x1000046D8, symSize: 0x3C }
  - { offset: 0x22858, size: 0x8, addend: 0x0, symName: __ZNK7Monster9GetRewardEv, symObjAddr: 0x186C, symBinAddr: 0x100004714, symSize: 0x18 }
  - { offset: 0x2287E, size: 0x8, addend: 0x0, symName: __ZNSt3__111__wrap_iterIP7MonsterEppB8ue170006Ev, symObjAddr: 0x1884, symBinAddr: 0x10000472C, symSize: 0x20 }
  - { offset: 0x228A4, size: 0x8, addend: 0x0, symName: __ZNSt3__16vectorI6EntityNS_9allocatorIS1_EEE5eraseB8ue170006ENS_11__wrap_iterIPKS1_EE, symObjAddr: 0x18A4, symBinAddr: 0x10000474C, symSize: 0x9C }
  - { offset: 0x228FF, size: 0x8, addend: 0x0, symName: __ZNSt3__111__wrap_iterIPK6EntityEC1B8ue170006IPS1_EERKNS0_IT_EEPNS_9enable_ifIXsr14is_convertibleIS7_S3_EE5valueEvE4typeE, symObjAddr: 0x1940, symBinAddr: 0x1000047E8, symSize: 0x3C }
  - { offset: 0x2294A, size: 0x8, addend: 0x0, symName: __ZN17ProjectileManager16InitializeAssetsEv, symObjAddr: 0x197C, symBinAddr: 0x100004824, symSize: 0xE4 }
  - { offset: 0x22972, size: 0x8, addend: 0x0, symName: __ZN6Entity10SetTextureERKN2sf7TextureE, symObjAddr: 0x1A60, symBinAddr: 0x100004908, symSize: 0x38 }
  - { offset: 0x229A6, size: 0x8, addend: 0x0, symName: __ZN6Entity9SetOriginERKN2sf7Vector2IfEE, symObjAddr: 0x1A98, symBinAddr: 0x100004940, symSize: 0x30 }
  - { offset: 0x229DA, size: 0x8, addend: 0x0, symName: __ZN2sf7Vector2IfEC1Eff, symObjAddr: 0x1AC8, symBinAddr: 0x100004970, symSize: 0x3C }
  - { offset: 0x22A22, size: 0x8, addend: 0x0, symName: __ZN6Entity8SetScaleERKN2sf7Vector2IfEE, symObjAddr: 0x1B04, symBinAddr: 0x1000049AC, symSize: 0x30 }
  - { offset: 0x22A56, size: 0x8, addend: 0x0, symName: __ZN17ProjectileManager12SetDeltaTimeEN2sf4TimeE, symObjAddr: 0x1B34, symBinAddr: 0x1000049DC, symSize: 0x68 }
  - { offset: 0x22A8C, size: 0x8, addend: 0x0, symName: __ZNKSt3__111__wrap_iterIP6EntityE4baseB8ue170006Ev, symObjAddr: 0x1BE4, symBinAddr: 0x100004A8C, symSize: 0x18 }
  - { offset: 0x22AB2, size: 0x8, addend: 0x0, symName: __ZNKSt3__111__wrap_iterIP7MonsterE4baseB8ue170006Ev, symObjAddr: 0x1C58, symBinAddr: 0x100004B00, symSize: 0x18 }
  - { offset: 0x22AD7, size: 0x8, addend: 0x0, symName: __Z4sqrtB8ue170006f, symObjAddr: 0x1C70, symBinAddr: 0x100004B18, symSize: 0x18 }
  - { offset: 0x22B06, size: 0x8, addend: 0x0, symName: __ZN7Monster18NotifyStatsChangedEv, symObjAddr: 0x1C88, symBinAddr: 0x100004B30, symSize: 0x94 }
  - { offset: 0x22B7D, size: 0x8, addend: 0x0, symName: __ZNSt3__16vectorIP13IGameObserverNS_9allocatorIS2_EEE5beginB8ue170006Ev, symObjAddr: 0x1D1C, symBinAddr: 0x100004BC4, symSize: 0x30 }
  - { offset: 0x22BA5, size: 0x8, addend: 0x0, symName: __ZNSt3__16vectorIP13IGameObserverNS_9allocatorIS2_EEE3endB8ue170006Ev, symObjAddr: 0x1D4C, symBinAddr: 0x100004BF4, symSize: 0x30 }
  - { offset: 0x22BCD, size: 0x8, addend: 0x0, symName: __ZNKSt3__111__wrap_iterIPP13IGameObserverEdeB8ue170006Ev, symObjAddr: 0x1DB0, symBinAddr: 0x100004C58, symSize: 0x18 }
  - { offset: 0x22BF3, size: 0x8, addend: 0x0, symName: __ZNSt3__111__wrap_iterIPP13IGameObserverEppB8ue170006Ev, symObjAddr: 0x1DC8, symBinAddr: 0x100004C70, symSize: 0x20 }
  - { offset: 0x22C19, size: 0x8, addend: 0x0, symName: __ZNSt3__16vectorIP13IGameObserverNS_9allocatorIS2_EEE11__make_iterB8ue170006EPS2_, symObjAddr: 0x1DE8, symBinAddr: 0x100004C90, symSize: 0x30 }
  - { offset: 0x22C4E, size: 0x8, addend: 0x0, symName: __ZNSt3__111__wrap_iterIPP13IGameObserverEC1B8ue170006ES3_, symObjAddr: 0x1E18, symBinAddr: 0x100004CC0, symSize: 0x34 }
  - { offset: 0x22C86, size: 0x8, addend: 0x0, symName: __ZNSt3__111__wrap_iterIPP13IGameObserverEC2B8ue170006ES3_, symObjAddr: 0x1E4C, symBinAddr: 0x100004CF4, symSize: 0x20 }
  - { offset: 0x22CBE, size: 0x8, addend: 0x0, symName: __ZNKSt3__111__wrap_iterIPP13IGameObserverE4baseB8ue170006Ev, symObjAddr: 0x1EB4, symBinAddr: 0x100004D5C, symSize: 0x18 }
  - { offset: 0x22CE4, size: 0x8, addend: 0x0, symName: __ZNSt3__111__wrap_iterIPK7MonsterEC2B8ue170006IPS1_EERKNS0_IT_EEPNS_9enable_ifIXsr14is_convertibleIS7_S3_EE5valueEvE4typeE, symObjAddr: 0x1ECC, symBinAddr: 0x100004D74, symSize: 0x40 }
  - { offset: 0x22D2F, size: 0x8, addend: 0x0, symName: __ZNSt3__111__wrap_iterIPK6EntityEC2B8ue170006IPS1_EERKNS0_IT_EEPNS_9enable_ifIXsr14is_convertibleIS7_S3_EE5valueEvE4typeE, symObjAddr: 0x1F0C, symBinAddr: 0x100004DB4, symSize: 0x40 }
  - { offset: 0x22D7A, size: 0x8, addend: 0x0, symName: __ZNSt3__111char_traitsIcE6lengthB8ue170006EPKc, symObjAddr: 0x2138, symBinAddr: 0x100004FE0, symSize: 0x34 }
  - { offset: 0x22DBE, size: 0x8, addend: 0x0, symName: __ZNKSt3__113basic_ostreamIcNS_11char_traitsIcEEE6sentrycvbB8ue170006Ev, symObjAddr: 0x216C, symBinAddr: 0x100005014, symSize: 0x1C }
  - { offset: 0x22DE4, size: 0x8, addend: 0x0, symName: __ZNSt3__119ostreambuf_iteratorIcNS_11char_traitsIcEEEC1B8ue170006ERNS_13basic_ostreamIcS2_EE, symObjAddr: 0x23C8, symBinAddr: 0x100005270, symSize: 0x34 }
  - { offset: 0x22E1C, size: 0x8, addend: 0x0, symName: __ZNKSt3__18ios_base5flagsB8ue170006Ev, symObjAddr: 0x23FC, symBinAddr: 0x1000052A4, symSize: 0x18 }
  - { offset: 0x22E44, size: 0x8, addend: 0x0, symName: __ZNKSt3__19basic_iosIcNS_11char_traitsIcEEE4fillB8ue170006Ev, symObjAddr: 0x2414, symBinAddr: 0x1000052BC, symSize: 0x64 }
  - { offset: 0x22E6C, size: 0x8, addend: 0x0, symName: __ZNKSt3__119ostreambuf_iteratorIcNS_11char_traitsIcEEE6failedB8ue170006Ev, symObjAddr: 0x2478, symBinAddr: 0x100005320, symSize: 0x24 }
  - { offset: 0x22E92, size: 0x8, addend: 0x0, symName: __ZNSt3__19basic_iosIcNS_11char_traitsIcEEE8setstateB8ue170006Ej, symObjAddr: 0x249C, symBinAddr: 0x100005344, symSize: 0x2C }
  - { offset: 0x22EC7, size: 0x8, addend: 0x0, symName: __ZNKSt3__18ios_base5widthB8ue170006Ev, symObjAddr: 0x24C8, symBinAddr: 0x100005370, symSize: 0x18 }
  - { offset: 0x22EEF, size: 0x8, addend: 0x0, symName: __ZNSt3__115basic_streambufIcNS_11char_traitsIcEEE5sputnB8ue170006EPKcl, symObjAddr: 0x24E0, symBinAddr: 0x100005388, symSize: 0x3C }
  - { offset: 0x22F31, size: 0x8, addend: 0x0, symName: __ZNSt3__112basic_stringIcNS_11char_traitsIcEENS_9allocatorIcEEEC1B8ue170006Emc, symObjAddr: 0x251C, symBinAddr: 0x1000053C4, symSize: 0x3C }
  - { offset: 0x22F79, size: 0x8, addend: 0x0, symName: __ZNSt3__112basic_stringIcNS_11char_traitsIcEENS_9allocatorIcEEE4dataB8ue170006Ev, symObjAddr: 0x2558, symBinAddr: 0x100005400, symSize: 0x28 }
  - { offset: 0x22F9F, size: 0x8, addend: 0x0, symName: __ZNSt3__18ios_base5widthB8ue170006El, symObjAddr: 0x2580, symBinAddr: 0x100005428, symSize: 0x2C }
  - { offset: 0x22FE5, size: 0x8, addend: 0x0, symName: __ZNSt3__112basic_stringIcNS_11char_traitsIcEENS_9allocatorIcEEEC2B8ue170006Emc, symObjAddr: 0x25AC, symBinAddr: 0x100005454, symSize: 0x4C }
  - { offset: 0x23033, size: 0x8, addend: 0x0, symName: __ZNSt3__117__compressed_pairINS_12basic_stringIcNS_11char_traitsIcEENS_9allocatorIcEEE5__repES5_EC1B8ue170006INS_18__default_init_tagESA_EEOT_OT0_, symObjAddr: 0x25F8, symBinAddr: 0x1000054A0, symSize: 0x3C }
  - { offset: 0x2308B, size: 0x8, addend: 0x0, symName: __ZNSt3__117__compressed_pairINS_12basic_stringIcNS_11char_traitsIcEENS_9allocatorIcEEE5__repES5_EC2B8ue170006INS_18__default_init_tagESA_EEOT_OT0_, symObjAddr: 0x2634, symBinAddr: 0x1000054DC, symSize: 0x3C }
  - { offset: 0x230E3, size: 0x8, addend: 0x0, symName: __ZNSt3__122__compressed_pair_elemINS_12basic_stringIcNS_11char_traitsIcEENS_9allocatorIcEEE5__repELi0ELb0EEC2B8ue170006ENS_18__default_init_tagE, symObjAddr: 0x2670, symBinAddr: 0x100005518, symSize: 0x14 }
  - { offset: 0x23117, size: 0x8, addend: 0x0, symName: __ZNSt3__122__compressed_pair_elemINS_9allocatorIcEELi1ELb1EEC2B8ue170006ENS_18__default_init_tagE, symObjAddr: 0x2684, symBinAddr: 0x10000552C, symSize: 0x2C }
  - { offset: 0x2314B, size: 0x8, addend: 0x0, symName: __ZNSt3__19allocatorIcEC2B8ue170006Ev, symObjAddr: 0x26B0, symBinAddr: 0x100005558, symSize: 0x2C }
  - { offset: 0x23175, size: 0x8, addend: 0x0, symName: __ZNSt3__116__non_trivial_ifILb1ENS_9allocatorIcEEEC2B8ue170006Ev, symObjAddr: 0x26DC, symBinAddr: 0x100005584, symSize: 0x14 }
  - { offset: 0x2319F, size: 0x8, addend: 0x0, symName: __ZNSt3__112basic_stringIcNS_11char_traitsIcEENS_9allocatorIcEEE13__get_pointerB8ue170006Ev, symObjAddr: 0x2704, symBinAddr: 0x1000055AC, symSize: 0x54 }
  - { offset: 0x231C5, size: 0x8, addend: 0x0, symName: __ZNKSt3__112basic_stringIcNS_11char_traitsIcEENS_9allocatorIcEEE9__is_longB8ue170006Ev, symObjAddr: 0x2758, symBinAddr: 0x100005600, symSize: 0x38 }
  - { offset: 0x231EB, size: 0x8, addend: 0x0, symName: __ZNSt3__112basic_stringIcNS_11char_traitsIcEENS_9allocatorIcEEE18__get_long_pointerB8ue170006Ev, symObjAddr: 0x2790, symBinAddr: 0x100005638, symSize: 0x28 }
  - { offset: 0x23211, size: 0x8, addend: 0x0, symName: __ZNSt3__112basic_stringIcNS_11char_traitsIcEENS_9allocatorIcEEE19__get_short_pointerB8ue170006Ev, symObjAddr: 0x27B8, symBinAddr: 0x100005660, symSize: 0x28 }
  - { offset: 0x23237, size: 0x8, addend: 0x0, symName: __ZNKSt3__117__compressed_pairINS_12basic_stringIcNS_11char_traitsIcEENS_9allocatorIcEEE5__repES5_E5firstB8ue170006Ev, symObjAddr: 0x27E0, symBinAddr: 0x100005688, symSize: 0x24 }
  - { offset: 0x2325D, size: 0x8, addend: 0x0, symName: __ZNKSt3__122__compressed_pair_elemINS_12basic_stringIcNS_11char_traitsIcEENS_9allocatorIcEEE5__repELi0ELb0EE5__getB8ue170006Ev, symObjAddr: 0x2804, symBinAddr: 0x1000056AC, symSize: 0x14 }
  - { offset: 0x23283, size: 0x8, addend: 0x0, symName: __ZNSt3__117__compressed_pairINS_12basic_stringIcNS_11char_traitsIcEENS_9allocatorIcEEE5__repES5_E5firstB8ue170006Ev, symObjAddr: 0x2818, symBinAddr: 0x1000056C0, symSize: 0x24 }
  - { offset: 0x232A9, size: 0x8, addend: 0x0, symName: __ZNSt3__122__compressed_pair_elemINS_12basic_stringIcNS_11char_traitsIcEENS_9allocatorIcEEE5__repELi0ELb0EE5__getB8ue170006Ev, symObjAddr: 0x283C, symBinAddr: 0x1000056E4, symSize: 0x14 }
  - { offset: 0x232CF, size: 0x8, addend: 0x0, symName: __ZNSt3__114pointer_traitsIPcE10pointer_toB8ue170006ERc, symObjAddr: 0x2850, symBinAddr: 0x1000056F8, symSize: 0x14 }
  - { offset: 0x232F2, size: 0x8, addend: 0x0, symName: __ZNSt3__119ostreambuf_iteratorIcNS_11char_traitsIcEEEC2B8ue170006ERNS_13basic_ostreamIcS2_EE, symObjAddr: 0x2864, symBinAddr: 0x10000570C, symSize: 0x54 }
  - { offset: 0x2332A, size: 0x8, addend: 0x0, symName: __ZNKSt3__19basic_iosIcNS_11char_traitsIcEEE5rdbufB8ue170006Ev, symObjAddr: 0x28B8, symBinAddr: 0x100005760, symSize: 0x24 }
  - { offset: 0x23352, size: 0x8, addend: 0x0, symName: __ZNKSt3__18ios_base5rdbufB8ue170006Ev, symObjAddr: 0x28DC, symBinAddr: 0x100005784, symSize: 0x18 }
  - { offset: 0x23378, size: 0x8, addend: 0x0, symName: __ZNSt3__111char_traitsIcE11eq_int_typeB8ue170006Eii, symObjAddr: 0x28F4, symBinAddr: 0x10000579C, symSize: 0x28 }
  - { offset: 0x233AB, size: 0x8, addend: 0x0, symName: __ZNSt3__111char_traitsIcE3eofB8ue170006Ev, symObjAddr: 0x291C, symBinAddr: 0x1000057C4, symSize: 0x8 }
  - { offset: 0x233BF, size: 0x8, addend: 0x0, symName: __ZNKSt3__19basic_iosIcNS_11char_traitsIcEEE5widenB8ue170006Ec, symObjAddr: 0x2924, symBinAddr: 0x1000057CC, symSize: 0x84 }
  - { offset: 0x23433, size: 0x8, addend: 0x0, symName: __ZNKSt3__15ctypeIcE5widenB8ue170006Ec, symObjAddr: 0x29D4, symBinAddr: 0x10000587C, symSize: 0x38 }
  - { offset: 0x23468, size: 0x8, addend: 0x0, symName: __ZNSt3__18ios_base8setstateB8ue170006Ej, symObjAddr: 0x2A0C, symBinAddr: 0x1000058B4, symSize: 0x34 }
  - { offset: 0x2349F, size: 0x8, addend: 0x0, symName: __ZN2sf7Vector2IfEC2Eff, symObjAddr: 0x2A64, symBinAddr: 0x10000590C, symSize: 0x2C }
  - { offset: 0x234E7, size: 0x8, addend: 0x0, symName: __ZNSt3__112basic_stringIcNS_11char_traitsIcEENS_9allocatorIcEEEC2B8ue170006Ev, symObjAddr: 0x2A90, symBinAddr: 0x100005938, symSize: 0x48 }
  - { offset: 0x23511, size: 0x8, addend: 0x0, symName: __ZNSt3__112basic_stringIcNS_11char_traitsIcEENS_9allocatorIcEEE14__default_initB8ue170006Ev, symObjAddr: 0x2AD8, symBinAddr: 0x100005980, symSize: 0x40 }
  - { offset: 0x23537, size: 0x8, addend: 0x0, symName: __ZNSt3__16vectorI6EntityNS_9allocatorIS1_EEE11__make_iterB8ue170006EPS1_, symObjAddr: 0x2B18, symBinAddr: 0x1000059C0, symSize: 0x30 }
  - { offset: 0x2356C, size: 0x8, addend: 0x0, symName: __ZNSt3__111__wrap_iterIP6EntityEC1B8ue170006ES2_, symObjAddr: 0x2B48, symBinAddr: 0x1000059F0, symSize: 0x34 }
  - { offset: 0x235A4, size: 0x8, addend: 0x0, symName: __ZNSt3__111__wrap_iterIP6EntityEC2B8ue170006ES2_, symObjAddr: 0x2B7C, symBinAddr: 0x100005A24, symSize: 0x20 }
  - { offset: 0x235DC, size: 0x8, addend: 0x0, symName: __ZNSt3__16vectorI6EntityNS_9allocatorIS1_EEE9__end_capB8ue170006Ev, symObjAddr: 0x2B9C, symBinAddr: 0x100005A44, symSize: 0x28 }
  - { offset: 0x23602, size: 0x8, addend: 0x0, symName: __ZNSt3__16vectorI6EntityNS_9allocatorIS1_EEE22__construct_one_at_endB8ue170006IJRKS1_EEEvDpOT_, symObjAddr: 0x2BC4, symBinAddr: 0x100005A6C, symSize: 0x90 }
  - { offset: 0x23651, size: 0x8, addend: 0x0, symName: __ZNSt3__16vectorI6EntityNS_9allocatorIS1_EEE21__push_back_slow_pathIRKS1_EEvOT_, symObjAddr: 0x2C54, symBinAddr: 0x100005AFC, symSize: 0xD8 }
  - { offset: 0x236AF, size: 0x8, addend: 0x0, symName: __ZNSt3__117__compressed_pairIP6EntityNS_9allocatorIS1_EEE5firstB8ue170006Ev, symObjAddr: 0x2D2C, symBinAddr: 0x100005BD4, symSize: 0x24 }
  - { offset: 0x236D5, size: 0x8, addend: 0x0, symName: __ZNSt3__122__compressed_pair_elemIP6EntityLi0ELb0EE5__getB8ue170006Ev, symObjAddr: 0x2D50, symBinAddr: 0x100005BF8, symSize: 0x14 }
  - { offset: 0x23716, size: 0x8, addend: 0x0, symName: __ZNSt3__16vectorI6EntityNS_9allocatorIS1_EEE21_ConstructTransactionC1B8ue170006ERS4_m, symObjAddr: 0x2D64, symBinAddr: 0x100005C0C, symSize: 0x3C }
  - { offset: 0x2375E, size: 0x8, addend: 0x0, symName: __ZNSt3__116allocator_traitsINS_9allocatorI6EntityEEE9constructB8ue170006IS2_JRKS2_EvEEvRS3_PT_DpOT0_, symObjAddr: 0x2DA0, symBinAddr: 0x100005C48, symSize: 0x34 }
  - { offset: 0x237B5, size: 0x8, addend: 0x0, symName: __ZNSt3__16vectorI6EntityNS_9allocatorIS1_EEE7__allocB8ue170006Ev, symObjAddr: 0x2DD4, symBinAddr: 0x100005C7C, symSize: 0x28 }
  - { offset: 0x237DB, size: 0x8, addend: 0x0, symName: __ZNSt3__16vectorI6EntityNS_9allocatorIS1_EEE21_ConstructTransactionD1B8ue170006Ev, symObjAddr: 0x2DFC, symBinAddr: 0x100005CA4, symSize: 0x2C }
  - { offset: 0x23805, size: 0x8, addend: 0x0, symName: __ZNSt3__16vectorI6EntityNS_9allocatorIS1_EEE21_ConstructTransactionC2B8ue170006ERS4_m, symObjAddr: 0x2E28, symBinAddr: 0x100005CD0, symSize: 0x4C }
  - { offset: 0x2384D, size: 0x8, addend: 0x0, symName: __ZNSt3__19allocatorI6EntityE9constructB8ue170006IS1_JRKS1_EEEvPT_DpOT0_, symObjAddr: 0x2E74, symBinAddr: 0x100005D1C, symSize: 0x30 }
  - { offset: 0x238A3, size: 0x8, addend: 0x0, symName: __ZN6EntityC1ERKS_, symObjAddr: 0x2EA4, symBinAddr: 0x100005D4C, symSize: 0x34 }
  - { offset: 0x238D8, size: 0x8, addend: 0x0, symName: __ZN6EntityC2ERKS_, symObjAddr: 0x2ED8, symBinAddr: 0x100005D80, symSize: 0x74 }
  - { offset: 0x2390D, size: 0x8, addend: 0x0, symName: __ZN2sf8DrawableC2ERKS0_, symObjAddr: 0x2F4C, symBinAddr: 0x100005DF4, symSize: 0x28 }
  - { offset: 0x23942, size: 0x8, addend: 0x0, symName: __ZN2sf6SpriteC1ERKS0_, symObjAddr: 0x2F74, symBinAddr: 0x100005E1C, symSize: 0x34 }
  - { offset: 0x23977, size: 0x8, addend: 0x0, symName: __ZN2sf8DrawableD1Ev, symObjAddr: 0x2FA8, symBinAddr: 0x100005E50, symSize: 0x14 }
  - { offset: 0x239A1, size: 0x8, addend: 0x0, symName: __ZN2sf8DrawableD0Ev, symObjAddr: 0x2FBC, symBinAddr: 0x100005E64, symSize: 0xC }
  - { offset: 0x239CB, size: 0x8, addend: 0x0, symName: __ZN2sf6SpriteC2ERKS0_, symObjAddr: 0x2FC8, symBinAddr: 0x100005E70, symSize: 0x78 }
  - { offset: 0x23A06, size: 0x8, addend: 0x0, symName: __ZN2sf13TransformableC2ERKS0_, symObjAddr: 0x3040, symBinAddr: 0x100005EE8, symSize: 0x50 }
  - { offset: 0x23A3B, size: 0x8, addend: 0x0, symName: __ZNSt3__117__compressed_pairIP6EntityNS_9allocatorIS1_EEE6secondB8ue170006Ev, symObjAddr: 0x3090, symBinAddr: 0x100005F38, symSize: 0x24 }
  - { offset: 0x23A61, size: 0x8, addend: 0x0, symName: __ZNSt3__122__compressed_pair_elemINS_9allocatorI6EntityEELi1ELb1EE5__getB8ue170006Ev, symObjAddr: 0x30B4, symBinAddr: 0x100005F5C, symSize: 0x14 }
  - { offset: 0x23A87, size: 0x8, addend: 0x0, symName: __ZNSt3__16vectorI6EntityNS_9allocatorIS1_EEE21_ConstructTransactionD2B8ue170006Ev, symObjAddr: 0x30C8, symBinAddr: 0x100005F70, symSize: 0x20 }
  - { offset: 0x23AB1, size: 0x8, addend: 0x0, symName: __ZNKSt3__16vectorI6EntityNS_9allocatorIS1_EEE11__recommendB8ue170006Em, symObjAddr: 0x30E8, symBinAddr: 0x100005F90, symSize: 0xB4 }
  - { offset: 0x23B06, size: 0x8, addend: 0x0, symName: __ZNSt3__114__split_bufferI6EntityRNS_9allocatorIS1_EEEC1EmmS4_, symObjAddr: 0x319C, symBinAddr: 0x100006044, symSize: 0x44 }
  - { offset: 0x23B5C, size: 0x8, addend: 0x0, symName: __ZNSt3__114__split_bufferI6EntityRNS_9allocatorIS1_EEED1Ev, symObjAddr: 0x32F0, symBinAddr: 0x100006198, symSize: 0x2C }
  - { offset: 0x23B88, size: 0x8, addend: 0x0, symName: __ZNKSt3__16vectorI6EntityNS_9allocatorIS1_EEE8max_sizeEv, symObjAddr: 0x331C, symBinAddr: 0x1000061C4, symSize: 0x60 }
  - { offset: 0x23BB0, size: 0x8, addend: 0x0, symName: __ZNKSt3__16vectorI6EntityNS_9allocatorIS1_EEE20__throw_length_errorB8ue170006Ev, symObjAddr: 0x337C, symBinAddr: 0x100006224, symSize: 0x1C }
  - { offset: 0x23BD6, size: 0x8, addend: 0x0, symName: __ZNKSt3__16vectorI6EntityNS_9allocatorIS1_EEE8capacityB8ue170006Ev, symObjAddr: 0x3398, symBinAddr: 0x100006240, symSize: 0x40 }
  - { offset: 0x23C07, size: 0x8, addend: 0x0, symName: __ZNSt3__116allocator_traitsINS_9allocatorI6EntityEEE8max_sizeB8ue170006IS3_vEEmRKS3_, symObjAddr: 0x3430, symBinAddr: 0x1000062D8, symSize: 0x24 }
  - { offset: 0x23C35, size: 0x8, addend: 0x0, symName: __ZNKSt3__16vectorI6EntityNS_9allocatorIS1_EEE7__allocB8ue170006Ev, symObjAddr: 0x3454, symBinAddr: 0x1000062FC, symSize: 0x28 }
  - { offset: 0x23C5B, size: 0x8, addend: 0x0, symName: __ZNSt3__114numeric_limitsIlE3maxB8ue170006Ev, symObjAddr: 0x347C, symBinAddr: 0x100006324, symSize: 0x14 }
  - { offset: 0x23C79, size: 0x8, addend: 0x0, symName: __ZNKSt3__16__lessIvvEclB8ue170006ImmEEbRKT_RKT0_, symObjAddr: 0x34E4, symBinAddr: 0x10000638C, symSize: 0x34 }
  - { offset: 0x23CCD, size: 0x8, addend: 0x0, symName: __ZNKSt3__19allocatorI6EntityE8max_sizeB8ue170006Ev, symObjAddr: 0x3518, symBinAddr: 0x1000063C0, symSize: 0x18 }
  - { offset: 0x23CF3, size: 0x8, addend: 0x0, symName: __ZNKSt3__117__compressed_pairIP6EntityNS_9allocatorIS1_EEE6secondB8ue170006Ev, symObjAddr: 0x3530, symBinAddr: 0x1000063D8, symSize: 0x24 }
  - { offset: 0x23D19, size: 0x8, addend: 0x0, symName: __ZNKSt3__122__compressed_pair_elemINS_9allocatorI6EntityEELi1ELb1EE5__getB8ue170006Ev, symObjAddr: 0x3554, symBinAddr: 0x1000063FC, symSize: 0x14 }
  - { offset: 0x23D3F, size: 0x8, addend: 0x0, symName: __ZNSt3__123__libcpp_numeric_limitsIlLb1EE3maxB8ue170006Ev, symObjAddr: 0x3568, symBinAddr: 0x100006410, symSize: 0x8 }
  - { offset: 0x23D53, size: 0x8, addend: 0x0, symName: __ZNSt12length_errorC1B8ue170006EPKc, symObjAddr: 0x35D4, symBinAddr: 0x10000647C, symSize: 0x34 }
  - { offset: 0x23D8B, size: 0x8, addend: 0x0, symName: __ZNSt12length_errorC2B8ue170006EPKc, symObjAddr: 0x3608, symBinAddr: 0x1000064B0, symSize: 0x44 }
  - { offset: 0x23DC3, size: 0x8, addend: 0x0, symName: __ZNKSt3__16vectorI6EntityNS_9allocatorIS1_EEE9__end_capB8ue170006Ev, symObjAddr: 0x364C, symBinAddr: 0x1000064F4, symSize: 0x28 }
  - { offset: 0x23DE9, size: 0x8, addend: 0x0, symName: __ZNKSt3__117__compressed_pairIP6EntityNS_9allocatorIS1_EEE5firstB8ue170006Ev, symObjAddr: 0x3674, symBinAddr: 0x10000651C, symSize: 0x24 }
  - { offset: 0x23E0F, size: 0x8, addend: 0x0, symName: __ZNKSt3__122__compressed_pair_elemIP6EntityLi0ELb0EE5__getB8ue170006Ev, symObjAddr: 0x3698, symBinAddr: 0x100006540, symSize: 0x14 }
  - { offset: 0x23E35, size: 0x8, addend: 0x0, symName: __ZNSt3__114__split_bufferI6EntityRNS_9allocatorIS1_EEEC2EmmS4_, symObjAddr: 0x3700, symBinAddr: 0x1000065A8, symSize: 0xE0 }
  - { offset: 0x23EAE, size: 0x8, addend: 0x0, symName: __ZNSt3__117__compressed_pairIP6EntityRNS_9allocatorIS1_EEEC1B8ue170006IDnS5_EEOT_OT0_, symObjAddr: 0x37E0, symBinAddr: 0x100006688, symSize: 0x3C }
  - { offset: 0x23F06, size: 0x8, addend: 0x0, symName: __ZNSt3__114__split_bufferI6EntityRNS_9allocatorIS1_EEE7__allocB8ue170006Ev, symObjAddr: 0x385C, symBinAddr: 0x100006704, symSize: 0x28 }
  - { offset: 0x23F2C, size: 0x8, addend: 0x0, symName: __ZNSt3__114__split_bufferI6EntityRNS_9allocatorIS1_EEE9__end_capB8ue170006Ev, symObjAddr: 0x3884, symBinAddr: 0x10000672C, symSize: 0x28 }
  - { offset: 0x23F52, size: 0x8, addend: 0x0, symName: __ZNSt3__117__compressed_pairIP6EntityRNS_9allocatorIS1_EEEC2B8ue170006IDnS5_EEOT_OT0_, symObjAddr: 0x38AC, symBinAddr: 0x100006754, symSize: 0x48 }
  - { offset: 0x23FAA, size: 0x8, addend: 0x0, symName: __ZNSt3__122__compressed_pair_elemIP6EntityLi0ELb0EEC2B8ue170006IDnvEEOT_, symObjAddr: 0x38F4, symBinAddr: 0x10000679C, symSize: 0x1C }
  - { offset: 0x23FEC, size: 0x8, addend: 0x0, symName: __ZNSt3__122__compressed_pair_elemIRNS_9allocatorI6EntityEELi1ELb0EEC2B8ue170006IS4_vEEOT_, symObjAddr: 0x3910, symBinAddr: 0x1000067B8, symSize: 0x20 }
  - { offset: 0x2402E, size: 0x8, addend: 0x0, symName: __ZNSt3__19allocatorI6EntityE8allocateB8ue170006Em, symObjAddr: 0x3930, symBinAddr: 0x1000067D8, symSize: 0x5C }
  - { offset: 0x24062, size: 0x8, addend: 0x0, symName: __ZNSt3__117__compressed_pairIP6EntityRNS_9allocatorIS1_EEE6secondB8ue170006Ev, symObjAddr: 0x3A90, symBinAddr: 0x100006938, symSize: 0x28 }
  - { offset: 0x24088, size: 0x8, addend: 0x0, symName: __ZNSt3__122__compressed_pair_elemIRNS_9allocatorI6EntityEELi1ELb0EE5__getB8ue170006Ev, symObjAddr: 0x3AB8, symBinAddr: 0x100006960, symSize: 0x18 }
  - { offset: 0x240AE, size: 0x8, addend: 0x0, symName: __ZNSt3__117__compressed_pairIP6EntityRNS_9allocatorIS1_EEE5firstB8ue170006Ev, symObjAddr: 0x3AD0, symBinAddr: 0x100006978, symSize: 0x24 }
  - { offset: 0x240D4, size: 0x8, addend: 0x0, symName: __ZNKSt3__16vectorI6EntityNS_9allocatorIS1_EEE17__annotate_deleteB8ue170006Ev, symObjAddr: 0x3AF4, symBinAddr: 0x10000699C, symSize: 0xD4 }
  - { offset: 0x240FA, size: 0x8, addend: 0x0, symName: __ZNSt3__116reverse_iteratorIP6EntityEC1B8ue170006ES2_, symObjAddr: 0x3CF4, symBinAddr: 0x100006B9C, symSize: 0x34 }
  - { offset: 0x24132, size: 0x8, addend: 0x0, symName: __ZNKSt3__116reverse_iteratorIP6EntityE4baseB8ue170006Ev, symObjAddr: 0x3D28, symBinAddr: 0x100006BD0, symSize: 0x18 }
  - { offset: 0x24158, size: 0x8, addend: 0x0, symName: __ZNKSt3__16vectorI6EntityNS_9allocatorIS1_EEE14__annotate_newB8ue170006Em, symObjAddr: 0x3D7C, symBinAddr: 0x100006C24, symSize: 0xC8 }
  - { offset: 0x2418D, size: 0x8, addend: 0x0, symName: __ZNKSt3__16vectorI6EntityNS_9allocatorIS1_EEE31__annotate_contiguous_containerB8ue170006EPKvS6_S6_S6_, symObjAddr: 0x3E44, symBinAddr: 0x100006CEC, symSize: 0x20 }
  - { offset: 0x241DF, size: 0x8, addend: 0x0, symName: __ZNKSt3__16vectorI6EntityNS_9allocatorIS1_EEE4dataB8ue170006Ev, symObjAddr: 0x3E64, symBinAddr: 0x100006D0C, symSize: 0x28 }
  - { offset: 0x24205, size: 0x8, addend: 0x0, symName: __ZNSt3__129_AllocatorDestroyRangeReverseINS_9allocatorI6EntityEENS_16reverse_iteratorIPS2_EEEC1B8ue170006ERS3_RS6_S9_, symObjAddr: 0x3ED8, symBinAddr: 0x100006D80, symSize: 0x44 }
  - { offset: 0x24262, size: 0x8, addend: 0x0, symName: __ZNSt3__116allocator_traitsINS_9allocatorI6EntityEEE9constructB8ue170006IS2_JS2_EvEEvRS3_PT_DpOT0_, symObjAddr: 0x3F64, symBinAddr: 0x100006E0C, symSize: 0x34 }
  - { offset: 0x242B9, size: 0x8, addend: 0x0, symName: __ZNKSt3__116reverse_iteratorIP6EntityEdeB8ue170006Ev, symObjAddr: 0x3FBC, symBinAddr: 0x100006E64, symSize: 0x28 }
  - { offset: 0x242ED, size: 0x8, addend: 0x0, symName: __ZNSt3__116reverse_iteratorIP6EntityEppB8ue170006Ev, symObjAddr: 0x3FE4, symBinAddr: 0x100006E8C, symSize: 0x20 }
  - { offset: 0x24313, size: 0x8, addend: 0x0, symName: __ZNSt3__128__exception_guard_exceptionsINS_29_AllocatorDestroyRangeReverseINS_9allocatorI6EntityEENS_16reverse_iteratorIPS3_EEEEE10__completeB8ue170006Ev, symObjAddr: 0x4004, symBinAddr: 0x100006EAC, symSize: 0x1C }
  - { offset: 0x24339, size: 0x8, addend: 0x0, symName: __ZNSt3__128__exception_guard_exceptionsINS_29_AllocatorDestroyRangeReverseINS_9allocatorI6EntityEENS_16reverse_iteratorIPS3_EEEEED1B8ue170006Ev, symObjAddr: 0x4020, symBinAddr: 0x100006EC8, symSize: 0x2C }
  - { offset: 0x24363, size: 0x8, addend: 0x0, symName: __ZNSt3__128__exception_guard_exceptionsINS_29_AllocatorDestroyRangeReverseINS_9allocatorI6EntityEENS_16reverse_iteratorIPS3_EEEEEC1B8ue170006ES8_, symObjAddr: 0x404C, symBinAddr: 0x100006EF4, symSize: 0x34 }
  - { offset: 0x2439C, size: 0x8, addend: 0x0, symName: __ZNSt3__128__exception_guard_exceptionsINS_29_AllocatorDestroyRangeReverseINS_9allocatorI6EntityEENS_16reverse_iteratorIPS3_EEEEEC2B8ue170006ES8_, symObjAddr: 0x4080, symBinAddr: 0x100006F28, symSize: 0x30 }
  - { offset: 0x243D5, size: 0x8, addend: 0x0, symName: __ZNSt3__129_AllocatorDestroyRangeReverseINS_9allocatorI6EntityEENS_16reverse_iteratorIPS2_EEEC2B8ue170006ERS3_RS6_S9_, symObjAddr: 0x40B0, symBinAddr: 0x100006F58, symSize: 0x38 }
  - { offset: 0x2442C, size: 0x8, addend: 0x0, symName: __ZNSt3__19allocatorI6EntityE9constructB8ue170006IS1_JS1_EEEvPT_DpOT0_, symObjAddr: 0x40E8, symBinAddr: 0x100006F90, symSize: 0x30 }
  - { offset: 0x24488, size: 0x8, addend: 0x0, symName: __ZNSt3__119__to_address_helperINS_16reverse_iteratorIP6EntityEEvE6__callB8ue170006ERKS4_, symObjAddr: 0x4118, symBinAddr: 0x100006FC0, symSize: 0x38 }
  - { offset: 0x244AB, size: 0x8, addend: 0x0, symName: __ZNKSt3__116reverse_iteratorIP6EntityEptB8ue170006Ev, symObjAddr: 0x4150, symBinAddr: 0x100006FF8, symSize: 0x24 }
  - { offset: 0x244D1, size: 0x8, addend: 0x0, symName: __ZNSt3__128__exception_guard_exceptionsINS_29_AllocatorDestroyRangeReverseINS_9allocatorI6EntityEENS_16reverse_iteratorIPS3_EEEEED2B8ue170006Ev, symObjAddr: 0x4174, symBinAddr: 0x10000701C, symSize: 0x50 }
  - { offset: 0x244FB, size: 0x8, addend: 0x0, symName: __ZNKSt3__129_AllocatorDestroyRangeReverseINS_9allocatorI6EntityEENS_16reverse_iteratorIPS2_EEEclB8ue170006Ev, symObjAddr: 0x41C4, symBinAddr: 0x10000706C, symSize: 0xB4 }
  - { offset: 0x24522, size: 0x8, addend: 0x0, symName: __ZNSt3__116reverse_iteratorINS0_IP6EntityEEEC1B8ue170006ES3_, symObjAddr: 0x42E8, symBinAddr: 0x100007190, symSize: 0x3C }
  - { offset: 0x2455A, size: 0x8, addend: 0x0, symName: __ZNSt3__116allocator_traitsINS_9allocatorI6EntityEEE7destroyB8ue170006IS2_vEEvRS3_PT_, symObjAddr: 0x4384, symBinAddr: 0x10000722C, symSize: 0x2C }
  - { offset: 0x24597, size: 0x8, addend: 0x0, symName: __ZNSt3__116reverse_iteratorINS0_IP6EntityEEEppB8ue170006Ev, symObjAddr: 0x43D4, symBinAddr: 0x10000727C, symSize: 0x30 }
  - { offset: 0x245BD, size: 0x8, addend: 0x0, symName: __ZNKSt3__116reverse_iteratorINS0_IP6EntityEEE4baseB8ue170006Ev, symObjAddr: 0x4404, symBinAddr: 0x1000072AC, symSize: 0x24 }
  - { offset: 0x245E3, size: 0x8, addend: 0x0, symName: __ZNSt3__19allocatorI6EntityE7destroyB8ue170006EPS1_, symObjAddr: 0x4428, symBinAddr: 0x1000072D0, symSize: 0x30 }
  - { offset: 0x2461D, size: 0x8, addend: 0x0, symName: __ZNSt3__119__to_address_helperINS_16reverse_iteratorINS1_IP6EntityEEEEvE6__callB8ue170006ERKS5_, symObjAddr: 0x4458, symBinAddr: 0x100007300, symSize: 0x38 }
  - { offset: 0x24640, size: 0x8, addend: 0x0, symName: __ZNKSt3__116reverse_iteratorINS0_IP6EntityEEEptB8ue170006Ev, symObjAddr: 0x4490, symBinAddr: 0x100007338, symSize: 0x24 }
  - { offset: 0x24666, size: 0x8, addend: 0x0, symName: __ZNKSt3__116reverse_iteratorINS0_IP6EntityEEEdeB8ue170006Ev, symObjAddr: 0x44B4, symBinAddr: 0x10000735C, symSize: 0x34 }
  - { offset: 0x2469A, size: 0x8, addend: 0x0, symName: __ZNSt3__116reverse_iteratorIP6EntityEmmB8ue170006Ev, symObjAddr: 0x44E8, symBinAddr: 0x100007390, symSize: 0x20 }
  - { offset: 0x246C0, size: 0x8, addend: 0x0, symName: __ZNSt3__116reverse_iteratorINS0_IP6EntityEEEC2B8ue170006ES3_, symObjAddr: 0x4508, symBinAddr: 0x1000073B0, symSize: 0x2C }
  - { offset: 0x246F8, size: 0x8, addend: 0x0, symName: __ZNSt3__116reverse_iteratorIP6EntityEC2B8ue170006ES2_, symObjAddr: 0x4534, symBinAddr: 0x1000073DC, symSize: 0x28 }
  - { offset: 0x24730, size: 0x8, addend: 0x0, symName: __ZNSt3__114__split_bufferI6EntityRNS_9allocatorIS1_EEED2Ev, symObjAddr: 0x455C, symBinAddr: 0x100007404, symSize: 0x8C }
  - { offset: 0x2475C, size: 0x8, addend: 0x0, symName: __ZNSt3__114__split_bufferI6EntityRNS_9allocatorIS1_EEE5clearB8ue170006Ev, symObjAddr: 0x45E8, symBinAddr: 0x100007490, symSize: 0x28 }
  - { offset: 0x24782, size: 0x8, addend: 0x0, symName: __ZNSt3__116allocator_traitsINS_9allocatorI6EntityEEE10deallocateB8ue170006ERS3_PS2_m, symObjAddr: 0x4610, symBinAddr: 0x1000074B8, symSize: 0x34 }
  - { offset: 0x247C4, size: 0x8, addend: 0x0, symName: __ZNKSt3__114__split_bufferI6EntityRNS_9allocatorIS1_EEE8capacityB8ue170006Ev, symObjAddr: 0x4644, symBinAddr: 0x1000074EC, symSize: 0x40 }
  - { offset: 0x247EA, size: 0x8, addend: 0x0, symName: __ZNSt3__114__split_bufferI6EntityRNS_9allocatorIS1_EEE17__destruct_at_endB8ue170006EPS1_, symObjAddr: 0x4684, symBinAddr: 0x10000752C, symSize: 0x2C }
  - { offset: 0x2481E, size: 0x8, addend: 0x0, symName: __ZNSt3__114__split_bufferI6EntityRNS_9allocatorIS1_EEE17__destruct_at_endB8ue170006EPS1_NS_17integral_constantIbLb0EEE, symObjAddr: 0x46B0, symBinAddr: 0x100007558, symSize: 0x80 }
  - { offset: 0x2485E, size: 0x8, addend: 0x0, symName: __ZNSt3__19allocatorI6EntityE10deallocateB8ue170006EPS1_m, symObjAddr: 0x4730, symBinAddr: 0x1000075D8, symSize: 0x44 }
  - { offset: 0x248A0, size: 0x8, addend: 0x0, symName: __ZNKSt3__114__split_bufferI6EntityRNS_9allocatorIS1_EEE9__end_capB8ue170006Ev, symObjAddr: 0x487C, symBinAddr: 0x100007724, symSize: 0x28 }
  - { offset: 0x248C6, size: 0x8, addend: 0x0, symName: __ZNKSt3__117__compressed_pairIP6EntityRNS_9allocatorIS1_EEE5firstB8ue170006Ev, symObjAddr: 0x48A4, symBinAddr: 0x10000774C, symSize: 0x24 }
  - { offset: 0x248EC, size: 0x8, addend: 0x0, symName: __ZNSt3__16vectorI7MonsterNS_9allocatorIS1_EEE11__make_iterB8ue170006EPS1_, symObjAddr: 0x48C8, symBinAddr: 0x100007770, symSize: 0x30 }
  - { offset: 0x24921, size: 0x8, addend: 0x0, symName: __ZNSt3__111__wrap_iterIP7MonsterEC1B8ue170006ES2_, symObjAddr: 0x48F8, symBinAddr: 0x1000077A0, symSize: 0x34 }
  - { offset: 0x24959, size: 0x8, addend: 0x0, symName: __ZNSt3__111__wrap_iterIP7MonsterEC2B8ue170006ES2_, symObjAddr: 0x492C, symBinAddr: 0x1000077D4, symSize: 0x20 }
  - { offset: 0x24991, size: 0x8, addend: 0x0, symName: __ZNSt3__118__unwrap_iter_implINS_11__wrap_iterIP7MonsterEELb1EE8__rewrapB8ue170006ES4_S3_, symObjAddr: 0x4A40, symBinAddr: 0x1000078E8, symSize: 0x5C }
  - { offset: 0x249C2, size: 0x8, addend: 0x0, symName: __ZNKSt3__111__wrap_iterIP7MonsterEplB8ue170006El, symObjAddr: 0x4A9C, symBinAddr: 0x100007944, symSize: 0x3C }
  - { offset: 0x24A04, size: 0x8, addend: 0x0, symName: __ZNSt3__111__wrap_iterIP7MonsterEpLB8ue170006El, symObjAddr: 0x4AFC, symBinAddr: 0x1000079A4, symSize: 0x30 }
  - { offset: 0x24A3D, size: 0x8, addend: 0x0, symName: __ZNSt3__119__to_address_helperINS_11__wrap_iterIP7MonsterEEvE6__callB8ue170006ERKS4_, symObjAddr: 0x4B2C, symBinAddr: 0x1000079D4, symSize: 0x30 }
  - { offset: 0x24A60, size: 0x8, addend: 0x0, symName: __ZNSt3__114pointer_traitsINS_11__wrap_iterIP7MonsterEEE10to_addressB8ue170006ES4_, symObjAddr: 0x4B5C, symBinAddr: 0x100007A04, symSize: 0x2C }
  - { offset: 0x24A83, size: 0x8, addend: 0x0, symName: __ZNK6EntityeqERKS_, symObjAddr: 0x4BC8, symBinAddr: 0x100007A70, symSize: 0x58 }
  - { offset: 0x24AC1, size: 0x8, addend: 0x0, symName: __ZNKSt3__110__identityclB8ue170006IR7MonsterEEOT_S5_, symObjAddr: 0x4C20, symBinAddr: 0x100007AC8, symSize: 0x18 }
  - { offset: 0x24AFE, size: 0x8, addend: 0x0, symName: __ZNSt3__118__unwrap_iter_implINS_11__wrap_iterIP7MonsterEELb1EE8__unwrapB8ue170006ES4_, symObjAddr: 0x4C9C, symBinAddr: 0x100007B44, symSize: 0x28 }
  - { offset: 0x24B21, size: 0x8, addend: 0x0, symName: __ZNSt3__16vectorIP7MonsterNS_9allocatorIS2_EEE9__end_capB8ue170006Ev, symObjAddr: 0x4CC4, symBinAddr: 0x100007B6C, symSize: 0x28 }
  - { offset: 0x24B4D, size: 0x8, addend: 0x0, symName: __ZNSt3__16vectorIP7MonsterNS_9allocatorIS2_EEE22__construct_one_at_endB8ue170006IJS2_EEEvDpOT_, symObjAddr: 0x4CEC, symBinAddr: 0x100007B94, symSize: 0x90 }
  - { offset: 0x24B9C, size: 0x8, addend: 0x0, symName: __ZNSt3__16vectorIP7MonsterNS_9allocatorIS2_EEE21__push_back_slow_pathIS2_EEvOT_, symObjAddr: 0x4D7C, symBinAddr: 0x100007C24, symSize: 0xD8 }
  - { offset: 0x24BFA, size: 0x8, addend: 0x0, symName: __ZNSt3__117__compressed_pairIPP7MonsterNS_9allocatorIS2_EEE5firstB8ue170006Ev, symObjAddr: 0x4E54, symBinAddr: 0x100007CFC, symSize: 0x24 }
  - { offset: 0x24C20, size: 0x8, addend: 0x0, symName: __ZNSt3__122__compressed_pair_elemIPP7MonsterLi0ELb0EE5__getB8ue170006Ev, symObjAddr: 0x4E78, symBinAddr: 0x100007D20, symSize: 0x14 }
  - { offset: 0x24C61, size: 0x8, addend: 0x0, symName: __ZNSt3__16vectorIP7MonsterNS_9allocatorIS2_EEE21_ConstructTransactionC1B8ue170006ERS5_m, symObjAddr: 0x4E8C, symBinAddr: 0x100007D34, symSize: 0x3C }
  - { offset: 0x24CA9, size: 0x8, addend: 0x0, symName: __ZNSt3__116allocator_traitsINS_9allocatorIP7MonsterEEE9constructB8ue170006IS3_JS3_EvEEvRS4_PT_DpOT0_, symObjAddr: 0x4EC8, symBinAddr: 0x100007D70, symSize: 0x34 }
  - { offset: 0x24D00, size: 0x8, addend: 0x0, symName: __ZNSt3__16vectorIP7MonsterNS_9allocatorIS2_EEE7__allocB8ue170006Ev, symObjAddr: 0x4EFC, symBinAddr: 0x100007DA4, symSize: 0x28 }
  - { offset: 0x24D26, size: 0x8, addend: 0x0, symName: __ZNSt3__16vectorIP7MonsterNS_9allocatorIS2_EEE21_ConstructTransactionD1B8ue170006Ev, symObjAddr: 0x4F38, symBinAddr: 0x100007DE0, symSize: 0x2C }
  - { offset: 0x24D50, size: 0x8, addend: 0x0, symName: __ZNSt3__16vectorIP7MonsterNS_9allocatorIS2_EEE21_ConstructTransactionC2B8ue170006ERS5_m, symObjAddr: 0x4F64, symBinAddr: 0x100007E0C, symSize: 0x44 }
  - { offset: 0x24D98, size: 0x8, addend: 0x0, symName: __ZNSt3__19allocatorIP7MonsterE9constructB8ue170006IS2_JS2_EEEvPT_DpOT0_, symObjAddr: 0x4FA8, symBinAddr: 0x100007E50, symSize: 0x28 }
  - { offset: 0x24DEE, size: 0x8, addend: 0x0, symName: __ZNSt3__117__compressed_pairIPP7MonsterNS_9allocatorIS2_EEE6secondB8ue170006Ev, symObjAddr: 0x4FD0, symBinAddr: 0x100007E78, symSize: 0x24 }
  - { offset: 0x24E14, size: 0x8, addend: 0x0, symName: __ZNSt3__122__compressed_pair_elemINS_9allocatorIP7MonsterEELi1ELb1EE5__getB8ue170006Ev, symObjAddr: 0x4FF4, symBinAddr: 0x100007E9C, symSize: 0x14 }
  - { offset: 0x24E3A, size: 0x8, addend: 0x0, symName: __ZNSt3__16vectorIP7MonsterNS_9allocatorIS2_EEE21_ConstructTransactionD2B8ue170006Ev, symObjAddr: 0x5008, symBinAddr: 0x100007EB0, symSize: 0x20 }
  - { offset: 0x24E64, size: 0x8, addend: 0x0, symName: __ZNKSt3__16vectorIP7MonsterNS_9allocatorIS2_EEE11__recommendB8ue170006Em, symObjAddr: 0x5028, symBinAddr: 0x100007ED0, symSize: 0xB4 }
  - { offset: 0x24EB9, size: 0x8, addend: 0x0, symName: __ZNKSt3__16vectorIP7MonsterNS_9allocatorIS2_EEE4sizeB8ue170006Ev, symObjAddr: 0x50DC, symBinAddr: 0x100007F84, symSize: 0x28 }
  - { offset: 0x24EDF, size: 0x8, addend: 0x0, symName: __ZNSt3__114__split_bufferIP7MonsterRNS_9allocatorIS2_EEEC1EmmS5_, symObjAddr: 0x5104, symBinAddr: 0x100007FAC, symSize: 0x44 }
  - { offset: 0x24F35, size: 0x8, addend: 0x0, symName: __ZNSt3__114__split_bufferIP7MonsterRNS_9allocatorIS2_EEED1Ev, symObjAddr: 0x5258, symBinAddr: 0x100008100, symSize: 0x2C }
  - { offset: 0x24F61, size: 0x8, addend: 0x0, symName: __ZNKSt3__16vectorIP7MonsterNS_9allocatorIS2_EEE8max_sizeEv, symObjAddr: 0x5284, symBinAddr: 0x10000812C, symSize: 0x60 }
  - { offset: 0x24F89, size: 0x8, addend: 0x0, symName: __ZNKSt3__16vectorIP7MonsterNS_9allocatorIS2_EEE20__throw_length_errorB8ue170006Ev, symObjAddr: 0x52E4, symBinAddr: 0x10000818C, symSize: 0x1C }
  - { offset: 0x24FAF, size: 0x8, addend: 0x0, symName: __ZNKSt3__16vectorIP7MonsterNS_9allocatorIS2_EEE8capacityB8ue170006Ev, symObjAddr: 0x5300, symBinAddr: 0x1000081A8, symSize: 0x40 }
  - { offset: 0x24FE0, size: 0x8, addend: 0x0, symName: __ZNSt3__116allocator_traitsINS_9allocatorIP7MonsterEEE8max_sizeB8ue170006IS4_vEEmRKS4_, symObjAddr: 0x5340, symBinAddr: 0x1000081E8, symSize: 0x24 }
  - { offset: 0x2500E, size: 0x8, addend: 0x0, symName: __ZNKSt3__16vectorIP7MonsterNS_9allocatorIS2_EEE7__allocB8ue170006Ev, symObjAddr: 0x5364, symBinAddr: 0x10000820C, symSize: 0x28 }
  - { offset: 0x25034, size: 0x8, addend: 0x0, symName: __ZNKSt3__19allocatorIP7MonsterE8max_sizeB8ue170006Ev, symObjAddr: 0x538C, symBinAddr: 0x100008234, symSize: 0x14 }
  - { offset: 0x2505A, size: 0x8, addend: 0x0, symName: __ZNKSt3__117__compressed_pairIPP7MonsterNS_9allocatorIS2_EEE6secondB8ue170006Ev, symObjAddr: 0x53A0, symBinAddr: 0x100008248, symSize: 0x24 }
  - { offset: 0x25080, size: 0x8, addend: 0x0, symName: __ZNKSt3__122__compressed_pair_elemINS_9allocatorIP7MonsterEELi1ELb1EE5__getB8ue170006Ev, symObjAddr: 0x53C4, symBinAddr: 0x10000826C, symSize: 0x14 }
  - { offset: 0x250A6, size: 0x8, addend: 0x0, symName: __ZNKSt3__16vectorIP7MonsterNS_9allocatorIS2_EEE9__end_capB8ue170006Ev, symObjAddr: 0x53D8, symBinAddr: 0x100008280, symSize: 0x28 }
  - { offset: 0x250CC, size: 0x8, addend: 0x0, symName: __ZNKSt3__117__compressed_pairIPP7MonsterNS_9allocatorIS2_EEE5firstB8ue170006Ev, symObjAddr: 0x5400, symBinAddr: 0x1000082A8, symSize: 0x24 }
  - { offset: 0x250F2, size: 0x8, addend: 0x0, symName: __ZNKSt3__122__compressed_pair_elemIPP7MonsterLi0ELb0EE5__getB8ue170006Ev, symObjAddr: 0x5424, symBinAddr: 0x1000082CC, symSize: 0x14 }
  - { offset: 0x25118, size: 0x8, addend: 0x0, symName: __ZNSt3__114__split_bufferIP7MonsterRNS_9allocatorIS2_EEEC2EmmS5_, symObjAddr: 0x5438, symBinAddr: 0x1000082E0, symSize: 0xD4 }
  - { offset: 0x2518B, size: 0x8, addend: 0x0, symName: __ZNSt3__117__compressed_pairIPP7MonsterRNS_9allocatorIS2_EEEC1B8ue170006IDnS6_EEOT_OT0_, symObjAddr: 0x550C, symBinAddr: 0x1000083B4, symSize: 0x3C }
  - { offset: 0x251E3, size: 0x8, addend: 0x0, symName: __ZNSt3__114__split_bufferIP7MonsterRNS_9allocatorIS2_EEE7__allocB8ue170006Ev, symObjAddr: 0x5588, symBinAddr: 0x100008430, symSize: 0x28 }
  - { offset: 0x25209, size: 0x8, addend: 0x0, symName: __ZNSt3__114__split_bufferIP7MonsterRNS_9allocatorIS2_EEE9__end_capB8ue170006Ev, symObjAddr: 0x55B0, symBinAddr: 0x100008458, symSize: 0x28 }
  - { offset: 0x2522F, size: 0x8, addend: 0x0, symName: __ZNSt3__117__compressed_pairIPP7MonsterRNS_9allocatorIS2_EEEC2B8ue170006IDnS6_EEOT_OT0_, symObjAddr: 0x55D8, symBinAddr: 0x100008480, symSize: 0x48 }
  - { offset: 0x25287, size: 0x8, addend: 0x0, symName: __ZNSt3__122__compressed_pair_elemIPP7MonsterLi0ELb0EEC2B8ue170006IDnvEEOT_, symObjAddr: 0x5620, symBinAddr: 0x1000084C8, symSize: 0x1C }
  - { offset: 0x252C9, size: 0x8, addend: 0x0, symName: __ZNSt3__122__compressed_pair_elemIRNS_9allocatorIP7MonsterEELi1ELb0EEC2B8ue170006IS5_vEEOT_, symObjAddr: 0x563C, symBinAddr: 0x1000084E4, symSize: 0x20 }
  - { offset: 0x2530B, size: 0x8, addend: 0x0, symName: __ZNSt3__19allocatorIP7MonsterE8allocateB8ue170006Em, symObjAddr: 0x565C, symBinAddr: 0x100008504, symSize: 0x58 }
  - { offset: 0x2533F, size: 0x8, addend: 0x0, symName: __ZNSt3__117__compressed_pairIPP7MonsterRNS_9allocatorIS2_EEE6secondB8ue170006Ev, symObjAddr: 0x56B4, symBinAddr: 0x10000855C, symSize: 0x28 }
  - { offset: 0x25365, size: 0x8, addend: 0x0, symName: __ZNSt3__122__compressed_pair_elemIRNS_9allocatorIP7MonsterEELi1ELb0EE5__getB8ue170006Ev, symObjAddr: 0x56DC, symBinAddr: 0x100008584, symSize: 0x18 }
  - { offset: 0x2538B, size: 0x8, addend: 0x0, symName: __ZNSt3__117__compressed_pairIPP7MonsterRNS_9allocatorIS2_EEE5firstB8ue170006Ev, symObjAddr: 0x56F4, symBinAddr: 0x10000859C, symSize: 0x24 }
  - { offset: 0x253B1, size: 0x8, addend: 0x0, symName: __ZNKSt3__16vectorIP7MonsterNS_9allocatorIS2_EEE17__annotate_deleteB8ue170006Ev, symObjAddr: 0x5718, symBinAddr: 0x1000085C0, symSize: 0xB8 }
  - { offset: 0x253D7, size: 0x8, addend: 0x0, symName: __ZNSt3__116reverse_iteratorIPP7MonsterEC1B8ue170006ES3_, symObjAddr: 0x5848, symBinAddr: 0x1000086F0, symSize: 0x34 }
  - { offset: 0x2540F, size: 0x8, addend: 0x0, symName: __ZNKSt3__116reverse_iteratorIPP7MonsterE4baseB8ue170006Ev, symObjAddr: 0x587C, symBinAddr: 0x100008724, symSize: 0x18 }
  - { offset: 0x25435, size: 0x8, addend: 0x0, symName: __ZNKSt3__16vectorIP7MonsterNS_9allocatorIS2_EEE14__annotate_newB8ue170006Em, symObjAddr: 0x58D0, symBinAddr: 0x100008778, symSize: 0xAC }
  - { offset: 0x2546A, size: 0x8, addend: 0x0, symName: __ZNKSt3__16vectorIP7MonsterNS_9allocatorIS2_EEE31__annotate_contiguous_containerB8ue170006EPKvS7_S7_S7_, symObjAddr: 0x597C, symBinAddr: 0x100008824, symSize: 0x20 }
  - { offset: 0x254BC, size: 0x8, addend: 0x0, symName: __ZNKSt3__16vectorIP7MonsterNS_9allocatorIS2_EEE4dataB8ue170006Ev, symObjAddr: 0x599C, symBinAddr: 0x100008844, symSize: 0x28 }
  - { offset: 0x25508, size: 0x8, addend: 0x0, symName: __ZNKSt3__111__move_loopINS_17_ClassicAlgPolicyEEclB8ue170006INS_16reverse_iteratorIPP7MonsterEES8_S8_EENS_4pairIT_T1_EESA_T0_SB_, symObjAddr: 0x5CB4, symBinAddr: 0x100008B5C, symSize: 0xA0 }
  - { offset: 0x25573, size: 0x8, addend: 0x0, symName: __ZNSt3__18_IterOpsINS_17_ClassicAlgPolicyEE11__iter_moveB8ue170006IRNS_16reverse_iteratorIPP7MonsterEEEENS_9enable_ifIXsr12is_referenceIDTdeclsr3stdE7declvalIRT_EEEEE5valueEDTclsr3stdE4movedeclsr3stdE7declvalISC_EEEEE4typeEOSB_, symObjAddr: 0x5EE8, symBinAddr: 0x100008D90, symSize: 0x28 }
  - { offset: 0x2559F, size: 0x8, addend: 0x0, symName: __ZNKSt3__116reverse_iteratorIPP7MonsterEdeB8ue170006Ev, symObjAddr: 0x5F10, symBinAddr: 0x100008DB8, symSize: 0x28 }
  - { offset: 0x255D3, size: 0x8, addend: 0x0, symName: __ZNSt3__116reverse_iteratorIPP7MonsterEppB8ue170006Ev, symObjAddr: 0x5F38, symBinAddr: 0x100008DE0, symSize: 0x20 }
  - { offset: 0x255F9, size: 0x8, addend: 0x0, symName: __ZNSt3__18_IterOpsINS_17_ClassicAlgPolicyEE25__validate_iter_referenceB8ue170006IRNS_16reverse_iteratorIPP7MonsterEEEEvv, symObjAddr: 0x5F58, symBinAddr: 0x100008E00, symSize: 0x4 }
  - { offset: 0x25617, size: 0x8, addend: 0x0, symName: __ZNSt3__118__unwrap_iter_implINS_16reverse_iteratorIPP7MonsterEELb0EE8__unwrapB8ue170006ES5_, symObjAddr: 0x5F5C, symBinAddr: 0x100008E04, symSize: 0x24 }
  - { offset: 0x25640, size: 0x8, addend: 0x0, symName: __ZNSt3__14pairINS_16reverse_iteratorIPP7MonsterEES5_EC1B8ue170006IS5_S5_LPv0EEEOT_OT0_, symObjAddr: 0x5F80, symBinAddr: 0x100008E28, symSize: 0x3C }
  - { offset: 0x2569E, size: 0x8, addend: 0x0, symName: __ZNSt3__14pairINS_16reverse_iteratorIPP7MonsterEES5_EC2B8ue170006IS5_S5_LPv0EEEOT_OT0_, symObjAddr: 0x5FBC, symBinAddr: 0x100008E64, symSize: 0x34 }
  - { offset: 0x256FC, size: 0x8, addend: 0x0, symName: __ZNSt3__118__unwrap_iter_implINS_16reverse_iteratorIPP7MonsterEELb0EE8__rewrapB8ue170006ES5_S5_, symObjAddr: 0x5FF0, symBinAddr: 0x100008E98, symSize: 0x2C }
  - { offset: 0x25729, size: 0x8, addend: 0x0, symName: __ZNSt3__116reverse_iteratorIPP7MonsterEC2B8ue170006ES3_, symObjAddr: 0x601C, symBinAddr: 0x100008EC4, symSize: 0x28 }
  - { offset: 0x25761, size: 0x8, addend: 0x0, symName: __ZNSt3__114__split_bufferIP7MonsterRNS_9allocatorIS2_EEED2Ev, symObjAddr: 0x6044, symBinAddr: 0x100008EEC, symSize: 0x8C }
  - { offset: 0x2578D, size: 0x8, addend: 0x0, symName: __ZNSt3__114__split_bufferIP7MonsterRNS_9allocatorIS2_EEE5clearB8ue170006Ev, symObjAddr: 0x60D0, symBinAddr: 0x100008F78, symSize: 0x28 }
  - { offset: 0x257B3, size: 0x8, addend: 0x0, symName: __ZNSt3__116allocator_traitsINS_9allocatorIP7MonsterEEE10deallocateB8ue170006ERS4_PS3_m, symObjAddr: 0x60F8, symBinAddr: 0x100008FA0, symSize: 0x34 }
  - { offset: 0x257F5, size: 0x8, addend: 0x0, symName: __ZNKSt3__114__split_bufferIP7MonsterRNS_9allocatorIS2_EEE8capacityB8ue170006Ev, symObjAddr: 0x612C, symBinAddr: 0x100008FD4, symSize: 0x40 }
  - { offset: 0x2581B, size: 0x8, addend: 0x0, symName: __ZNSt3__114__split_bufferIP7MonsterRNS_9allocatorIS2_EEE17__destruct_at_endB8ue170006EPS2_, symObjAddr: 0x616C, symBinAddr: 0x100009014, symSize: 0x2C }
  - { offset: 0x2584F, size: 0x8, addend: 0x0, symName: __ZNSt3__114__split_bufferIP7MonsterRNS_9allocatorIS2_EEE17__destruct_at_endB8ue170006EPS2_NS_17integral_constantIbLb0EEE, symObjAddr: 0x6198, symBinAddr: 0x100009040, symSize: 0x80 }
  - { offset: 0x2588F, size: 0x8, addend: 0x0, symName: __ZNSt3__116allocator_traitsINS_9allocatorIP7MonsterEEE7destroyB8ue170006IS3_vEEvRS4_PT_, symObjAddr: 0x6218, symBinAddr: 0x1000090C0, symSize: 0x2C }
  - { offset: 0x258CC, size: 0x8, addend: 0x0, symName: __ZNSt3__19allocatorIP7MonsterE7destroyB8ue170006EPS2_, symObjAddr: 0x6244, symBinAddr: 0x1000090EC, symSize: 0x14 }
  - { offset: 0x25900, size: 0x8, addend: 0x0, symName: __ZNSt3__19allocatorIP7MonsterE10deallocateB8ue170006EPS2_m, symObjAddr: 0x6258, symBinAddr: 0x100009100, symSize: 0x40 }
  - { offset: 0x25942, size: 0x8, addend: 0x0, symName: __ZNKSt3__114__split_bufferIP7MonsterRNS_9allocatorIS2_EEE9__end_capB8ue170006Ev, symObjAddr: 0x6298, symBinAddr: 0x100009140, symSize: 0x28 }
  - { offset: 0x25968, size: 0x8, addend: 0x0, symName: __ZNKSt3__117__compressed_pairIPP7MonsterRNS_9allocatorIS2_EEE5firstB8ue170006Ev, symObjAddr: 0x62C0, symBinAddr: 0x100009168, symSize: 0x24 }
  - { offset: 0x2598E, size: 0x8, addend: 0x0, symName: __ZNKSt3__16vectorI7MonsterNS_9allocatorIS1_EEE6cbeginB8ue170006Ev, symObjAddr: 0x632C, symBinAddr: 0x1000091D4, symSize: 0x2C }
  - { offset: 0x259B4, size: 0x8, addend: 0x0, symName: __ZNSt3__16vectorI7MonsterNS_9allocatorIS1_EEE17__destruct_at_endB8ue170006EPS1_, symObjAddr: 0x6358, symBinAddr: 0x100009200, symSize: 0x4C }
  - { offset: 0x259F8, size: 0x8, addend: 0x0, symName: __ZNKSt3__111__wrap_iterIPK7MonsterE4baseB8ue170006Ev, symObjAddr: 0x63E4, symBinAddr: 0x10000928C, symSize: 0x18 }
  - { offset: 0x25A1E, size: 0x8, addend: 0x0, symName: __ZNKSt3__16vectorI7MonsterNS_9allocatorIS1_EEE5beginB8ue170006Ev, symObjAddr: 0x63FC, symBinAddr: 0x1000092A4, symSize: 0x30 }
  - { offset: 0x25A46, size: 0x8, addend: 0x0, symName: __ZNKSt3__16vectorI7MonsterNS_9allocatorIS1_EEE11__make_iterB8ue170006EPKS1_, symObjAddr: 0x642C, symBinAddr: 0x1000092D4, symSize: 0x30 }
  - { offset: 0x25A7B, size: 0x8, addend: 0x0, symName: __ZNSt3__111__wrap_iterIPK7MonsterEC1B8ue170006ES3_, symObjAddr: 0x645C, symBinAddr: 0x100009304, symSize: 0x34 }
  - { offset: 0x25AB3, size: 0x8, addend: 0x0, symName: __ZNSt3__111__wrap_iterIPK7MonsterEC2B8ue170006ES3_, symObjAddr: 0x6490, symBinAddr: 0x100009338, symSize: 0x20 }
  - { offset: 0x25AEB, size: 0x8, addend: 0x0, symName: __ZNSt3__16vectorI7MonsterNS_9allocatorIS1_EEE22__base_destruct_at_endB8ue170006EPS1_, symObjAddr: 0x64B0, symBinAddr: 0x100009358, symSize: 0x8C }
  - { offset: 0x25B2F, size: 0x8, addend: 0x0, symName: __ZNKSt3__16vectorI7MonsterNS_9allocatorIS1_EEE17__annotate_shrinkB8ue170006Em, symObjAddr: 0x653C, symBinAddr: 0x1000093E4, symSize: 0xD0 }
  - { offset: 0x25B64, size: 0x8, addend: 0x0, symName: __ZNSt3__116allocator_traitsINS_9allocatorI7MonsterEEE7destroyB8ue170006IS2_vEEvRS3_PT_, symObjAddr: 0x660C, symBinAddr: 0x1000094B4, symSize: 0x2C }
  - { offset: 0x25BA1, size: 0x8, addend: 0x0, symName: __ZNSt3__16vectorI7MonsterNS_9allocatorIS1_EEE7__allocB8ue170006Ev, symObjAddr: 0x6638, symBinAddr: 0x1000094E0, symSize: 0x28 }
  - { offset: 0x25BC7, size: 0x8, addend: 0x0, symName: __ZNSt3__19allocatorI7MonsterE7destroyB8ue170006EPS1_, symObjAddr: 0x6660, symBinAddr: 0x100009508, symSize: 0x30 }
  - { offset: 0x25BFB, size: 0x8, addend: 0x0, symName: __ZNSt3__117__compressed_pairIP7MonsterNS_9allocatorIS1_EEE6secondB8ue170006Ev, symObjAddr: 0x6690, symBinAddr: 0x100009538, symSize: 0x24 }
  - { offset: 0x25C21, size: 0x8, addend: 0x0, symName: __ZNSt3__122__compressed_pair_elemINS_9allocatorI7MonsterEELi1ELb1EE5__getB8ue170006Ev, symObjAddr: 0x66B4, symBinAddr: 0x10000955C, symSize: 0x14 }
  - { offset: 0x25C47, size: 0x8, addend: 0x0, symName: __ZNKSt3__16vectorI7MonsterNS_9allocatorIS1_EEE31__annotate_contiguous_containerB8ue170006EPKvS6_S6_S6_, symObjAddr: 0x66C8, symBinAddr: 0x100009570, symSize: 0x20 }
  - { offset: 0x25C99, size: 0x8, addend: 0x0, symName: __ZNKSt3__16vectorI7MonsterNS_9allocatorIS1_EEE4dataB8ue170006Ev, symObjAddr: 0x66E8, symBinAddr: 0x100009590, symSize: 0x28 }
  - { offset: 0x25CBF, size: 0x8, addend: 0x0, symName: __ZNKSt3__16vectorI7MonsterNS_9allocatorIS1_EEE8capacityB8ue170006Ev, symObjAddr: 0x6710, symBinAddr: 0x1000095B8, symSize: 0x40 }
  - { offset: 0x25CE5, size: 0x8, addend: 0x0, symName: __ZNKSt3__16vectorI7MonsterNS_9allocatorIS1_EEE9__end_capB8ue170006Ev, symObjAddr: 0x6750, symBinAddr: 0x1000095F8, symSize: 0x28 }
  - { offset: 0x25D0B, size: 0x8, addend: 0x0, symName: __ZNKSt3__117__compressed_pairIP7MonsterNS_9allocatorIS1_EEE5firstB8ue170006Ev, symObjAddr: 0x6778, symBinAddr: 0x100009620, symSize: 0x24 }
  - { offset: 0x25D31, size: 0x8, addend: 0x0, symName: __ZNKSt3__122__compressed_pair_elemIP7MonsterLi0ELb0EE5__getB8ue170006Ev, symObjAddr: 0x679C, symBinAddr: 0x100009644, symSize: 0x14 }
  - { offset: 0x25D73, size: 0x8, addend: 0x0, symName: __ZNKSt3__111__move_loopINS_17_ClassicAlgPolicyEEclB8ue170006IP7MonsterS5_S5_EENS_4pairIT_T1_EES7_T0_S8_, symObjAddr: 0x694C, symBinAddr: 0x1000097F4, symSize: 0x90 }
  - { offset: 0x25DE4, size: 0x8, addend: 0x0, symName: __ZNSt3__18_IterOpsINS_17_ClassicAlgPolicyEE11__iter_moveB8ue170006IRP7MonsterEENS_9enable_ifIXsr12is_referenceIDTdeclsr3stdE7declvalIRT_EEEEE5valueEDTclsr3stdE4movedeclsr3stdE7declvalIS9_EEEEE4typeEOS8_, symObjAddr: 0x6AA0, symBinAddr: 0x100009948, symSize: 0x28 }
  - { offset: 0x25E10, size: 0x8, addend: 0x0, symName: __ZN7MonsteraSERKS_, symObjAddr: 0x6AC8, symBinAddr: 0x100009970, symSize: 0x88 }
  - { offset: 0x25E41, size: 0x8, addend: 0x0, symName: __ZNSt3__18_IterOpsINS_17_ClassicAlgPolicyEE25__validate_iter_referenceB8ue170006IRP7MonsterEEvv, symObjAddr: 0x6B50, symBinAddr: 0x1000099F8, symSize: 0x4 }
  - { offset: 0x25E5F, size: 0x8, addend: 0x0, symName: __ZN6EntityaSERKS_, symObjAddr: 0x6B54, symBinAddr: 0x1000099FC, symSize: 0x64 }
  - { offset: 0x25E96, size: 0x8, addend: 0x0, symName: __ZN12IGameSubjectaSERKS_, symObjAddr: 0x6BB8, symBinAddr: 0x100009A60, symSize: 0x18 }
  - { offset: 0x25EC7, size: 0x8, addend: 0x0, symName: __ZNSt3__16vectorIP13IGameObserverNS_9allocatorIS2_EEEaSB8ue170006ERKS5_, symObjAddr: 0x6BD0, symBinAddr: 0x100009A78, symSize: 0x68 }
  - { offset: 0x25F04, size: 0x8, addend: 0x0, symName: __ZN2sf14RectangleShapeaSERKS0_, symObjAddr: 0x6C38, symBinAddr: 0x100009AE0, symSize: 0x40 }
  - { offset: 0x25F3B, size: 0x8, addend: 0x0, symName: __ZN2sf8DrawableaSERKS0_, symObjAddr: 0x6C78, symBinAddr: 0x100009B20, symSize: 0x18 }
  - { offset: 0x25F6C, size: 0x8, addend: 0x0, symName: __ZN2sf6SpriteaSERKS0_, symObjAddr: 0x6C90, symBinAddr: 0x100009B38, symSize: 0x60 }
  - { offset: 0x25FA3, size: 0x8, addend: 0x0, symName: __ZN2sf13TransformableaSERKS0_, symObjAddr: 0x6CF0, symBinAddr: 0x100009B98, symSize: 0x94 }
  - { offset: 0x25FD4, size: 0x8, addend: 0x0, symName: __ZNSt3__16vectorIP13IGameObserverNS_9allocatorIS2_EEE19__copy_assign_allocB8ue170006ERKS5_, symObjAddr: 0x6D84, symBinAddr: 0x100009C2C, symSize: 0x2C }
  - { offset: 0x26009, size: 0x8, addend: 0x0, symName: __ZNSt3__16vectorIP13IGameObserverNS_9allocatorIS2_EEE6assignIPS2_Li0EEEvT_S8_, symObjAddr: 0x6DB0, symBinAddr: 0x100009C58, symSize: 0x5C }
  - { offset: 0x2605E, size: 0x8, addend: 0x0, symName: __ZNSt3__16vectorIP13IGameObserverNS_9allocatorIS2_EEE19__copy_assign_allocB8ue170006ERKS5_NS_17integral_constantIbLb0EEE, symObjAddr: 0x6E0C, symBinAddr: 0x100009CB4, symSize: 0x14 }
  - { offset: 0x2609A, size: 0x8, addend: 0x0, symName: __ZNSt3__16vectorIP13IGameObserverNS_9allocatorIS2_EEE18__assign_with_sizeB8ue170006IPS2_S7_EEvT_T0_l, symObjAddr: 0x6E20, symBinAddr: 0x100009CC8, symSize: 0x164 }
  - { offset: 0x2614A, size: 0x8, addend: 0x0, symName: __ZNKSt3__16vectorIP13IGameObserverNS_9allocatorIS2_EEE8capacityB8ue170006Ev, symObjAddr: 0x6FB0, symBinAddr: 0x100009E58, symSize: 0x40 }
  - { offset: 0x26170, size: 0x8, addend: 0x0, symName: __ZNKSt3__16vectorIP13IGameObserverNS_9allocatorIS2_EEE4sizeB8ue170006Ev, symObjAddr: 0x6FF0, symBinAddr: 0x100009E98, symSize: 0x28 }
  - { offset: 0x26196, size: 0x8, addend: 0x0, symName: __ZNSt3__16vectorIP13IGameObserverNS_9allocatorIS2_EEE18__construct_at_endIPS2_S7_EEvT_T0_m, symObjAddr: 0x708C, symBinAddr: 0x100009F34, symSize: 0x8C }
  - { offset: 0x2620C, size: 0x8, addend: 0x0, symName: __ZNSt3__16vectorIP13IGameObserverNS_9allocatorIS2_EEE17__destruct_at_endB8ue170006EPS2_, symObjAddr: 0x715C, symBinAddr: 0x10000A004, symSize: 0x4C }
  - { offset: 0x26250, size: 0x8, addend: 0x0, symName: __ZNSt3__16vectorIP13IGameObserverNS_9allocatorIS2_EEE13__vdeallocateEv, symObjAddr: 0x71A8, symBinAddr: 0x10000A050, symSize: 0x94 }
  - { offset: 0x26278, size: 0x8, addend: 0x0, symName: __ZNSt3__16vectorIP13IGameObserverNS_9allocatorIS2_EEE11__vallocateB8ue170006Em, symObjAddr: 0x723C, symBinAddr: 0x10000A0E4, symSize: 0xAC }
  - { offset: 0x262BC, size: 0x8, addend: 0x0, symName: __ZNKSt3__16vectorIP13IGameObserverNS_9allocatorIS2_EEE11__recommendB8ue170006Em, symObjAddr: 0x72E8, symBinAddr: 0x10000A190, symSize: 0xB4 }
  - { offset: 0x26311, size: 0x8, addend: 0x0, symName: __ZNKSt3__16vectorIP13IGameObserverNS_9allocatorIS2_EEE9__end_capB8ue170006Ev, symObjAddr: 0x739C, symBinAddr: 0x10000A244, symSize: 0x28 }
  - { offset: 0x26337, size: 0x8, addend: 0x0, symName: __ZNKSt3__117__compressed_pairIPP13IGameObserverNS_9allocatorIS2_EEE5firstB8ue170006Ev, symObjAddr: 0x73C4, symBinAddr: 0x10000A26C, symSize: 0x24 }
  - { offset: 0x2635D, size: 0x8, addend: 0x0, symName: __ZNKSt3__122__compressed_pair_elemIPP13IGameObserverLi0ELb0EE5__getB8ue170006Ev, symObjAddr: 0x73E8, symBinAddr: 0x10000A290, symSize: 0x14 }
  - { offset: 0x2639E, size: 0x8, addend: 0x0, symName: __ZNSt3__16vectorIP13IGameObserverNS_9allocatorIS2_EEE21_ConstructTransactionC1B8ue170006ERS5_m, symObjAddr: 0x7470, symBinAddr: 0x10000A318, symSize: 0x3C }
  - { offset: 0x263E6, size: 0x8, addend: 0x0, symName: __ZNSt3__16vectorIP13IGameObserverNS_9allocatorIS2_EEE7__allocB8ue170006Ev, symObjAddr: 0x752C, symBinAddr: 0x10000A3D4, symSize: 0x28 }
  - { offset: 0x2640C, size: 0x8, addend: 0x0, symName: __ZNSt3__16vectorIP13IGameObserverNS_9allocatorIS2_EEE21_ConstructTransactionD1B8ue170006Ev, symObjAddr: 0x7554, symBinAddr: 0x10000A3FC, symSize: 0x2C }
  - { offset: 0x26436, size: 0x8, addend: 0x0, symName: __ZNSt3__16vectorIP13IGameObserverNS_9allocatorIS2_EEE21_ConstructTransactionC2B8ue170006ERS5_m, symObjAddr: 0x7580, symBinAddr: 0x10000A428, symSize: 0x44 }
  - { offset: 0x264A0, size: 0x8, addend: 0x0, symName: __ZNSt3__14pairIPP13IGameObserverS3_EC1B8ue170006IS3_S3_LPv0EEEOT_OT0_, symObjAddr: 0x76F4, symBinAddr: 0x10000A59C, symSize: 0x3C }
  - { offset: 0x264FE, size: 0x8, addend: 0x0, symName: __ZNSt3__14pairIPP13IGameObserverS3_EC2B8ue170006IS3_S3_LPv0EEEOT_OT0_, symObjAddr: 0x7730, symBinAddr: 0x10000A5D8, symSize: 0x34 }
  - { offset: 0x2655C, size: 0x8, addend: 0x0, symName: __ZNSt3__118__unwrap_iter_implIPP13IGameObserverLb1EE8__unwrapB8ue170006ES3_, symObjAddr: 0x7764, symBinAddr: 0x10000A60C, symSize: 0x24 }
  - { offset: 0x2657F, size: 0x8, addend: 0x0, symName: __ZNSt3__118__unwrap_iter_implIPP13IGameObserverLb1EE8__rewrapB8ue170006ES3_S3_, symObjAddr: 0x779C, symBinAddr: 0x10000A644, symSize: 0x50 }
  - { offset: 0x265B0, size: 0x8, addend: 0x0, symName: __ZNSt3__117__compressed_pairIPP13IGameObserverNS_9allocatorIS2_EEE6secondB8ue170006Ev, symObjAddr: 0x77EC, symBinAddr: 0x10000A694, symSize: 0x24 }
  - { offset: 0x265D6, size: 0x8, addend: 0x0, symName: __ZNSt3__122__compressed_pair_elemINS_9allocatorIP13IGameObserverEELi1ELb1EE5__getB8ue170006Ev, symObjAddr: 0x7810, symBinAddr: 0x10000A6B8, symSize: 0x14 }
  - { offset: 0x265FC, size: 0x8, addend: 0x0, symName: __ZNSt3__16vectorIP13IGameObserverNS_9allocatorIS2_EEE21_ConstructTransactionD2B8ue170006Ev, symObjAddr: 0x7824, symBinAddr: 0x10000A6CC, symSize: 0x20 }
  - { offset: 0x26630, size: 0x8, addend: 0x0, symName: __ZNKSt3__114__copy_trivialclB8ue170006IP13IGameObserverS3_Li0EEENS_4pairIPT_PT0_EES6_S6_S8_, symObjAddr: 0x793C, symBinAddr: 0x10000A7E4, symSize: 0x48 }
  - { offset: 0x26698, size: 0x8, addend: 0x0, symName: __ZNSt3__14pairIPP13IGameObserverS3_EC1B8ue170006IRS3_S3_LPv0EEEOT_OT0_, symObjAddr: 0x7ACC, symBinAddr: 0x10000A974, symSize: 0x3C }
  - { offset: 0x266F6, size: 0x8, addend: 0x0, symName: __ZNSt3__14pairIPP13IGameObserverS3_EC2B8ue170006IRS3_S3_LPv0EEEOT_OT0_, symObjAddr: 0x7B08, symBinAddr: 0x10000A9B0, symSize: 0x34 }
  - { offset: 0x26754, size: 0x8, addend: 0x0, symName: __ZNSt3__16vectorIP13IGameObserverNS_9allocatorIS2_EEE22__base_destruct_at_endB8ue170006EPS2_, symObjAddr: 0x7B3C, symBinAddr: 0x10000A9E4, symSize: 0x8C }
  - { offset: 0x26798, size: 0x8, addend: 0x0, symName: __ZNKSt3__16vectorIP13IGameObserverNS_9allocatorIS2_EEE17__annotate_shrinkB8ue170006Em, symObjAddr: 0x7BC8, symBinAddr: 0x10000AA70, symSize: 0xB4 }
  - { offset: 0x267CD, size: 0x8, addend: 0x0, symName: __ZNSt3__116allocator_traitsINS_9allocatorIP13IGameObserverEEE7destroyB8ue170006IS3_vEEvRS4_PT_, symObjAddr: 0x7C7C, symBinAddr: 0x10000AB24, symSize: 0x2C }
  - { offset: 0x2680A, size: 0x8, addend: 0x0, symName: __ZNSt3__19allocatorIP13IGameObserverE7destroyB8ue170006EPS2_, symObjAddr: 0x7CA8, symBinAddr: 0x10000AB50, symSize: 0x14 }
  - { offset: 0x2683E, size: 0x8, addend: 0x0, symName: __ZNKSt3__16vectorIP13IGameObserverNS_9allocatorIS2_EEE31__annotate_contiguous_containerB8ue170006EPKvS7_S7_S7_, symObjAddr: 0x7CBC, symBinAddr: 0x10000AB64, symSize: 0x20 }
  - { offset: 0x26890, size: 0x8, addend: 0x0, symName: __ZNKSt3__16vectorIP13IGameObserverNS_9allocatorIS2_EEE4dataB8ue170006Ev, symObjAddr: 0x7CDC, symBinAddr: 0x10000AB84, symSize: 0x28 }
  - { offset: 0x268B6, size: 0x8, addend: 0x0, symName: __ZNSt3__16vectorIP13IGameObserverNS_9allocatorIS2_EEE5clearB8ue170006Ev, symObjAddr: 0x7D04, symBinAddr: 0x10000ABAC, symSize: 0x44 }
  - { offset: 0x268EB, size: 0x8, addend: 0x0, symName: __ZNKSt3__16vectorIP13IGameObserverNS_9allocatorIS2_EEE17__annotate_deleteB8ue170006Ev, symObjAddr: 0x7D48, symBinAddr: 0x10000ABF0, symSize: 0xB8 }
  - { offset: 0x26911, size: 0x8, addend: 0x0, symName: __ZNSt3__116allocator_traitsINS_9allocatorIP13IGameObserverEEE10deallocateB8ue170006ERS4_PS3_m, symObjAddr: 0x7E00, symBinAddr: 0x10000ACA8, symSize: 0x34 }
  - { offset: 0x26953, size: 0x8, addend: 0x0, symName: __ZNSt3__16vectorIP13IGameObserverNS_9allocatorIS2_EEE9__end_capB8ue170006Ev, symObjAddr: 0x7E34, symBinAddr: 0x10000ACDC, symSize: 0x28 }
  - { offset: 0x26979, size: 0x8, addend: 0x0, symName: __ZNSt3__16vectorIP13IGameObserverNS_9allocatorIS2_EEE7__clearB8ue170006Ev, symObjAddr: 0x7E5C, symBinAddr: 0x10000AD04, symSize: 0x28 }
  - { offset: 0x2699F, size: 0x8, addend: 0x0, symName: __ZNSt3__19allocatorIP13IGameObserverE10deallocateB8ue170006EPS2_m, symObjAddr: 0x7E84, symBinAddr: 0x10000AD2C, symSize: 0x40 }
  - { offset: 0x269E1, size: 0x8, addend: 0x0, symName: __ZNSt3__117__compressed_pairIPP13IGameObserverNS_9allocatorIS2_EEE5firstB8ue170006Ev, symObjAddr: 0x7EC4, symBinAddr: 0x10000AD6C, symSize: 0x24 }
  - { offset: 0x26A07, size: 0x8, addend: 0x0, symName: __ZNSt3__122__compressed_pair_elemIPP13IGameObserverLi0ELb0EE5__getB8ue170006Ev, symObjAddr: 0x7EE8, symBinAddr: 0x10000AD90, symSize: 0x14 }
  - { offset: 0x26A2D, size: 0x8, addend: 0x0, symName: __ZNKSt3__16vectorIP13IGameObserverNS_9allocatorIS2_EEE8max_sizeEv, symObjAddr: 0x7EFC, symBinAddr: 0x10000ADA4, symSize: 0x60 }
  - { offset: 0x26A55, size: 0x8, addend: 0x0, symName: __ZNKSt3__16vectorIP13IGameObserverNS_9allocatorIS2_EEE20__throw_length_errorB8ue170006Ev, symObjAddr: 0x7F5C, symBinAddr: 0x10000AE04, symSize: 0x1C }
  - { offset: 0x26A7B, size: 0x8, addend: 0x0, symName: __ZNKSt3__16vectorIP13IGameObserverNS_9allocatorIS2_EEE14__annotate_newB8ue170006Em, symObjAddr: 0x7FB8, symBinAddr: 0x10000AE60, symSize: 0xAC }
  - { offset: 0x26ABB, size: 0x8, addend: 0x0, symName: __ZNSt3__116allocator_traitsINS_9allocatorIP13IGameObserverEEE8max_sizeB8ue170006IS4_vEEmRKS4_, symObjAddr: 0x8064, symBinAddr: 0x10000AF0C, symSize: 0x24 }
  - { offset: 0x26AE9, size: 0x8, addend: 0x0, symName: __ZNKSt3__16vectorIP13IGameObserverNS_9allocatorIS2_EEE7__allocB8ue170006Ev, symObjAddr: 0x8088, symBinAddr: 0x10000AF30, symSize: 0x28 }
  - { offset: 0x26B0F, size: 0x8, addend: 0x0, symName: __ZNKSt3__19allocatorIP13IGameObserverE8max_sizeB8ue170006Ev, symObjAddr: 0x80B0, symBinAddr: 0x10000AF58, symSize: 0x14 }
  - { offset: 0x26B35, size: 0x8, addend: 0x0, symName: __ZNKSt3__117__compressed_pairIPP13IGameObserverNS_9allocatorIS2_EEE6secondB8ue170006Ev, symObjAddr: 0x80C4, symBinAddr: 0x10000AF6C, symSize: 0x24 }
  - { offset: 0x26B5B, size: 0x8, addend: 0x0, symName: __ZNKSt3__122__compressed_pair_elemINS_9allocatorIP13IGameObserverEELi1ELb1EE5__getB8ue170006Ev, symObjAddr: 0x80E8, symBinAddr: 0x10000AF90, symSize: 0x14 }
  - { offset: 0x26B81, size: 0x8, addend: 0x0, symName: __ZNSt3__19allocatorIP13IGameObserverE8allocateB8ue170006Em, symObjAddr: 0x80FC, symBinAddr: 0x10000AFA4, symSize: 0x58 }
  - { offset: 0x26BC1, size: 0x8, addend: 0x0, symName: __ZN2sf5ShapeaSERKS0_, symObjAddr: 0x817C, symBinAddr: 0x10000B024, symSize: 0x9C }
  - { offset: 0x26BFE, size: 0x8, addend: 0x0, symName: __ZN2sf11VertexArrayaSERKS0_, symObjAddr: 0x8218, symBinAddr: 0x10000B0C0, symSize: 0x54 }
  - { offset: 0x26C2F, size: 0x8, addend: 0x0, symName: __ZNSt3__16vectorIN2sf6VertexENS_9allocatorIS2_EEEaSB8ue170006ERKS5_, symObjAddr: 0x826C, symBinAddr: 0x10000B114, symSize: 0x68 }
  - { offset: 0x26C66, size: 0x8, addend: 0x0, symName: __ZNSt3__16vectorIN2sf6VertexENS_9allocatorIS2_EEE19__copy_assign_allocB8ue170006ERKS5_, symObjAddr: 0x82D4, symBinAddr: 0x10000B17C, symSize: 0x2C }
  - { offset: 0x26C9B, size: 0x8, addend: 0x0, symName: __ZNSt3__16vectorIN2sf6VertexENS_9allocatorIS2_EEE6assignIPS2_Li0EEEvT_S8_, symObjAddr: 0x8300, symBinAddr: 0x10000B1A8, symSize: 0x5C }
  - { offset: 0x26CF0, size: 0x8, addend: 0x0, symName: __ZNSt3__16vectorIN2sf6VertexENS_9allocatorIS2_EEE19__copy_assign_allocB8ue170006ERKS5_NS_17integral_constantIbLb0EEE, symObjAddr: 0x835C, symBinAddr: 0x10000B204, symSize: 0x14 }
  - { offset: 0x26D2C, size: 0x8, addend: 0x0, symName: __ZNSt3__16vectorIN2sf6VertexENS_9allocatorIS2_EEE18__assign_with_sizeB8ue170006IPS2_S7_EEvT_T0_l, symObjAddr: 0x8370, symBinAddr: 0x10000B218, symSize: 0x164 }
  - { offset: 0x26DDC, size: 0x8, addend: 0x0, symName: __ZNKSt3__16vectorIN2sf6VertexENS_9allocatorIS2_EEE8capacityB8ue170006Ev, symObjAddr: 0x8500, symBinAddr: 0x10000B3A8, symSize: 0x40 }
  - { offset: 0x26E02, size: 0x8, addend: 0x0, symName: __ZNKSt3__16vectorIN2sf6VertexENS_9allocatorIS2_EEE4sizeB8ue170006Ev, symObjAddr: 0x8540, symBinAddr: 0x10000B3E8, symSize: 0x28 }
  - { offset: 0x26E28, size: 0x8, addend: 0x0, symName: __ZNSt3__16vectorIN2sf6VertexENS_9allocatorIS2_EEE18__construct_at_endIPS2_S7_EEvT_T0_m, symObjAddr: 0x85DC, symBinAddr: 0x10000B484, symSize: 0x8C }
  - { offset: 0x26E9E, size: 0x8, addend: 0x0, symName: __ZNSt3__16vectorIN2sf6VertexENS_9allocatorIS2_EEE17__destruct_at_endB8ue170006EPS2_, symObjAddr: 0x86AC, symBinAddr: 0x10000B554, symSize: 0x4C }
  - { offset: 0x26EE2, size: 0x8, addend: 0x0, symName: __ZNSt3__16vectorIN2sf6VertexENS_9allocatorIS2_EEE13__vdeallocateEv, symObjAddr: 0x86F8, symBinAddr: 0x10000B5A0, symSize: 0x94 }
  - { offset: 0x26F0A, size: 0x8, addend: 0x0, symName: __ZNSt3__16vectorIN2sf6VertexENS_9allocatorIS2_EEE11__vallocateB8ue170006Em, symObjAddr: 0x878C, symBinAddr: 0x10000B634, symSize: 0xB4 }
  - { offset: 0x26F4E, size: 0x8, addend: 0x0, symName: __ZNKSt3__16vectorIN2sf6VertexENS_9allocatorIS2_EEE11__recommendB8ue170006Em, symObjAddr: 0x8840, symBinAddr: 0x10000B6E8, symSize: 0xB4 }
  - { offset: 0x26FA3, size: 0x8, addend: 0x0, symName: __ZNKSt3__16vectorIN2sf6VertexENS_9allocatorIS2_EEE9__end_capB8ue170006Ev, symObjAddr: 0x88F4, symBinAddr: 0x10000B79C, symSize: 0x28 }
  - { offset: 0x26FC9, size: 0x8, addend: 0x0, symName: __ZNKSt3__117__compressed_pairIPN2sf6VertexENS_9allocatorIS2_EEE5firstB8ue170006Ev, symObjAddr: 0x891C, symBinAddr: 0x10000B7C4, symSize: 0x24 }
  - { offset: 0x26FEF, size: 0x8, addend: 0x0, symName: __ZNKSt3__122__compressed_pair_elemIPN2sf6VertexELi0ELb0EE5__getB8ue170006Ev, symObjAddr: 0x8940, symBinAddr: 0x10000B7E8, symSize: 0x14 }
  - { offset: 0x27030, size: 0x8, addend: 0x0, symName: __ZNSt3__16vectorIN2sf6VertexENS_9allocatorIS2_EEE21_ConstructTransactionC1B8ue170006ERS5_m, symObjAddr: 0x89BC, symBinAddr: 0x10000B864, symSize: 0x3C }
  - { offset: 0x27078, size: 0x8, addend: 0x0, symName: __ZNSt3__16vectorIN2sf6VertexENS_9allocatorIS2_EEE7__allocB8ue170006Ev, symObjAddr: 0x8A78, symBinAddr: 0x10000B920, symSize: 0x28 }
  - { offset: 0x2709E, size: 0x8, addend: 0x0, symName: __ZNSt3__16vectorIN2sf6VertexENS_9allocatorIS2_EEE21_ConstructTransactionD1B8ue170006Ev, symObjAddr: 0x8AA0, symBinAddr: 0x10000B948, symSize: 0x2C }
  - { offset: 0x270C8, size: 0x8, addend: 0x0, symName: __ZNSt3__16vectorIN2sf6VertexENS_9allocatorIS2_EEE21_ConstructTransactionC2B8ue170006ERS5_m, symObjAddr: 0x8ACC, symBinAddr: 0x10000B974, symSize: 0x4C }
  - { offset: 0x27132, size: 0x8, addend: 0x0, symName: __ZNSt3__14pairIPN2sf6VertexES3_EC1B8ue170006IS3_S3_LPv0EEEOT_OT0_, symObjAddr: 0x8C48, symBinAddr: 0x10000BAF0, symSize: 0x3C }
  - { offset: 0x27190, size: 0x8, addend: 0x0, symName: __ZNSt3__14pairIPN2sf6VertexES3_EC2B8ue170006IS3_S3_LPv0EEEOT_OT0_, symObjAddr: 0x8C84, symBinAddr: 0x10000BB2C, symSize: 0x34 }
  - { offset: 0x271EE, size: 0x8, addend: 0x0, symName: __ZNSt3__118__unwrap_iter_implIPN2sf6VertexELb1EE8__unwrapB8ue170006ES3_, symObjAddr: 0x8CB8, symBinAddr: 0x10000BB60, symSize: 0x24 }
  - { offset: 0x27211, size: 0x8, addend: 0x0, symName: __ZNSt3__118__unwrap_iter_implIPN2sf6VertexELb1EE8__rewrapB8ue170006ES3_S3_, symObjAddr: 0x8CF0, symBinAddr: 0x10000BB98, symSize: 0x58 }
  - { offset: 0x27242, size: 0x8, addend: 0x0, symName: __ZNSt3__117__compressed_pairIPN2sf6VertexENS_9allocatorIS2_EEE6secondB8ue170006Ev, symObjAddr: 0x8D48, symBinAddr: 0x10000BBF0, symSize: 0x24 }
  - { offset: 0x27268, size: 0x8, addend: 0x0, symName: __ZNSt3__122__compressed_pair_elemINS_9allocatorIN2sf6VertexEEELi1ELb1EE5__getB8ue170006Ev, symObjAddr: 0x8D6C, symBinAddr: 0x10000BC14, symSize: 0x14 }
  - { offset: 0x2728E, size: 0x8, addend: 0x0, symName: __ZNSt3__16vectorIN2sf6VertexENS_9allocatorIS2_EEE21_ConstructTransactionD2B8ue170006Ev, symObjAddr: 0x8D80, symBinAddr: 0x10000BC28, symSize: 0x20 }
  - { offset: 0x272B8, size: 0x8, addend: 0x0, symName: __ZNKSt3__114__copy_trivialclB8ue170006IN2sf6VertexES3_Li0EEENS_4pairIPT_PT0_EES6_S6_S8_, symObjAddr: 0x8E98, symBinAddr: 0x10000BD40, symSize: 0x48 }
  - { offset: 0x27320, size: 0x8, addend: 0x0, symName: __ZNSt3__14pairIPN2sf6VertexES3_EC1B8ue170006IRS3_S3_LPv0EEEOT_OT0_, symObjAddr: 0x9034, symBinAddr: 0x10000BEDC, symSize: 0x3C }
  - { offset: 0x2737E, size: 0x8, addend: 0x0, symName: __ZNSt3__14pairIPN2sf6VertexES3_EC2B8ue170006IRS3_S3_LPv0EEEOT_OT0_, symObjAddr: 0x9070, symBinAddr: 0x10000BF18, symSize: 0x34 }
  - { offset: 0x273DC, size: 0x8, addend: 0x0, symName: __ZNSt3__16vectorIN2sf6VertexENS_9allocatorIS2_EEE22__base_destruct_at_endB8ue170006EPS2_, symObjAddr: 0x90A4, symBinAddr: 0x10000BF4C, symSize: 0x8C }
  - { offset: 0x27420, size: 0x8, addend: 0x0, symName: __ZNKSt3__16vectorIN2sf6VertexENS_9allocatorIS2_EEE17__annotate_shrinkB8ue170006Em, symObjAddr: 0x9130, symBinAddr: 0x10000BFD8, symSize: 0xD0 }
  - { offset: 0x27455, size: 0x8, addend: 0x0, symName: __ZNSt3__116allocator_traitsINS_9allocatorIN2sf6VertexEEEE7destroyB8ue170006IS3_vEEvRS4_PT_, symObjAddr: 0x9200, symBinAddr: 0x10000C0A8, symSize: 0x2C }
  - { offset: 0x27492, size: 0x8, addend: 0x0, symName: __ZNSt3__19allocatorIN2sf6VertexEE7destroyB8ue170006EPS2_, symObjAddr: 0x922C, symBinAddr: 0x10000C0D4, symSize: 0x14 }
  - { offset: 0x274C6, size: 0x8, addend: 0x0, symName: __ZNKSt3__16vectorIN2sf6VertexENS_9allocatorIS2_EEE31__annotate_contiguous_containerB8ue170006EPKvS7_S7_S7_, symObjAddr: 0x9240, symBinAddr: 0x10000C0E8, symSize: 0x20 }
  - { offset: 0x27518, size: 0x8, addend: 0x0, symName: __ZNKSt3__16vectorIN2sf6VertexENS_9allocatorIS2_EEE4dataB8ue170006Ev, symObjAddr: 0x9260, symBinAddr: 0x10000C108, symSize: 0x28 }
  - { offset: 0x2753E, size: 0x8, addend: 0x0, symName: __ZNSt3__16vectorIN2sf6VertexENS_9allocatorIS2_EEE5clearB8ue170006Ev, symObjAddr: 0x9288, symBinAddr: 0x10000C130, symSize: 0x44 }
  - { offset: 0x27573, size: 0x8, addend: 0x0, symName: __ZNKSt3__16vectorIN2sf6VertexENS_9allocatorIS2_EEE17__annotate_deleteB8ue170006Ev, symObjAddr: 0x92CC, symBinAddr: 0x10000C174, symSize: 0xD4 }
  - { offset: 0x27599, size: 0x8, addend: 0x0, symName: __ZNSt3__116allocator_traitsINS_9allocatorIN2sf6VertexEEEE10deallocateB8ue170006ERS4_PS3_m, symObjAddr: 0x93A0, symBinAddr: 0x10000C248, symSize: 0x34 }
  - { offset: 0x275DB, size: 0x8, addend: 0x0, symName: __ZNSt3__16vectorIN2sf6VertexENS_9allocatorIS2_EEE9__end_capB8ue170006Ev, symObjAddr: 0x93D4, symBinAddr: 0x10000C27C, symSize: 0x28 }
  - { offset: 0x27601, size: 0x8, addend: 0x0, symName: __ZNSt3__16vectorIN2sf6VertexENS_9allocatorIS2_EEE7__clearB8ue170006Ev, symObjAddr: 0x93FC, symBinAddr: 0x10000C2A4, symSize: 0x28 }
  - { offset: 0x27627, size: 0x8, addend: 0x0, symName: __ZNSt3__19allocatorIN2sf6VertexEE10deallocateB8ue170006EPS2_m, symObjAddr: 0x9424, symBinAddr: 0x10000C2CC, symSize: 0x44 }
  - { offset: 0x27669, size: 0x8, addend: 0x0, symName: __ZNSt3__117__compressed_pairIPN2sf6VertexENS_9allocatorIS2_EEE5firstB8ue170006Ev, symObjAddr: 0x9468, symBinAddr: 0x10000C310, symSize: 0x24 }
  - { offset: 0x2768F, size: 0x8, addend: 0x0, symName: __ZNSt3__122__compressed_pair_elemIPN2sf6VertexELi0ELb0EE5__getB8ue170006Ev, symObjAddr: 0x948C, symBinAddr: 0x10000C334, symSize: 0x14 }
  - { offset: 0x276B5, size: 0x8, addend: 0x0, symName: __ZNKSt3__16vectorIN2sf6VertexENS_9allocatorIS2_EEE8max_sizeEv, symObjAddr: 0x94A0, symBinAddr: 0x10000C348, symSize: 0x60 }
  - { offset: 0x276DD, size: 0x8, addend: 0x0, symName: __ZNKSt3__16vectorIN2sf6VertexENS_9allocatorIS2_EEE20__throw_length_errorB8ue170006Ev, symObjAddr: 0x9500, symBinAddr: 0x10000C3A8, symSize: 0x1C }
  - { offset: 0x27703, size: 0x8, addend: 0x0, symName: __ZNKSt3__16vectorIN2sf6VertexENS_9allocatorIS2_EEE14__annotate_newB8ue170006Em, symObjAddr: 0x955C, symBinAddr: 0x10000C404, symSize: 0xC8 }
  - { offset: 0x27743, size: 0x8, addend: 0x0, symName: __ZNSt3__116allocator_traitsINS_9allocatorIN2sf6VertexEEEE8max_sizeB8ue170006IS4_vEEmRKS4_, symObjAddr: 0x9624, symBinAddr: 0x10000C4CC, symSize: 0x24 }
  - { offset: 0x27771, size: 0x8, addend: 0x0, symName: __ZNKSt3__16vectorIN2sf6VertexENS_9allocatorIS2_EEE7__allocB8ue170006Ev, symObjAddr: 0x9648, symBinAddr: 0x10000C4F0, symSize: 0x28 }
  - { offset: 0x27797, size: 0x8, addend: 0x0, symName: __ZNKSt3__19allocatorIN2sf6VertexEE8max_sizeB8ue170006Ev, symObjAddr: 0x9670, symBinAddr: 0x10000C518, symSize: 0x18 }
  - { offset: 0x277BD, size: 0x8, addend: 0x0, symName: __ZNKSt3__117__compressed_pairIPN2sf6VertexENS_9allocatorIS2_EEE6secondB8ue170006Ev, symObjAddr: 0x9688, symBinAddr: 0x10000C530, symSize: 0x24 }
  - { offset: 0x277E3, size: 0x8, addend: 0x0, symName: __ZNKSt3__122__compressed_pair_elemINS_9allocatorIN2sf6VertexEEELi1ELb1EE5__getB8ue170006Ev, symObjAddr: 0x96AC, symBinAddr: 0x10000C554, symSize: 0x14 }
  - { offset: 0x27809, size: 0x8, addend: 0x0, symName: __ZNSt3__19allocatorIN2sf6VertexEE8allocateB8ue170006Em, symObjAddr: 0x96C0, symBinAddr: 0x10000C568, symSize: 0x5C }
  - { offset: 0x2783D, size: 0x8, addend: 0x0, symName: __ZNSt3__118__unwrap_iter_implIP7MonsterLb1EE8__unwrapB8ue170006ES2_, symObjAddr: 0x9744, symBinAddr: 0x10000C5EC, symSize: 0x24 }
  - { offset: 0x27860, size: 0x8, addend: 0x0, symName: __ZNSt3__14pairIP7MonsterS2_EC1B8ue170006IS2_S2_LPv0EEEOT_OT0_, symObjAddr: 0x9768, symBinAddr: 0x10000C610, symSize: 0x3C }
  - { offset: 0x278BE, size: 0x8, addend: 0x0, symName: __ZNSt3__14pairIP7MonsterS2_EC2B8ue170006IS2_S2_LPv0EEEOT_OT0_, symObjAddr: 0x97A4, symBinAddr: 0x10000C64C, symSize: 0x34 }
  - { offset: 0x2791C, size: 0x8, addend: 0x0, symName: __ZNSt3__118__unwrap_iter_implIP7MonsterLb1EE8__rewrapB8ue170006ES2_S2_, symObjAddr: 0x97D8, symBinAddr: 0x10000C680, symSize: 0x58 }
  - { offset: 0x2794D, size: 0x8, addend: 0x0, symName: __ZNKSt3__16vectorI6EntityNS_9allocatorIS1_EEE6cbeginB8ue170006Ev, symObjAddr: 0x9878, symBinAddr: 0x10000C720, symSize: 0x2C }
  - { offset: 0x27973, size: 0x8, addend: 0x0, symName: __ZNSt3__16vectorI6EntityNS_9allocatorIS1_EEE17__destruct_at_endB8ue170006EPS1_, symObjAddr: 0x98A4, symBinAddr: 0x10000C74C, symSize: 0x4C }
  - { offset: 0x279B7, size: 0x8, addend: 0x0, symName: __ZNKSt3__111__wrap_iterIPK6EntityE4baseB8ue170006Ev, symObjAddr: 0x9930, symBinAddr: 0x10000C7D8, symSize: 0x18 }
  - { offset: 0x279DD, size: 0x8, addend: 0x0, symName: __ZNKSt3__16vectorI6EntityNS_9allocatorIS1_EEE5beginB8ue170006Ev, symObjAddr: 0x9948, symBinAddr: 0x10000C7F0, symSize: 0x30 }
  - { offset: 0x27A05, size: 0x8, addend: 0x0, symName: __ZNKSt3__16vectorI6EntityNS_9allocatorIS1_EEE11__make_iterB8ue170006EPKS1_, symObjAddr: 0x9978, symBinAddr: 0x10000C820, symSize: 0x30 }
  - { offset: 0x27A3A, size: 0x8, addend: 0x0, symName: __ZNSt3__111__wrap_iterIPK6EntityEC1B8ue170006ES3_, symObjAddr: 0x99A8, symBinAddr: 0x10000C850, symSize: 0x34 }
  - { offset: 0x27A72, size: 0x8, addend: 0x0, symName: __ZNSt3__111__wrap_iterIPK6EntityEC2B8ue170006ES3_, symObjAddr: 0x99DC, symBinAddr: 0x10000C884, symSize: 0x20 }
  - { offset: 0x27AAA, size: 0x8, addend: 0x0, symName: __ZNSt3__16vectorI6EntityNS_9allocatorIS1_EEE22__base_destruct_at_endB8ue170006EPS1_, symObjAddr: 0x99FC, symBinAddr: 0x10000C8A4, symSize: 0x8C }
  - { offset: 0x27AEE, size: 0x8, addend: 0x0, symName: __ZNKSt3__16vectorI6EntityNS_9allocatorIS1_EEE17__annotate_shrinkB8ue170006Em, symObjAddr: 0x9A88, symBinAddr: 0x10000C930, symSize: 0xD0 }
  - { offset: 0x27B3F, size: 0x8, addend: 0x0, symName: __ZNKSt3__111__move_loopINS_17_ClassicAlgPolicyEEclB8ue170006IP6EntityS5_S5_EENS_4pairIT_T1_EES7_T0_S8_, symObjAddr: 0x9CF4, symBinAddr: 0x10000CB9C, symSize: 0x90 }
  - { offset: 0x27BAA, size: 0x8, addend: 0x0, symName: __ZNSt3__18_IterOpsINS_17_ClassicAlgPolicyEE11__iter_moveB8ue170006IRP6EntityEENS_9enable_ifIXsr12is_referenceIDTdeclsr3stdE7declvalIRT_EEEEE5valueEDTclsr3stdE4movedeclsr3stdE7declvalIS9_EEEEE4typeEOS8_, symObjAddr: 0x9E48, symBinAddr: 0x10000CCF0, symSize: 0x28 }
  - { offset: 0x27BD6, size: 0x8, addend: 0x0, symName: __ZNSt3__18_IterOpsINS_17_ClassicAlgPolicyEE25__validate_iter_referenceB8ue170006IRP6EntityEEvv, symObjAddr: 0x9E70, symBinAddr: 0x10000CD18, symSize: 0x4 }
  - { offset: 0x27BF4, size: 0x8, addend: 0x0, symName: __ZNSt3__118__unwrap_iter_implIP6EntityLb1EE8__unwrapB8ue170006ES2_, symObjAddr: 0x9E74, symBinAddr: 0x10000CD1C, symSize: 0x24 }
  - { offset: 0x27C1D, size: 0x8, addend: 0x0, symName: __ZNSt3__14pairIP6EntityS2_EC1B8ue170006IS2_S2_LPv0EEEOT_OT0_, symObjAddr: 0x9E98, symBinAddr: 0x10000CD40, symSize: 0x3C }
  - { offset: 0x27C7B, size: 0x8, addend: 0x0, symName: __ZNSt3__14pairIP6EntityS2_EC2B8ue170006IS2_S2_LPv0EEEOT_OT0_, symObjAddr: 0x9ED4, symBinAddr: 0x10000CD7C, symSize: 0x34 }
  - { offset: 0x27CD9, size: 0x8, addend: 0x0, symName: __ZNSt3__118__unwrap_iter_implIP6EntityLb1EE8__rewrapB8ue170006ES2_S2_, symObjAddr: 0x9F08, symBinAddr: 0x10000CDB0, symSize: 0x58 }
  - { offset: 0x2C526, size: 0x8, addend: 0x0, symName: __ZNSt3__142__uninitialized_allocator_move_if_noexceptB8ue170006INS_9allocatorIP13IGameObserverEENS_16reverse_iteratorIPS3_EES7_S3_vEET1_RT_T0_SB_S8_, symObjAddr: 0x1440, symBinAddr: 0x10000D94C, symSize: 0x78 }
  - { offset: 0x2C5A3, size: 0x8, addend: 0x0, symName: __ZNSt3__14swapB8ue170006IPP13IGameObserverEENS_9enable_ifIXaasr21is_move_constructibleIT_EE5valuesr18is_move_assignableIS5_EE5valueEvE4typeERS5_S8_, symObjAddr: 0x1504, symBinAddr: 0x10000DA10, symSize: 0x3C }
  - { offset: 0x2C5F4, size: 0x8, addend: 0x0, symName: __ZNSt3__14moveB8ue170006INS_16reverse_iteratorIPP13IGameObserverEES5_EET0_T_S7_S6_, symObjAddr: 0x1634, symBinAddr: 0x10000DA4C, symSize: 0x78 }
  - { offset: 0x2C64E, size: 0x8, addend: 0x0, symName: __ZNSt3__16__moveB8ue170006INS_17_ClassicAlgPolicyENS_16reverse_iteratorIPP13IGameObserverEES6_S6_EENS_4pairIT0_T2_EES8_T1_S9_, symObjAddr: 0x16AC, symBinAddr: 0x10000DAC4, symSize: 0x64 }
  - { offset: 0x2C6BA, size: 0x8, addend: 0x0, symName: __ZNSt3__123__dispatch_copy_or_moveB8ue170006INS_17_ClassicAlgPolicyENS_11__move_loopIS1_EENS_14__move_trivialENS_16reverse_iteratorIPP13IGameObserverEES9_S9_EENS_4pairIT2_T4_EESB_T3_SC_, symObjAddr: 0x1710, symBinAddr: 0x10000DB28, symSize: 0x64 }
  - { offset: 0x2C738, size: 0x8, addend: 0x0, symName: __ZNSt3__121__unwrap_and_dispatchB8ue170006INS_10__overloadINS_11__move_loopINS_17_ClassicAlgPolicyEEENS_14__move_trivialEEENS_16reverse_iteratorIPP13IGameObserverEESB_SB_Li0EEENS_4pairIT0_T2_EESD_T1_SE_, symObjAddr: 0x1774, symBinAddr: 0x10000DB8C, symSize: 0x12C }
  - { offset: 0x2C7C8, size: 0x8, addend: 0x0, symName: __ZNSt3__114__unwrap_rangeB8ue170006INS_16reverse_iteratorIPP13IGameObserverEES5_EENS_4pairIT0_S7_EET_S9_, symObjAddr: 0x18A0, symBinAddr: 0x10000DCB8, symSize: 0x84 }
  - { offset: 0x2C93A, size: 0x8, addend: 0x0, symName: __ZNSt3__113__unwrap_iterB8ue170006INS_16reverse_iteratorIPP13IGameObserverEENS_18__unwrap_iter_implIS5_Lb0EEELi0EEEDTclsrT0_8__unwrapclsr3stdE7declvalIT_EEEES9_, symObjAddr: 0x19C4, symBinAddr: 0x10000DDDC, symSize: 0x44 }
  - { offset: 0x2C97E, size: 0x8, addend: 0x0, symName: __ZNSt3__19make_pairB8ue170006INS_16reverse_iteratorIPP13IGameObserverEES5_EENS_4pairINS_18__unwrap_ref_decayIT_E4typeENS7_IT0_E4typeEEEOS8_OSB_, symObjAddr: 0x1A08, symBinAddr: 0x10000DE20, symSize: 0x38 }
  - { offset: 0x2C9CD, size: 0x8, addend: 0x0, symName: __ZNSt3__114__rewrap_rangeB8ue170006INS_16reverse_iteratorIPP13IGameObserverEES5_EET_S6_T0_, symObjAddr: 0x1A40, symBinAddr: 0x10000DE58, symSize: 0x5C }
  - { offset: 0x2CA19, size: 0x8, addend: 0x0, symName: __ZNSt3__113__rewrap_iterB8ue170006INS_16reverse_iteratorIPP13IGameObserverEES5_NS_18__unwrap_iter_implIS5_Lb0EEEEET_S8_T0_, symObjAddr: 0x1A9C, symBinAddr: 0x10000DEB4, symSize: 0x74 }
  - { offset: 0x2CA6E, size: 0x8, addend: 0x0, symName: __ZNSt3__1neB8ue170006IPP13IGameObserverS3_EEbRKNS_16reverse_iteratorIT_EERKNS4_IT0_EE, symObjAddr: 0x1B10, symBinAddr: 0x10000DF28, symSize: 0x48 }
  - { offset: 0x2CB6C, size: 0x8, addend: 0x0, symName: __ZNSt3__16removeB8ue170006INS_11__wrap_iterIPP13IGameObserverEES3_EET_S6_S6_RKT0_, symObjAddr: 0x212C, symBinAddr: 0x10000E388, symSize: 0x108 }
  - { offset: 0x2CBE2, size: 0x8, addend: 0x0, symName: __ZNSt3__1miB8ue170006IPKP13IGameObserverPS2_EEDTmicldtfp_4baseEcldtfp0_4baseEERKNS_11__wrap_iterIT_EERKNS7_IT0_EE, symObjAddr: 0x22D0, symBinAddr: 0x10000E4CC, symSize: 0x48 }
  - { offset: 0x2CC2E, size: 0x8, addend: 0x0, symName: __ZNSt3__1neB8ue170006IPKP13IGameObserverEEbRKNS_11__wrap_iterIT_EES9_, symObjAddr: 0x2318, symBinAddr: 0x10000E514, symSize: 0x34 }
  - { offset: 0x2CC71, size: 0x8, addend: 0x0, symName: __ZNSt3__14moveB8ue170006IPP13IGameObserverS3_EET0_T_S5_S4_, symObjAddr: 0x2398, symBinAddr: 0x10000E548, symSize: 0x40 }
  - { offset: 0x2CCCB, size: 0x8, addend: 0x0, symName: __ZNSt3__1miB8ue170006IPKP13IGameObserverS4_EEDTmicldtfp_4baseEcldtfp0_4baseEERKNS_11__wrap_iterIT_EERKNS6_IT0_EE, symObjAddr: 0x23D8, symBinAddr: 0x10000E588, symSize: 0x48 }
  - { offset: 0x2CD17, size: 0x8, addend: 0x0, symName: __ZNSt3__1eqB8ue170006IPKP13IGameObserverEEbRKNS_11__wrap_iterIT_EES9_, symObjAddr: 0x2480, symBinAddr: 0x10000E5E8, symSize: 0x48 }
  - { offset: 0x2CD5A, size: 0x8, addend: 0x0, symName: __ZNSt3__16__moveB8ue170006INS_17_ClassicAlgPolicyEPP13IGameObserverS4_S4_EENS_4pairIT0_T2_EES6_T1_S7_, symObjAddr: 0x2608, symBinAddr: 0x10000E630, symSize: 0x44 }
  - { offset: 0x2CDC6, size: 0x8, addend: 0x0, symName: __ZNSt3__123__dispatch_copy_or_moveB8ue170006INS_17_ClassicAlgPolicyENS_11__move_loopIS1_EENS_14__move_trivialEPP13IGameObserverS7_S7_EENS_4pairIT2_T4_EES9_T3_SA_, symObjAddr: 0x264C, symBinAddr: 0x10000E674, symSize: 0x44 }
  - { offset: 0x2CE44, size: 0x8, addend: 0x0, symName: __ZNSt3__121__unwrap_and_dispatchB8ue170006INS_10__overloadINS_11__move_loopINS_17_ClassicAlgPolicyEEENS_14__move_trivialEEEPP13IGameObserverS9_S9_Li0EEENS_4pairIT0_T2_EESB_T1_SC_, symObjAddr: 0x2690, symBinAddr: 0x10000E6B8, symSize: 0xB4 }
  - { offset: 0x2CF18, size: 0x8, addend: 0x0, symName: __ZNSt3__14findB8ue170006INS_11__wrap_iterIPP13IGameObserverEES3_EET_S6_S6_RKT0_, symObjAddr: 0x2B74, symBinAddr: 0x10000E7B4, symSize: 0x78 }
  - { offset: 0x2CF80, size: 0x8, addend: 0x0, symName: __ZNSt3__113__rewrap_iterB8ue170006INS_11__wrap_iterIPP13IGameObserverEES4_NS_18__unwrap_iter_implIS5_Lb1EEEEET_S8_T0_, symObjAddr: 0x2C58, symBinAddr: 0x10000E82C, symSize: 0x4C }
  - { offset: 0x2CFD5, size: 0x8, addend: 0x0, symName: __ZNSt3__111__find_implB8ue170006IPP13IGameObserverS3_S2_NS_10__identityEEET_S5_T0_RKT1_RT2_, symObjAddr: 0x2CA4, symBinAddr: 0x10000E878, symSize: 0x88 }
  - { offset: 0x2D04F, size: 0x8, addend: 0x0, symName: __ZNSt3__113__unwrap_iterB8ue170006INS_11__wrap_iterIPP13IGameObserverEENS_18__unwrap_iter_implIS5_Lb1EEELi0EEEDTclsrT0_8__unwrapclsr3stdE7declvalIT_EEEES9_, symObjAddr: 0x2D2C, symBinAddr: 0x10000E900, symSize: 0x2C }
  - { offset: 0x2D0E6, size: 0x8, addend: 0x0, symName: __ZNSt3__112__to_addressB8ue170006INS_11__wrap_iterIPP13IGameObserverEEvEEu7__decayIDTclsr19__to_address_helperIT_EE6__callclsr3stdE7declvalIRKS6_EEEEES8_, symObjAddr: 0x2DF0, symBinAddr: 0x10000E9C4, symSize: 0x24 }
  - { offset: 0x2D1C1, size: 0x8, addend: 0x0, symName: __ZNSt3__18__invokeB8ue170006IRNS_10__identityEJRP13IGameObserverEEEDTclclsr3stdE7declvalIT_EEspclsr3stdE7declvalIT0_EEEEOS6_DpOS7_, symObjAddr: 0x2E98, symBinAddr: 0x10000EA6C, symSize: 0x2C }
  - { offset: 0x2E748, size: 0x8, addend: 0x0, symName: __ZNSt3__16vectorIP13IGameObserverNS_9allocatorIS2_EEE26__swap_out_circular_bufferERNS_14__split_bufferIS2_RS4_EE, symObjAddr: 0xA78, symBinAddr: 0x10000D5C8, symSize: 0x110 }
  - { offset: 0x2E7A5, size: 0x8, addend: 0x0, symName: __ZN7MonsterC2Ev, symObjAddr: 0x0, symBinAddr: 0x10000CE08, symSize: 0xD8 }
  - { offset: 0x2E7D1, size: 0x8, addend: 0x0, symName: __ZN12IGameSubjectC2Ev, symObjAddr: 0xD8, symBinAddr: 0x10000CEE0, symSize: 0x24 }
  - { offset: 0x2E7FD, size: 0x8, addend: 0x0, symName: __ZNSt3__16vectorIP13IGameObserverNS_9allocatorIS2_EEEC1B8ue170006Ev, symObjAddr: 0xFC, symBinAddr: 0x10000CF04, symSize: 0x2C }
  - { offset: 0x2E827, size: 0x8, addend: 0x0, symName: __ZNSt3__16vectorIP13IGameObserverNS_9allocatorIS2_EEED1B8ue170006Ev, symObjAddr: 0x164, symBinAddr: 0x10000CF30, symSize: 0x2C }
  - { offset: 0x2E851, size: 0x8, addend: 0x0, symName: __ZN12IGameSubjectD2Ev, symObjAddr: 0x190, symBinAddr: 0x10000CF5C, symSize: 0x14 }
  - { offset: 0x2E87B, size: 0x8, addend: 0x0, symName: __ZN7MonsterC1Ev, symObjAddr: 0x1A4, symBinAddr: 0x10000CF70, symSize: 0x2C }
  - { offset: 0x2E8A7, size: 0x8, addend: 0x0, symName: __ZN7MonsterD2Ev, symObjAddr: 0x1D0, symBinAddr: 0x10000CF9C, symSize: 0x68 }
  - { offset: 0x2E8D3, size: 0x8, addend: 0x0, symName: __ZN2sf14RectangleShapeD1Ev, symObjAddr: 0x238, symBinAddr: 0x10000D004, symSize: 0x2C }
  - { offset: 0x2E8FF, size: 0x8, addend: 0x0, symName: __ZN7MonsterD1Ev, symObjAddr: 0x264, symBinAddr: 0x10000D030, symSize: 0x2C }
  - { offset: 0x2E92B, size: 0x8, addend: 0x0, symName: __ZThn320_N7MonsterD1Ev, symObjAddr: 0x290, symBinAddr: 0x10000D05C, symSize: 0x1C }
  - { offset: 0x2E941, size: 0x8, addend: 0x0, symName: __ZN7MonsterD0Ev, symObjAddr: 0x2AC, symBinAddr: 0x10000D078, symSize: 0x30 }
  - { offset: 0x2E96D, size: 0x8, addend: 0x0, symName: __ZThn320_N7MonsterD0Ev, symObjAddr: 0x2DC, symBinAddr: 0x10000D0A8, symSize: 0x18 }
  - { offset: 0x2E983, size: 0x8, addend: 0x0, symName: __ZN7Monster9CanAttackEv, symObjAddr: 0x2F4, symBinAddr: 0x10000D0C0, symSize: 0x28 }
  - { offset: 0x2E9AB, size: 0x8, addend: 0x0, symName: __ZN7Monster6AttackER5Tower, symObjAddr: 0x31C, symBinAddr: 0x10000D0E8, symSize: 0x54 }
  - { offset: 0x2E9E1, size: 0x8, addend: 0x0, symName: __ZN7Monster20UpdateAttackCooldownEf, symObjAddr: 0x370, symBinAddr: 0x10000D13C, symSize: 0x28 }
  - { offset: 0x2EA17, size: 0x8, addend: 0x0, symName: __ZNK6Entity4drawERN2sf12RenderTargetENS0_12RenderStatesE, symObjAddr: 0x398, symBinAddr: 0x10000D164, symSize: 0x38 }
  - { offset: 0x2EA5A, size: 0x8, addend: 0x0, symName: __ZN6Entity11SetPositionERKN2sf7Vector2IfEE, symObjAddr: 0x3D0, symBinAddr: 0x10000D19C, symSize: 0x30 }
  - { offset: 0x2EA8E, size: 0x8, addend: 0x0, symName: __ZN7Monster11AddObserverEP13IGameObserver, symObjAddr: 0x400, symBinAddr: 0x10000D1CC, symSize: 0x34 }
  - { offset: 0x2EAC2, size: 0x8, addend: 0x0, symName: __ZN7Monster14RemoveObserverEP13IGameObserver, symObjAddr: 0x434, symBinAddr: 0x10000D200, symSize: 0xAC }
  - { offset: 0x2EAF6, size: 0x8, addend: 0x0, symName: __ZThn320_N7Monster11AddObserverEP13IGameObserver, symObjAddr: 0x4E0, symBinAddr: 0x10000D2AC, symSize: 0x20 }
  - { offset: 0x2EB0C, size: 0x8, addend: 0x0, symName: __ZThn320_N7Monster14RemoveObserverEP13IGameObserver, symObjAddr: 0x500, symBinAddr: 0x10000D2CC, symSize: 0x20 }
  - { offset: 0x2EB22, size: 0x8, addend: 0x0, symName: __ZN12IGameSubjectD1Ev, symObjAddr: 0x520, symBinAddr: 0x10000D2EC, symSize: 0x14 }
  - { offset: 0x2EB4C, size: 0x8, addend: 0x0, symName: __ZN12IGameSubjectD0Ev, symObjAddr: 0x534, symBinAddr: 0x10000D300, symSize: 0xC }
  - { offset: 0x2EB76, size: 0x8, addend: 0x0, symName: __ZN2sf14RectangleShapeD2Ev, symObjAddr: 0x540, symBinAddr: 0x10000D30C, symSize: 0x2C }
  - { offset: 0x2EBA2, size: 0x8, addend: 0x0, symName: __ZThn8_N2sf14RectangleShapeD1Ev, symObjAddr: 0x56C, symBinAddr: 0x10000D338, symSize: 0x1C }
  - { offset: 0x2EBB8, size: 0x8, addend: 0x0, symName: __ZNSt3__16vectorIP13IGameObserverNS_9allocatorIS2_EEE9push_backB8ue170006ERKS2_, symObjAddr: 0x588, symBinAddr: 0x10000D354, symSize: 0x6C }
  - { offset: 0x2EBEF, size: 0x8, addend: 0x0, symName: __ZNSt3__16vectorIP13IGameObserverNS_9allocatorIS2_EEE22__construct_one_at_endB8ue170006IJRKS2_EEEvDpOT_, symObjAddr: 0x61C, symBinAddr: 0x10000D3C0, symSize: 0x90 }
  - { offset: 0x2EC3E, size: 0x8, addend: 0x0, symName: __ZNSt3__16vectorIP13IGameObserverNS_9allocatorIS2_EEE21__push_back_slow_pathIRKS2_EEvOT_, symObjAddr: 0x6AC, symBinAddr: 0x10000D450, symSize: 0xD8 }
  - { offset: 0x2ECB7, size: 0x8, addend: 0x0, symName: __ZNSt3__116allocator_traitsINS_9allocatorIP13IGameObserverEEE9constructB8ue170006IS3_JRKS3_EvEEvRS4_PT_DpOT0_, symObjAddr: 0x7F8, symBinAddr: 0x10000D528, symSize: 0x34 }
  - { offset: 0x2ED0E, size: 0x8, addend: 0x0, symName: __ZNSt3__19allocatorIP13IGameObserverE9constructB8ue170006IS2_JRKS2_EEEvPT_DpOT0_, symObjAddr: 0x8D8, symBinAddr: 0x10000D55C, symSize: 0x28 }
  - { offset: 0x2ED64, size: 0x8, addend: 0x0, symName: __ZNSt3__114__split_bufferIP13IGameObserverRNS_9allocatorIS2_EEEC1EmmS5_, symObjAddr: 0xA34, symBinAddr: 0x10000D584, symSize: 0x44 }
  - { offset: 0x2EDBA, size: 0x8, addend: 0x0, symName: __ZNSt3__114__split_bufferIP13IGameObserverRNS_9allocatorIS2_EEED1Ev, symObjAddr: 0xB88, symBinAddr: 0x10000D6D8, symSize: 0x2C }
  - { offset: 0x2EDF1, size: 0x8, addend: 0x0, symName: __ZNSt3__114__split_bufferIP13IGameObserverRNS_9allocatorIS2_EEEC2EmmS5_, symObjAddr: 0xFA4, symBinAddr: 0x10000D704, symSize: 0xD4 }
  - { offset: 0x2EE6A, size: 0x8, addend: 0x0, symName: __ZNSt3__117__compressed_pairIPP13IGameObserverRNS_9allocatorIS2_EEEC1B8ue170006IDnS6_EEOT_OT0_, symObjAddr: 0x1078, symBinAddr: 0x10000D7D8, symSize: 0x3C }
  - { offset: 0x2EEC2, size: 0x8, addend: 0x0, symName: __ZNSt3__114__split_bufferIP13IGameObserverRNS_9allocatorIS2_EEE7__allocB8ue170006Ev, symObjAddr: 0x10F4, symBinAddr: 0x10000D814, symSize: 0x28 }
  - { offset: 0x2EEE8, size: 0x8, addend: 0x0, symName: __ZNSt3__114__split_bufferIP13IGameObserverRNS_9allocatorIS2_EEE9__end_capB8ue170006Ev, symObjAddr: 0x111C, symBinAddr: 0x10000D83C, symSize: 0x28 }
  - { offset: 0x2EF0E, size: 0x8, addend: 0x0, symName: __ZNSt3__117__compressed_pairIPP13IGameObserverRNS_9allocatorIS2_EEEC2B8ue170006IDnS6_EEOT_OT0_, symObjAddr: 0x1144, symBinAddr: 0x10000D864, symSize: 0x48 }
  - { offset: 0x2EF66, size: 0x8, addend: 0x0, symName: __ZNSt3__122__compressed_pair_elemIPP13IGameObserverLi0ELb0EEC2B8ue170006IDnvEEOT_, symObjAddr: 0x118C, symBinAddr: 0x10000D8AC, symSize: 0x1C }
  - { offset: 0x2EFA8, size: 0x8, addend: 0x0, symName: __ZNSt3__122__compressed_pair_elemIRNS_9allocatorIP13IGameObserverEELi1ELb0EEC2B8ue170006IS5_vEEOT_, symObjAddr: 0x11A8, symBinAddr: 0x10000D8C8, symSize: 0x20 }
  - { offset: 0x2EFEA, size: 0x8, addend: 0x0, symName: __ZNSt3__117__compressed_pairIPP13IGameObserverRNS_9allocatorIS2_EEE6secondB8ue170006Ev, symObjAddr: 0x1324, symBinAddr: 0x10000D8E8, symSize: 0x28 }
  - { offset: 0x2F010, size: 0x8, addend: 0x0, symName: __ZNSt3__122__compressed_pair_elemIRNS_9allocatorIP13IGameObserverEELi1ELb0EE5__getB8ue170006Ev, symObjAddr: 0x134C, symBinAddr: 0x10000D910, symSize: 0x18 }
  - { offset: 0x2F036, size: 0x8, addend: 0x0, symName: __ZNSt3__117__compressed_pairIPP13IGameObserverRNS_9allocatorIS2_EEE5firstB8ue170006Ev, symObjAddr: 0x1364, symBinAddr: 0x10000D928, symSize: 0x24 }
  - { offset: 0x2F05C, size: 0x8, addend: 0x0, symName: __ZNSt3__116reverse_iteratorIPP13IGameObserverEC1B8ue170006ES3_, symObjAddr: 0x14B8, symBinAddr: 0x10000D9C4, symSize: 0x34 }
  - { offset: 0x2F094, size: 0x8, addend: 0x0, symName: __ZNKSt3__116reverse_iteratorIPP13IGameObserverE4baseB8ue170006Ev, symObjAddr: 0x14EC, symBinAddr: 0x10000D9F8, symSize: 0x18 }
  - { offset: 0x2F0E0, size: 0x8, addend: 0x0, symName: __ZNKSt3__111__move_loopINS_17_ClassicAlgPolicyEEclB8ue170006INS_16reverse_iteratorIPP13IGameObserverEES8_S8_EENS_4pairIT_T1_EESA_T0_SB_, symObjAddr: 0x1924, symBinAddr: 0x10000DD3C, symSize: 0xA0 }
  - { offset: 0x2F151, size: 0x8, addend: 0x0, symName: __ZNSt3__18_IterOpsINS_17_ClassicAlgPolicyEE11__iter_moveB8ue170006IRNS_16reverse_iteratorIPP13IGameObserverEEEENS_9enable_ifIXsr12is_referenceIDTdeclsr3stdE7declvalIRT_EEEEE5valueEDTclsr3stdE4movedeclsr3stdE7declvalISC_EEEEE4typeEOSB_, symObjAddr: 0x1B58, symBinAddr: 0x10000DF70, symSize: 0x28 }
  - { offset: 0x2F17D, size: 0x8, addend: 0x0, symName: __ZNKSt3__116reverse_iteratorIPP13IGameObserverEdeB8ue170006Ev, symObjAddr: 0x1B80, symBinAddr: 0x10000DF98, symSize: 0x28 }
  - { offset: 0x2F1B1, size: 0x8, addend: 0x0, symName: __ZNSt3__116reverse_iteratorIPP13IGameObserverEppB8ue170006Ev, symObjAddr: 0x1BA8, symBinAddr: 0x10000DFC0, symSize: 0x20 }
  - { offset: 0x2F1D7, size: 0x8, addend: 0x0, symName: __ZNSt3__18_IterOpsINS_17_ClassicAlgPolicyEE25__validate_iter_referenceB8ue170006IRNS_16reverse_iteratorIPP13IGameObserverEEEEvv, symObjAddr: 0x1BC8, symBinAddr: 0x10000DFE0, symSize: 0x4 }
  - { offset: 0x2F1F5, size: 0x8, addend: 0x0, symName: __ZNSt3__118__unwrap_iter_implINS_16reverse_iteratorIPP13IGameObserverEELb0EE8__unwrapB8ue170006ES5_, symObjAddr: 0x1BCC, symBinAddr: 0x10000DFE4, symSize: 0x24 }
  - { offset: 0x2F21E, size: 0x8, addend: 0x0, symName: __ZNSt3__14pairINS_16reverse_iteratorIPP13IGameObserverEES5_EC1B8ue170006IS5_S5_LPv0EEEOT_OT0_, symObjAddr: 0x1BF0, symBinAddr: 0x10000E008, symSize: 0x3C }
  - { offset: 0x2F27C, size: 0x8, addend: 0x0, symName: __ZNSt3__14pairINS_16reverse_iteratorIPP13IGameObserverEES5_EC2B8ue170006IS5_S5_LPv0EEEOT_OT0_, symObjAddr: 0x1C2C, symBinAddr: 0x10000E044, symSize: 0x34 }
  - { offset: 0x2F2DA, size: 0x8, addend: 0x0, symName: __ZNSt3__118__unwrap_iter_implINS_16reverse_iteratorIPP13IGameObserverEELb0EE8__rewrapB8ue170006ES5_S5_, symObjAddr: 0x1C60, symBinAddr: 0x10000E078, symSize: 0x2C }
  - { offset: 0x2F307, size: 0x8, addend: 0x0, symName: __ZNSt3__116reverse_iteratorIPP13IGameObserverEC2B8ue170006ES3_, symObjAddr: 0x1C8C, symBinAddr: 0x10000E0A4, symSize: 0x28 }
  - { offset: 0x2F33F, size: 0x8, addend: 0x0, symName: __ZNSt3__114__split_bufferIP13IGameObserverRNS_9allocatorIS2_EEED2Ev, symObjAddr: 0x1CB4, symBinAddr: 0x10000E0CC, symSize: 0x8C }
  - { offset: 0x2F36B, size: 0x8, addend: 0x0, symName: __ZNSt3__114__split_bufferIP13IGameObserverRNS_9allocatorIS2_EEE5clearB8ue170006Ev, symObjAddr: 0x1D40, symBinAddr: 0x10000E158, symSize: 0x28 }
  - { offset: 0x2F391, size: 0x8, addend: 0x0, symName: __ZNKSt3__114__split_bufferIP13IGameObserverRNS_9allocatorIS2_EEE8capacityB8ue170006Ev, symObjAddr: 0x1D9C, symBinAddr: 0x10000E180, symSize: 0x40 }
  - { offset: 0x2F3B7, size: 0x8, addend: 0x0, symName: __ZNSt3__114__split_bufferIP13IGameObserverRNS_9allocatorIS2_EEE17__destruct_at_endB8ue170006EPS2_, symObjAddr: 0x1DDC, symBinAddr: 0x10000E1C0, symSize: 0x2C }
  - { offset: 0x2F3EB, size: 0x8, addend: 0x0, symName: __ZNSt3__114__split_bufferIP13IGameObserverRNS_9allocatorIS2_EEE17__destruct_at_endB8ue170006EPS2_NS_17integral_constantIbLb0EEE, symObjAddr: 0x1E08, symBinAddr: 0x10000E1EC, symSize: 0x80 }
  - { offset: 0x2F42B, size: 0x8, addend: 0x0, symName: __ZNKSt3__114__split_bufferIP13IGameObserverRNS_9allocatorIS2_EEE9__end_capB8ue170006Ev, symObjAddr: 0x2010, symBinAddr: 0x10000E26C, symSize: 0x28 }
  - { offset: 0x2F451, size: 0x8, addend: 0x0, symName: __ZNKSt3__117__compressed_pairIPP13IGameObserverRNS_9allocatorIS2_EEE5firstB8ue170006Ev, symObjAddr: 0x2038, symBinAddr: 0x10000E294, symSize: 0x24 }
  - { offset: 0x2F477, size: 0x8, addend: 0x0, symName: __ZNSt3__16vectorIP13IGameObserverNS_9allocatorIS2_EEE5eraseENS_11__wrap_iterIPKS2_EES9_, symObjAddr: 0x205C, symBinAddr: 0x10000E2B8, symSize: 0xD0 }
  - { offset: 0x2F4D7, size: 0x8, addend: 0x0, symName: __ZNSt3__111__wrap_iterIPKP13IGameObserverEC1B8ue170006IPS2_EERKNS0_IT_EEPNS_9enable_ifIXsr14is_convertibleIS8_S4_EE5valueEvE4typeE, symObjAddr: 0x2294, symBinAddr: 0x10000E490, symSize: 0x3C }
  - { offset: 0x2F522, size: 0x8, addend: 0x0, symName: __ZNKSt3__111__wrap_iterIPKP13IGameObserverE4baseB8ue170006Ev, symObjAddr: 0x2450, symBinAddr: 0x10000E5D0, symSize: 0x18 }
  - { offset: 0x2F552, size: 0x8, addend: 0x0, symName: __ZNKSt3__114__move_trivialclB8ue170006IP13IGameObserverS3_Li0EEENS_4pairIPT_PT0_EES6_S6_S8_, symObjAddr: 0x27A4, symBinAddr: 0x10000E76C, symSize: 0x48 }
  - { offset: 0x2F5BA, size: 0x8, addend: 0x0, symName: __ZNSt3__118__unwrap_iter_implINS_11__wrap_iterIPP13IGameObserverEELb1EE8__rewrapB8ue170006ES5_S4_, symObjAddr: 0x2D58, symBinAddr: 0x10000E92C, symSize: 0x5C }
  - { offset: 0x2F5EB, size: 0x8, addend: 0x0, symName: __ZNKSt3__111__wrap_iterIPP13IGameObserverEplB8ue170006El, symObjAddr: 0x2DB4, symBinAddr: 0x10000E988, symSize: 0x3C }
  - { offset: 0x2F62D, size: 0x8, addend: 0x0, symName: __ZNSt3__111__wrap_iterIPP13IGameObserverEpLB8ue170006El, symObjAddr: 0x2E14, symBinAddr: 0x10000E9E8, symSize: 0x28 }
  - { offset: 0x2F666, size: 0x8, addend: 0x0, symName: __ZNSt3__119__to_address_helperINS_11__wrap_iterIPP13IGameObserverEEvE6__callB8ue170006ERKS5_, symObjAddr: 0x2E3C, symBinAddr: 0x10000EA10, symSize: 0x30 }
  - { offset: 0x2F689, size: 0x8, addend: 0x0, symName: __ZNSt3__114pointer_traitsINS_11__wrap_iterIPP13IGameObserverEEE10to_addressB8ue170006ES5_, symObjAddr: 0x2E6C, symBinAddr: 0x10000EA40, symSize: 0x2C }
  - { offset: 0x2F6B6, size: 0x8, addend: 0x0, symName: __ZNKSt3__110__identityclB8ue170006IRP13IGameObserverEEOT_S6_, symObjAddr: 0x2EC4, symBinAddr: 0x10000EA98, symSize: 0x18 }
  - { offset: 0x2F6F3, size: 0x8, addend: 0x0, symName: __ZNSt3__118__unwrap_iter_implINS_11__wrap_iterIPP13IGameObserverEELb1EE8__unwrapB8ue170006ES5_, symObjAddr: 0x2EDC, symBinAddr: 0x10000EAB0, symSize: 0x28 }
  - { offset: 0x2F716, size: 0x8, addend: 0x0, symName: __ZNSt3__111__wrap_iterIPKP13IGameObserverEC2B8ue170006IPS2_EERKNS0_IT_EEPNS_9enable_ifIXsr14is_convertibleIS8_S4_EE5valueEvE4typeE, symObjAddr: 0x2F4C, symBinAddr: 0x10000EAD8, symSize: 0x40 }
  - { offset: 0x2F761, size: 0x8, addend: 0x0, symName: __ZNSt3__16vectorIP13IGameObserverNS_9allocatorIS2_EEEC2B8ue170006Ev, symObjAddr: 0x2F8C, symBinAddr: 0x10000EB18, symSize: 0x4C }
  - { offset: 0x2F791, size: 0x8, addend: 0x0, symName: __ZNSt3__117__compressed_pairIPP13IGameObserverNS_9allocatorIS2_EEEC1B8ue170006IDnNS_18__default_init_tagEEEOT_OT0_, symObjAddr: 0x2FD8, symBinAddr: 0x10000EB64, symSize: 0x3C }
  - { offset: 0x2F7E9, size: 0x8, addend: 0x0, symName: __ZNSt3__117__compressed_pairIPP13IGameObserverNS_9allocatorIS2_EEEC2B8ue170006IDnNS_18__default_init_tagEEEOT_OT0_, symObjAddr: 0x3014, symBinAddr: 0x10000EBA0, symSize: 0x40 }
  - { offset: 0x2F841, size: 0x8, addend: 0x0, symName: __ZNSt3__122__compressed_pair_elemINS_9allocatorIP13IGameObserverEELi1ELb1EEC2B8ue170006ENS_18__default_init_tagE, symObjAddr: 0x3054, symBinAddr: 0x10000EBE0, symSize: 0x2C }
  - { offset: 0x2F875, size: 0x8, addend: 0x0, symName: __ZNSt3__19allocatorIP13IGameObserverEC2B8ue170006Ev, symObjAddr: 0x3080, symBinAddr: 0x10000EC0C, symSize: 0x2C }
  - { offset: 0x2F89F, size: 0x8, addend: 0x0, symName: __ZNSt3__116__non_trivial_ifILb1ENS_9allocatorIP13IGameObserverEEEC2B8ue170006Ev, symObjAddr: 0x30AC, symBinAddr: 0x10000EC38, symSize: 0x14 }
  - { offset: 0x2F8C9, size: 0x8, addend: 0x0, symName: __ZNSt3__16vectorIP13IGameObserverNS_9allocatorIS2_EEED2B8ue170006Ev, symObjAddr: 0x30EC, symBinAddr: 0x10000EC4C, symSize: 0x44 }
  - { offset: 0x2F8F3, size: 0x8, addend: 0x0, symName: __ZNSt3__16vectorIP13IGameObserverNS_9allocatorIS2_EEE16__destroy_vectorC1B8ue170006ERS5_, symObjAddr: 0x3130, symBinAddr: 0x10000EC90, symSize: 0x34 }
  - { offset: 0x2F92C, size: 0x8, addend: 0x0, symName: __ZNSt3__16vectorIP13IGameObserverNS_9allocatorIS2_EEE16__destroy_vectorclB8ue170006Ev, symObjAddr: 0x3164, symBinAddr: 0x10000ECC4, symSize: 0x90 }
  - { offset: 0x2F952, size: 0x8, addend: 0x0, symName: __ZNSt3__16vectorIP13IGameObserverNS_9allocatorIS2_EEE16__destroy_vectorC2B8ue170006ERS5_, symObjAddr: 0x31F4, symBinAddr: 0x10000ED54, symSize: 0x20 }
  - { offset: 0x318B2, size: 0x8, addend: 0x0, symName: __ZN6EntityC2Ev, symObjAddr: 0x0, symBinAddr: 0x10000ED74, symSize: 0xAC }
  - { offset: 0x326CB, size: 0x8, addend: 0x0, symName: __ZN6EntityC2Ev, symObjAddr: 0x0, symBinAddr: 0x10000ED74, symSize: 0xAC }
  - { offset: 0x326F7, size: 0x8, addend: 0x0, symName: __ZN2sf8DrawableC2Ev, symObjAddr: 0xAC, symBinAddr: 0x10000EE20, symSize: 0x24 }
  - { offset: 0x32723, size: 0x8, addend: 0x0, symName: __ZN2sf7Vector2IfEC1Ev, symObjAddr: 0xD0, symBinAddr: 0x10000EE44, symSize: 0x2C }
  - { offset: 0x3274F, size: 0x8, addend: 0x0, symName: __ZN2sf6SpriteD1Ev, symObjAddr: 0xFC, symBinAddr: 0x10000EE70, symSize: 0x2C }
  - { offset: 0x3277B, size: 0x8, addend: 0x0, symName: __ZN2sf8DrawableD2Ev, symObjAddr: 0x128, symBinAddr: 0x10000EE9C, symSize: 0x14 }
  - { offset: 0x327A5, size: 0x8, addend: 0x0, symName: __ZN6EntityC1Ev, symObjAddr: 0x13C, symBinAddr: 0x10000EEB0, symSize: 0x2C }
  - { offset: 0x327D1, size: 0x8, addend: 0x0, symName: __ZN6EntityD2Ev, symObjAddr: 0x168, symBinAddr: 0x10000EEDC, symSize: 0x48 }
  - { offset: 0x327FD, size: 0x8, addend: 0x0, symName: __ZN6EntityD1Ev, symObjAddr: 0x1B0, symBinAddr: 0x10000EF24, symSize: 0x2C }
  - { offset: 0x32829, size: 0x8, addend: 0x0, symName: __ZN6EntityD0Ev, symObjAddr: 0x1DC, symBinAddr: 0x10000EF50, symSize: 0x30 }
  - { offset: 0x32855, size: 0x8, addend: 0x0, symName: __ZN2sf6SpriteD2Ev, symObjAddr: 0x294, symBinAddr: 0x10000EF80, symSize: 0x38 }
  - { offset: 0x32881, size: 0x8, addend: 0x0, symName: __ZThn8_N2sf6SpriteD1Ev, symObjAddr: 0x2CC, symBinAddr: 0x10000EFB8, symSize: 0x1C }
  - { offset: 0x32897, size: 0x8, addend: 0x0, symName: __ZN2sf7Vector2IfEC2Ev, symObjAddr: 0x2E8, symBinAddr: 0x10000EFD4, symSize: 0x20 }
  - { offset: 0x5A87A, size: 0x8, addend: 0x0, symName: __ZNSt3__17advanceB8ue170006IPKN16MonsterGenerator4TypeEllvEEvRT_T0_, symObjAddr: 0x3F6C, symBinAddr: 0x100011D94, symSize: 0x38 }
  - { offset: 0x5A905, size: 0x8, addend: 0x0, symName: __ZNSt3__19__shuffleB8ue170006INS_17_ClassicAlgPolicyENS_11__wrap_iterIPN16MonsterGenerator4TypeEEES6_RNS_23mersenne_twister_engineIjLm32ELm624ELm397ELm31ELj2567483615ELm11ELj4294967295ELm7ELj2636928640ELm15ELj4022730752ELm18ELj1812433253EEEEET0_SA_T1_OT2_, symObjAddr: 0x4220, symBinAddr: 0x100011FB4, symSize: 0x13C }
  - { offset: 0x5BD3E, size: 0x8, addend: 0x0, symName: __ZNSt3__17shuffleB8ue170006INS_11__wrap_iterIPN16MonsterGenerator4TypeEEERNS_23mersenne_twister_engineIjLm32ELm624ELm397ELm31ELj2567483615ELm11ELj4294967295ELm7ELj2636928640ELm15ELj4022730752ELm18ELj1812433253EEEEEvT_S9_OT0_, symObjAddr: 0x3D4, symBinAddr: 0x10000F3C8, symSize: 0x48 }
  - { offset: 0x5BD94, size: 0x8, addend: 0x0, symName: __ZNSt3__1lsB8ue170006INS_11char_traitsIcEEEERNS_13basic_ostreamIcT_EES6_c, symObjAddr: 0x9F0, symBinAddr: 0x10000F9E4, symSize: 0x34 }
  - { offset: 0x5BDDA, size: 0x8, addend: 0x0, symName: __ZNSt3__122__make_exception_guardB8ue170006INS_6vectorIN16MonsterGenerator4TypeENS_9allocatorIS3_EEE16__destroy_vectorEEENS_28__exception_guard_exceptionsIT_EES9_, symObjAddr: 0x2448, symBinAddr: 0x100010628, symSize: 0x40 }
  - { offset: 0x5BE0F, size: 0x8, addend: 0x0, symName: __ZNSt3__119__allocate_at_leastB8ue170006INS_9allocatorIN16MonsterGenerator4TypeEEEEENS_19__allocation_resultINS_16allocator_traitsIT_E7pointerEEERS7_m, symObjAddr: 0x2848, symBinAddr: 0x100010A28, symSize: 0x40 }
  - { offset: 0x5BE52, size: 0x8, addend: 0x0, symName: __ZNSt3__112__to_addressB8ue170006IN16MonsterGenerator4TypeEEEPT_S4_, symObjAddr: 0x2E1C, symBinAddr: 0x100010D4C, symSize: 0x14 }
  - { offset: 0x5BE87, size: 0x8, addend: 0x0, symName: __ZNSt3__130__uninitialized_allocator_copyB8ue170006INS_9allocatorIN16MonsterGenerator4TypeEEEPKS3_S6_PS3_EET2_RT_T0_T1_S8_, symObjAddr: 0x2ECC, symBinAddr: 0x100010DFC, symSize: 0x80 }
  - { offset: 0x5BF24, size: 0x8, addend: 0x0, symName: __ZNSt3__114__unwrap_rangeB8ue170006IPKN16MonsterGenerator4TypeES4_EENS_4pairIT0_S6_EET_S8_, symObjAddr: 0x2FBC, symBinAddr: 0x100010EEC, symSize: 0x60 }
  - { offset: 0x5BF70, size: 0x8, addend: 0x0, symName: __ZNSt3__135__uninitialized_allocator_copy_implB8ue170006INS_9allocatorIN16MonsterGenerator4TypeEEEKS3_S3_S3_LPv0EEEPT2_RT_PT0_SC_S8_, symObjAddr: 0x301C, symBinAddr: 0x100010F4C, symSize: 0x38 }
  - { offset: 0x5BFF1, size: 0x8, addend: 0x0, symName: __ZNSt3__113__unwrap_iterB8ue170006IPN16MonsterGenerator4TypeENS_18__unwrap_iter_implIS3_Lb1EEELi0EEEDTclsrT0_8__unwrapclsr3stdE7declvalIT_EEEES7_, symObjAddr: 0x3054, symBinAddr: 0x100010F84, symSize: 0x24 }
  - { offset: 0x5C035, size: 0x8, addend: 0x0, symName: __ZNSt3__113__rewrap_iterB8ue170006IPN16MonsterGenerator4TypeES3_NS_18__unwrap_iter_implIS3_Lb1EEEEET_S6_T0_, symObjAddr: 0x3078, symBinAddr: 0x100010FA8, symSize: 0x3C }
  - { offset: 0x5C08A, size: 0x8, addend: 0x0, symName: __ZNSt3__19make_pairB8ue170006IPKN16MonsterGenerator4TypeES4_EENS_4pairINS_18__unwrap_ref_decayIT_E4typeENS6_IT0_E4typeEEEOS7_OSA_, symObjAddr: 0x30B4, symBinAddr: 0x100010FE4, symSize: 0x38 }
  - { offset: 0x5C0D9, size: 0x8, addend: 0x0, symName: __ZNSt3__113__unwrap_iterB8ue170006IPKN16MonsterGenerator4TypeENS_18__unwrap_iter_implIS4_Lb1EEELi0EEEDTclsrT0_8__unwrapclsr3stdE7declvalIT_EEEES8_, symObjAddr: 0x30EC, symBinAddr: 0x10001101C, symSize: 0x24 }
  - { offset: 0x5C244, size: 0x8, addend: 0x0, symName: __ZNSt3__112__to_addressB8ue170006IKN16MonsterGenerator4TypeEEEPT_S5_, symObjAddr: 0x31A4, symBinAddr: 0x1000110D4, symSize: 0x14 }
  - { offset: 0x5C279, size: 0x8, addend: 0x0, symName: __ZNSt3__14copyB8ue170006IPKN16MonsterGenerator4TypeEPS2_EET0_T_S7_S6_, symObjAddr: 0x31B8, symBinAddr: 0x1000110E8, symSize: 0x40 }
  - { offset: 0x5C2D3, size: 0x8, addend: 0x0, symName: __ZNSt3__16__copyB8ue170006INS_17_ClassicAlgPolicyEPKN16MonsterGenerator4TypeES5_PS3_EENS_4pairIT0_T2_EES8_T1_S9_, symObjAddr: 0x31F8, symBinAddr: 0x100011128, symSize: 0x44 }
  - { offset: 0x5C33F, size: 0x8, addend: 0x0, symName: __ZNSt3__123__dispatch_copy_or_moveB8ue170006INS_17_ClassicAlgPolicyENS_11__copy_loopIS1_EENS_14__copy_trivialEPKN16MonsterGenerator4TypeES8_PS6_EENS_4pairIT2_T4_EESB_T3_SC_, symObjAddr: 0x323C, symBinAddr: 0x10001116C, symSize: 0x44 }
  - { offset: 0x5C3BD, size: 0x8, addend: 0x0, symName: __ZNSt3__121__unwrap_and_dispatchB8ue170006INS_10__overloadINS_11__copy_loopINS_17_ClassicAlgPolicyEEENS_14__copy_trivialEEEPKN16MonsterGenerator4TypeESA_PS8_Li0EEENS_4pairIT0_T2_EESD_T1_SE_, symObjAddr: 0x3280, symBinAddr: 0x1000111B0, symSize: 0xB4 }
  - { offset: 0x5C60C, size: 0x8, addend: 0x0, symName: __ZNSt3__19make_pairB8ue170006IPKN16MonsterGenerator4TypeEPS2_EENS_4pairINS_18__unwrap_ref_decayIT_E4typeENS7_IT0_E4typeEEEOS8_OSB_, symObjAddr: 0x337C, symBinAddr: 0x1000112AC, symSize: 0x38 }
  - { offset: 0x5C65B, size: 0x8, addend: 0x0, symName: __ZNSt3__114__rewrap_rangeB8ue170006IPKN16MonsterGenerator4TypeES4_EET_S5_T0_, symObjAddr: 0x33B4, symBinAddr: 0x1000112E4, symSize: 0x2C }
  - { offset: 0x5C6A7, size: 0x8, addend: 0x0, symName: __ZNSt3__119__copy_trivial_implB8ue170006IKN16MonsterGenerator4TypeES2_EENS_4pairIPT_PT0_EES6_S6_S8_, symObjAddr: 0x33E0, symBinAddr: 0x100011310, symSize: 0x80 }
  - { offset: 0x5C70F, size: 0x8, addend: 0x0, symName: __ZNSt3__119__constexpr_memmoveB8ue170006IN16MonsterGenerator4TypeEKS2_Li0EEEPT_S5_PT0_NS_15__element_countE, symObjAddr: 0x3460, symBinAddr: 0x100011390, symSize: 0x64 }
  - { offset: 0x5C77D, size: 0x8, addend: 0x0, symName: __ZNSt3__19make_pairB8ue170006IRPKN16MonsterGenerator4TypeEPS2_EENS_4pairINS_18__unwrap_ref_decayIT_E4typeENS8_IT0_E4typeEEEOS9_OSC_, symObjAddr: 0x34C4, symBinAddr: 0x1000113F4, symSize: 0x38 }
  - { offset: 0x5C7CC, size: 0x8, addend: 0x0, symName: __ZNSt3__113__rewrap_iterB8ue170006IPKN16MonsterGenerator4TypeES4_NS_18__unwrap_iter_implIS4_Lb1EEEEET_S7_T0_, symObjAddr: 0x35DC, symBinAddr: 0x10001150C, symSize: 0x3C }
  - { offset: 0x5C874, size: 0x8, addend: 0x0, symName: __ZNSt3__18distanceB8ue170006IPKN16MonsterGenerator4TypeEEENS_15iterator_traitsIT_E15difference_typeES6_S6_, symObjAddr: 0x3D78, symBinAddr: 0x100011BA0, symSize: 0x2C }
  - { offset: 0x5C8B7, size: 0x8, addend: 0x0, symName: __ZNSt3__14nextB8ue170006IPKN16MonsterGenerator4TypeEEENS_9enable_ifIXsr29__has_input_iterator_categoryIT_EE5valueES6_E4typeES6_NS_15iterator_traitsIS6_E15difference_typeE, symObjAddr: 0x3DA4, symBinAddr: 0x100011BCC, symSize: 0x34 }
  - { offset: 0x5C8FA, size: 0x8, addend: 0x0, symName: __ZNSt3__19__advanceB8ue170006IPKN16MonsterGenerator4TypeEEEvRT_NS_15iterator_traitsIS5_E15difference_typeENS_26random_access_iterator_tagE, symObjAddr: 0x3FB8, symBinAddr: 0x100011DCC, symSize: 0x28 }
  - { offset: 0x5C943, size: 0x8, addend: 0x0, symName: __ZNSt3__110__distanceB8ue170006IPKN16MonsterGenerator4TypeEEENS_15iterator_traitsIT_E15difference_typeES6_S6_NS_26random_access_iterator_tagE, symObjAddr: 0x4060, symBinAddr: 0x100011DF4, symSize: 0x28 }
  - { offset: 0x5CA12, size: 0x8, addend: 0x0, symName: __ZNSt3__1miB8ue170006IPN16MonsterGenerator4TypeES3_EEDTmicldtfp_4baseEcldtfp0_4baseEERKNS_11__wrap_iterIT_EERKNS5_IT0_EE, symObjAddr: 0x437C, symBinAddr: 0x100012110, symSize: 0x48 }
  - { offset: 0x5CA5E, size: 0x8, addend: 0x0, symName: __ZNSt3__1ltB8ue170006IPN16MonsterGenerator4TypeEEEbRKNS_11__wrap_iterIT_EES8_, symObjAddr: 0x4420, symBinAddr: 0x1000121B4, symSize: 0x48 }
  - { offset: 0x5CAA1, size: 0x8, addend: 0x0, symName: __ZNSt3__113__countl_zeroB8ue170006ImEEiT_, symObjAddr: 0x47D8, symBinAddr: 0x10001256C, symSize: 0x54 }
  - { offset: 0x5CAD6, size: 0x8, addend: 0x0, symName: __ZNSt3__112__libcpp_clzB8ue170006Em, symObjAddr: 0x4E70, symBinAddr: 0x100012C04, symSize: 0x1C }
  - { offset: 0x5CB02, size: 0x8, addend: 0x0, symName: __ZNSt3__19iter_swapB8ue170006INS_11__wrap_iterIPN16MonsterGenerator4TypeEEES5_EEvT_T0_, symObjAddr: 0x4EC0, symBinAddr: 0x100012C54, symSize: 0x50 }
  - { offset: 0x5CB4A, size: 0x8, addend: 0x0, symName: __ZNSt3__14swapB8ue170006IN16MonsterGenerator4TypeEEENS_9enable_ifIXaasr21is_move_constructibleIT_EE5valuesr18is_move_assignableIS4_EE5valueEvE4typeERS4_S7_, symObjAddr: 0x4F10, symBinAddr: 0x100012CA4, symSize: 0x3C }
  - { offset: 0x5CB9B, size: 0x8, addend: 0x0, symName: __ZNSt3__122__make_exception_guardB8ue170006INS_6vectorIP13IGameObserverNS_9allocatorIS3_EEE16__destroy_vectorEEENS_28__exception_guard_exceptionsIT_EES9_, symObjAddr: 0x5A1C, symBinAddr: 0x100013488, symSize: 0x40 }
  - { offset: 0x5CBD0, size: 0x8, addend: 0x0, symName: __ZNSt3__122__make_exception_guardB8ue170006INS_6vectorIN2sf6VertexENS_9allocatorIS3_EEE16__destroy_vectorEEENS_28__exception_guard_exceptionsIT_EES9_, symObjAddr: 0x6F44, symBinAddr: 0x100013A48, symSize: 0x40 }
  - { offset: 0x5CC05, size: 0x8, addend: 0x0, symName: __ZNSt3__119__allocate_at_leastB8ue170006INS_9allocatorI7MonsterEEEENS_19__allocation_resultINS_16allocator_traitsIT_E7pointerEEERS6_m, symObjAddr: 0x862C, symBinAddr: 0x1000141A0, symSize: 0x40 }
  - { offset: 0x5CC48, size: 0x8, addend: 0x0, symName: __ZNSt3__142__uninitialized_allocator_move_if_noexceptB8ue170006INS_9allocatorI7MonsterEENS_16reverse_iteratorIPS2_EES6_S6_EET2_RT_T0_T1_S7_, symObjAddr: 0x88D4, symBinAddr: 0x100014448, symSize: 0x12C }
  - { offset: 0x5CCE8, size: 0x8, addend: 0x0, symName: __ZNSt3__14swapB8ue170006IP7MonsterEENS_9enable_ifIXaasr21is_move_constructibleIT_EE5valuesr18is_move_assignableIS4_EE5valueEvE4typeERS4_S7_, symObjAddr: 0x8A4C, symBinAddr: 0x1000145C0, symSize: 0x3C }
  - { offset: 0x5CD39, size: 0x8, addend: 0x0, symName: __ZNSt3__122__make_exception_guardB8ue170006INS_29_AllocatorDestroyRangeReverseINS_9allocatorI7MonsterEENS_16reverse_iteratorIPS3_EEEEEENS_28__exception_guard_exceptionsIT_EESA_, symObjAddr: 0x8B98, symBinAddr: 0x1000146C4, symSize: 0x4C }
  - { offset: 0x5CD6F, size: 0x8, addend: 0x0, symName: __ZNSt3__1neB8ue170006IP7MonsterS2_EEbRKNS_16reverse_iteratorIT_EERKNS3_IT0_EE, symObjAddr: 0x8C28, symBinAddr: 0x100014754, symSize: 0x48 }
  - { offset: 0x5CDBB, size: 0x8, addend: 0x0, symName: __ZNSt3__112__to_addressB8ue170006INS_16reverse_iteratorIP7MonsterEEvEEu7__decayIDTclsr19__to_address_helperIT_EE6__callclsr3stdE7declvalIRKS5_EEEEES7_, symObjAddr: 0x8CA4, symBinAddr: 0x1000147D0, symSize: 0x24 }
  - { offset: 0x5CE1A, size: 0x8, addend: 0x0, symName: __ZNSt3__119__allocator_destroyB8ue170006INS_9allocatorI7MonsterEENS_16reverse_iteratorINS4_IPS2_EEEES7_EEvRT_T0_T1_, symObjAddr: 0x8F84, symBinAddr: 0x100014AB0, symSize: 0x70 }
  - { offset: 0x5CE7F, size: 0x8, addend: 0x0, symName: __ZNSt3__1neB8ue170006INS_16reverse_iteratorIP7MonsterEES4_EEbRKNS1_IT_EERKNS1_IT0_EE, symObjAddr: 0x9030, symBinAddr: 0x100014B5C, symSize: 0x60 }
  - { offset: 0x5CECB, size: 0x8, addend: 0x0, symName: __ZNSt3__112__to_addressB8ue170006INS_16reverse_iteratorINS1_IP7MonsterEEEEvEEu7__decayIDTclsr19__to_address_helperIT_EE6__callclsr3stdE7declvalIRKS6_EEEEES8_, symObjAddr: 0x90BC, symBinAddr: 0x100014BBC, symSize: 0x24 }
  - { offset: 0x6528D, size: 0x8, addend: 0x0, symName: __ZNSt3__124uniform_int_distributionIlEclINS_23mersenne_twister_engineIjLm32ELm624ELm397ELm31ELj2567483615ELm11ELj4294967295ELm7ELj2636928640ELm15ELj4022730752ELm18ELj1812433253EEEEElRT_RKNS1_10param_typeE, symObjAddr: 0x4468, symBinAddr: 0x1000121FC, symSize: 0x174 }
  - { offset: 0x6533F, size: 0x8, addend: 0x0, symName: __Z3powB8ue170006IidENSt3__19enable_ifIXaasr3std13is_arithmeticIT_EE5valuesr3std13is_arithmeticIT0_EE5valueENS0_9__promoteIS2_S3_vEEE4type4typeES2_S3_, symObjAddr: 0xA94, symBinAddr: 0x10000FA40, symSize: 0x38 }
  - { offset: 0x653DD, size: 0x8, addend: 0x0, symName: __ZNSt3__16vectorI7MonsterNS_9allocatorIS1_EEE26__swap_out_circular_bufferERNS_14__split_bufferIS1_RS3_EE, symObjAddr: 0x8214, symBinAddr: 0x100013E28, symSize: 0x110 }
  - { offset: 0x65474, size: 0x8, addend: 0x0, symName: __Z3powB8ue170006IfiENSt3__19enable_ifIXaasr3std13is_arithmeticIT_EE5valuesr3std13is_arithmeticIT0_EE5valueENS0_9__promoteIS2_S3_vEEE4type4typeES2_S3_, symObjAddr: 0x1458, symBinAddr: 0x1000103A4, symSize: 0x3C }
  - { offset: 0x65501, size: 0x8, addend: 0x0, symName: __ZN16MonsterGeneratorC2EiR11MonsterView, symObjAddr: 0x0, symBinAddr: 0x10000EFF4, symSize: 0xCC }
  - { offset: 0x65549, size: 0x8, addend: 0x0, symName: __ZNSt3__16vectorIN16MonsterGenerator4TypeENS_9allocatorIS2_EEEC1B8ue170006ESt16initializer_listIS2_E, symObjAddr: 0xCC, symBinAddr: 0x10000F0C0, symSize: 0x3C }
  - { offset: 0x65584, size: 0x8, addend: 0x0, symName: __ZN16MonsterGeneratorC1EiR11MonsterView, symObjAddr: 0x108, symBinAddr: 0x10000F0FC, symSize: 0x3C }
  - { offset: 0x655CC, size: 0x8, addend: 0x0, symName: __ZN16MonsterGenerator19updateMonsterRosterEv, symObjAddr: 0x144, symBinAddr: 0x10000F138, symSize: 0x144 }
  - { offset: 0x65611, size: 0x8, addend: 0x0, symName: __ZNSt3__16vectorIN16MonsterGenerator4TypeENS_9allocatorIS2_EEE5clearB8ue170006Ev, symObjAddr: 0x288, symBinAddr: 0x10000F27C, symSize: 0x44 }
  - { offset: 0x65646, size: 0x8, addend: 0x0, symName: __ZNSt3__16vectorIN16MonsterGenerator4TypeENS_9allocatorIS2_EEEaSB8ue170006ESt16initializer_listIS2_E, symObjAddr: 0x2CC, symBinAddr: 0x10000F2C0, symSize: 0x60 }
  - { offset: 0x65695, size: 0x8, addend: 0x0, symName: __ZNSt3__113random_deviceC1B8ue170006Ev, symObjAddr: 0x32C, symBinAddr: 0x10000F320, symSize: 0x74 }
  - { offset: 0x656BF, size: 0x8, addend: 0x0, symName: __ZNSt3__123mersenne_twister_engineIjLm32ELm624ELm397ELm31ELj2567483615ELm11ELj4294967295ELm7ELj2636928640ELm15ELj4022730752ELm18ELj1812433253EEC1B8ue170006Ej, symObjAddr: 0x3A0, symBinAddr: 0x10000F394, symSize: 0x34 }
  - { offset: 0x656F7, size: 0x8, addend: 0x0, symName: __ZNSt3__16vectorIN16MonsterGenerator4TypeENS_9allocatorIS2_EEE5beginB8ue170006Ev, symObjAddr: 0x41C, symBinAddr: 0x10000F410, symSize: 0x30 }
  - { offset: 0x6571F, size: 0x8, addend: 0x0, symName: __ZNSt3__16vectorIN16MonsterGenerator4TypeENS_9allocatorIS2_EEE3endB8ue170006Ev, symObjAddr: 0x44C, symBinAddr: 0x10000F440, symSize: 0x30 }
  - { offset: 0x65747, size: 0x8, addend: 0x0, symName: __ZN16MonsterGenerator15getWaveStrengthENS_4TypeE, symObjAddr: 0x47C, symBinAddr: 0x10000F470, symSize: 0x98 }
  - { offset: 0x6578B, size: 0x8, addend: 0x0, symName: __ZN16MonsterGenerator15generateMonsterER4Game, symObjAddr: 0x528, symBinAddr: 0x10000F51C, symSize: 0x498 }
  - { offset: 0x65800, size: 0x8, addend: 0x0, symName: __ZNSt3__16vectorIN16MonsterGenerator4TypeENS_9allocatorIS2_EEE4backB8ue170006Ev, symObjAddr: 0x9D4, symBinAddr: 0x10000F9C8, symSize: 0x1C }
  - { offset: 0x65826, size: 0x8, addend: 0x0, symName: __ZNKSt3__16vectorIN16MonsterGenerator4TypeENS_9allocatorIS2_EEE4sizeB8ue170006Ev, symObjAddr: 0xA6C, symBinAddr: 0x10000FA18, symSize: 0x28 }
  - { offset: 0x6584C, size: 0x8, addend: 0x0, symName: __ZN7Monster14SetMonsterTypeEN16MonsterGenerator4TypeE, symObjAddr: 0xACC, symBinAddr: 0x10000FA78, symSize: 0x30 }
  - { offset: 0x65880, size: 0x8, addend: 0x0, symName: __ZN16MonsterGenerator18updateMonsterStatsILNS_4TypeE0EEEvR7Monster, symObjAddr: 0xAFC, symBinAddr: 0x10000FAA8, symSize: 0x150 }
  - { offset: 0x658BE, size: 0x8, addend: 0x0, symName: __ZN16MonsterGenerator18updateMonsterStatsILNS_4TypeE1EEEvR7Monster, symObjAddr: 0xC4C, symBinAddr: 0x10000FBF8, symSize: 0x154 }
  - { offset: 0x658FC, size: 0x8, addend: 0x0, symName: __ZN16MonsterGenerator18updateMonsterStatsILNS_4TypeE2EEEvR7Monster, symObjAddr: 0xDA0, symBinAddr: 0x10000FD4C, symSize: 0x154 }
  - { offset: 0x6593A, size: 0x8, addend: 0x0, symName: __ZN16MonsterGenerator18updateMonsterStatsILNS_4TypeE3EEEvR7Monster, symObjAddr: 0xEF4, symBinAddr: 0x10000FEA0, symSize: 0x158 }
  - { offset: 0x65978, size: 0x8, addend: 0x0, symName: __ZN16MonsterGenerator18updateMonsterStatsILNS_4TypeE4EEEvR7Monster, symObjAddr: 0x104C, symBinAddr: 0x10000FFF8, symSize: 0x154 }
  - { offset: 0x659B6, size: 0x8, addend: 0x0, symName: __ZN10GUIManager11GetMapSetupEv, symObjAddr: 0x11D0, symBinAddr: 0x10001014C, symSize: 0x28 }
  - { offset: 0x659DC, size: 0x8, addend: 0x0, symName: __ZNK8MapSetup12GetEntryTileEv, symObjAddr: 0x11F8, symBinAddr: 0x100010174, symSize: 0x24 }
  - { offset: 0x65A02, size: 0x8, addend: 0x0, symName: __ZN7Monster19SetCurrentPathIndexEm, symObjAddr: 0x121C, symBinAddr: 0x100010198, symSize: 0x30 }
  - { offset: 0x65A36, size: 0x8, addend: 0x0, symName: __ZNSt3__16vectorI7MonsterNS_9allocatorIS1_EEE12emplace_backIJRS1_EEES6_DpOT_, symObjAddr: 0x124C, symBinAddr: 0x1000101C8, symSize: 0x74 }
  - { offset: 0x65A78, size: 0x8, addend: 0x0, symName: __ZNK7Monster8GetSpeedEv, symObjAddr: 0x12D8, symBinAddr: 0x10001023C, symSize: 0x18 }
  - { offset: 0x65A9E, size: 0x8, addend: 0x0, symName: __ZNK7Monster11GetStrengthEv, symObjAddr: 0x12F0, symBinAddr: 0x100010254, symSize: 0x18 }
  - { offset: 0x65AC4, size: 0x8, addend: 0x0, symName: __ZN16MonsterGenerator31updateNextRoundMonsterGeneratorEv, symObjAddr: 0x1320, symBinAddr: 0x10001026C, symSize: 0x8C }
  - { offset: 0x65AEC, size: 0x8, addend: 0x0, symName: __ZNSt3__16vectorIN16MonsterGenerator4TypeENS_9allocatorIS2_EEE8pop_backEv, symObjAddr: 0x13AC, symBinAddr: 0x1000102F8, symSize: 0x2C }
  - { offset: 0x65B14, size: 0x8, addend: 0x0, symName: __ZNKSt3__16vectorIN16MonsterGenerator4TypeENS_9allocatorIS2_EEE5emptyB8ue170006Ev, symObjAddr: 0x13D8, symBinAddr: 0x100010324, symSize: 0x28 }
  - { offset: 0x65B3A, size: 0x8, addend: 0x0, symName: __ZN16MonsterGenerator21getLevelUpRateAtLevelEif, symObjAddr: 0x1400, symBinAddr: 0x10001034C, symSize: 0x58 }
  - { offset: 0x65B83, size: 0x8, addend: 0x0, symName: __ZNSt3__112basic_stringIcNS_11char_traitsIcEENS_9allocatorIcEEEC1B8ue170006ILi0EEEPKc, symObjAddr: 0x1494, symBinAddr: 0x1000103E0, symSize: 0x34 }
  - { offset: 0x65BC2, size: 0x8, addend: 0x0, symName: __ZNSt3__112basic_stringIcNS_11char_traitsIcEENS_9allocatorIcEEEC2B8ue170006ILi0EEEPKc, symObjAddr: 0x14C8, symBinAddr: 0x100010414, symSize: 0x58 }
  - { offset: 0x65C07, size: 0x8, addend: 0x0, symName: __ZNKSt3__110unique_ptrI8MapSetupNS_14default_deleteIS1_EEE3getB8ue170006Ev, symObjAddr: 0x18C4, symBinAddr: 0x10001046C, symSize: 0x28 }
  - { offset: 0x65C2D, size: 0x8, addend: 0x0, symName: __ZNKSt3__117__compressed_pairIP8MapSetupNS_14default_deleteIS1_EEE5firstB8ue170006Ev, symObjAddr: 0x18EC, symBinAddr: 0x100010494, symSize: 0x24 }
  - { offset: 0x65C53, size: 0x8, addend: 0x0, symName: __ZNKSt3__122__compressed_pair_elemIP8MapSetupLi0ELb0EE5__getB8ue170006Ev, symObjAddr: 0x1910, symBinAddr: 0x1000104B8, symSize: 0x14 }
  - { offset: 0x65C9A, size: 0x8, addend: 0x0, symName: __ZNSt3__16vectorIN16MonsterGenerator4TypeENS_9allocatorIS2_EEEC2B8ue170006ESt16initializer_listIS2_E, symObjAddr: 0x22EC, symBinAddr: 0x1000104CC, symSize: 0x120 }
  - { offset: 0x65CF0, size: 0x8, addend: 0x0, symName: __ZNSt3__117__compressed_pairIPN16MonsterGenerator4TypeENS_9allocatorIS2_EEEC1B8ue170006IDnNS_18__default_init_tagEEEOT_OT0_, symObjAddr: 0x240C, symBinAddr: 0x1000105EC, symSize: 0x3C }
  - { offset: 0x65D48, size: 0x8, addend: 0x0, symName: __ZNSt3__16vectorIN16MonsterGenerator4TypeENS_9allocatorIS2_EEE16__destroy_vectorC1B8ue170006ERS5_, symObjAddr: 0x2488, symBinAddr: 0x100010668, symSize: 0x34 }
  - { offset: 0x65D81, size: 0x8, addend: 0x0, symName: __ZNKSt16initializer_listIN16MonsterGenerator4TypeEE4sizeB8ue170006Ev, symObjAddr: 0x24BC, symBinAddr: 0x10001069C, symSize: 0x18 }
  - { offset: 0x65DA7, size: 0x8, addend: 0x0, symName: __ZNSt3__16vectorIN16MonsterGenerator4TypeENS_9allocatorIS2_EEE11__vallocateB8ue170006Em, symObjAddr: 0x24D4, symBinAddr: 0x1000106B4, symSize: 0xAC }
  - { offset: 0x65DEB, size: 0x8, addend: 0x0, symName: __ZNSt3__16vectorIN16MonsterGenerator4TypeENS_9allocatorIS2_EEE18__construct_at_endIPKS2_S8_EEvT_T0_m, symObjAddr: 0x2580, symBinAddr: 0x100010760, symSize: 0x8C }
  - { offset: 0x65E61, size: 0x8, addend: 0x0, symName: __ZNKSt16initializer_listIN16MonsterGenerator4TypeEE5beginB8ue170006Ev, symObjAddr: 0x260C, symBinAddr: 0x1000107EC, symSize: 0x18 }
  - { offset: 0x65E87, size: 0x8, addend: 0x0, symName: __ZNKSt16initializer_listIN16MonsterGenerator4TypeEE3endB8ue170006Ev, symObjAddr: 0x2624, symBinAddr: 0x100010804, symSize: 0x20 }
  - { offset: 0x65EAD, size: 0x8, addend: 0x0, symName: __ZNSt3__128__exception_guard_exceptionsINS_6vectorIN16MonsterGenerator4TypeENS_9allocatorIS3_EEE16__destroy_vectorEE10__completeB8ue170006Ev, symObjAddr: 0x2644, symBinAddr: 0x100010824, symSize: 0x1C }
  - { offset: 0x65ED3, size: 0x8, addend: 0x0, symName: __ZNSt3__128__exception_guard_exceptionsINS_6vectorIN16MonsterGenerator4TypeENS_9allocatorIS3_EEE16__destroy_vectorEED1B8ue170006Ev, symObjAddr: 0x2660, symBinAddr: 0x100010840, symSize: 0x2C }
  - { offset: 0x65EFD, size: 0x8, addend: 0x0, symName: __ZNSt3__117__compressed_pairIPN16MonsterGenerator4TypeENS_9allocatorIS2_EEEC2B8ue170006IDnNS_18__default_init_tagEEEOT_OT0_, symObjAddr: 0x268C, symBinAddr: 0x10001086C, symSize: 0x40 }
  - { offset: 0x65F55, size: 0x8, addend: 0x0, symName: __ZNSt3__122__compressed_pair_elemIPN16MonsterGenerator4TypeELi0ELb0EEC2B8ue170006IDnvEEOT_, symObjAddr: 0x26CC, symBinAddr: 0x1000108AC, symSize: 0x1C }
  - { offset: 0x65F97, size: 0x8, addend: 0x0, symName: __ZNSt3__122__compressed_pair_elemINS_9allocatorIN16MonsterGenerator4TypeEEELi1ELb1EEC2B8ue170006ENS_18__default_init_tagE, symObjAddr: 0x26E8, symBinAddr: 0x1000108C8, symSize: 0x2C }
  - { offset: 0x65FCB, size: 0x8, addend: 0x0, symName: __ZNSt3__19allocatorIN16MonsterGenerator4TypeEEC2B8ue170006Ev, symObjAddr: 0x2714, symBinAddr: 0x1000108F4, symSize: 0x2C }
  - { offset: 0x65FF5, size: 0x8, addend: 0x0, symName: __ZNSt3__116__non_trivial_ifILb1ENS_9allocatorIN16MonsterGenerator4TypeEEEEC2B8ue170006Ev, symObjAddr: 0x2740, symBinAddr: 0x100010920, symSize: 0x14 }
  - { offset: 0x6601F, size: 0x8, addend: 0x0, symName: __ZNSt3__128__exception_guard_exceptionsINS_6vectorIN16MonsterGenerator4TypeENS_9allocatorIS3_EEE16__destroy_vectorEEC1B8ue170006ES7_, symObjAddr: 0x2754, symBinAddr: 0x100010934, symSize: 0x34 }
  - { offset: 0x66057, size: 0x8, addend: 0x0, symName: __ZNSt3__128__exception_guard_exceptionsINS_6vectorIN16MonsterGenerator4TypeENS_9allocatorIS3_EEE16__destroy_vectorEEC2B8ue170006ES7_, symObjAddr: 0x2788, symBinAddr: 0x100010968, symSize: 0x24 }
  - { offset: 0x6608F, size: 0x8, addend: 0x0, symName: __ZNSt3__16vectorIN16MonsterGenerator4TypeENS_9allocatorIS2_EEE16__destroy_vectorC2B8ue170006ERS5_, symObjAddr: 0x27AC, symBinAddr: 0x10001098C, symSize: 0x20 }
  - { offset: 0x660C8, size: 0x8, addend: 0x0, symName: __ZNKSt3__16vectorIN16MonsterGenerator4TypeENS_9allocatorIS2_EEE8max_sizeEv, symObjAddr: 0x27CC, symBinAddr: 0x1000109AC, symSize: 0x60 }
  - { offset: 0x660F0, size: 0x8, addend: 0x0, symName: __ZNKSt3__16vectorIN16MonsterGenerator4TypeENS_9allocatorIS2_EEE20__throw_length_errorB8ue170006Ev, symObjAddr: 0x282C, symBinAddr: 0x100010A0C, symSize: 0x1C }
  - { offset: 0x66116, size: 0x8, addend: 0x0, symName: __ZNSt3__16vectorIN16MonsterGenerator4TypeENS_9allocatorIS2_EEE7__allocB8ue170006Ev, symObjAddr: 0x2888, symBinAddr: 0x100010A68, symSize: 0x28 }
  - { offset: 0x6613C, size: 0x8, addend: 0x0, symName: __ZNSt3__16vectorIN16MonsterGenerator4TypeENS_9allocatorIS2_EEE9__end_capB8ue170006Ev, symObjAddr: 0x28B0, symBinAddr: 0x100010A90, symSize: 0x28 }
  - { offset: 0x66162, size: 0x8, addend: 0x0, symName: __ZNKSt3__16vectorIN16MonsterGenerator4TypeENS_9allocatorIS2_EEE14__annotate_newB8ue170006Em, symObjAddr: 0x28D8, symBinAddr: 0x100010AB8, symSize: 0xAC }
  - { offset: 0x661A2, size: 0x8, addend: 0x0, symName: __ZNSt3__116allocator_traitsINS_9allocatorIN16MonsterGenerator4TypeEEEE8max_sizeB8ue170006IS4_vEEmRKS4_, symObjAddr: 0x29B0, symBinAddr: 0x100010B64, symSize: 0x24 }
  - { offset: 0x661D0, size: 0x8, addend: 0x0, symName: __ZNKSt3__16vectorIN16MonsterGenerator4TypeENS_9allocatorIS2_EEE7__allocB8ue170006Ev, symObjAddr: 0x29D4, symBinAddr: 0x100010B88, symSize: 0x28 }
  - { offset: 0x661F6, size: 0x8, addend: 0x0, symName: __ZNKSt3__19allocatorIN16MonsterGenerator4TypeEE8max_sizeB8ue170006Ev, symObjAddr: 0x2A98, symBinAddr: 0x100010BB0, symSize: 0x14 }
  - { offset: 0x6621C, size: 0x8, addend: 0x0, symName: __ZNKSt3__117__compressed_pairIPN16MonsterGenerator4TypeENS_9allocatorIS2_EEE6secondB8ue170006Ev, symObjAddr: 0x2AAC, symBinAddr: 0x100010BC4, symSize: 0x24 }
  - { offset: 0x66242, size: 0x8, addend: 0x0, symName: __ZNKSt3__122__compressed_pair_elemINS_9allocatorIN16MonsterGenerator4TypeEEELi1ELb1EE5__getB8ue170006Ev, symObjAddr: 0x2AD0, symBinAddr: 0x100010BE8, symSize: 0x14 }
  - { offset: 0x66268, size: 0x8, addend: 0x0, symName: __ZNSt3__19allocatorIN16MonsterGenerator4TypeEE8allocateB8ue170006Em, symObjAddr: 0x2BC8, symBinAddr: 0x100010BFC, symSize: 0x58 }
  - { offset: 0x6629C, size: 0x8, addend: 0x0, symName: __ZNSt3__117__compressed_pairIPN16MonsterGenerator4TypeENS_9allocatorIS2_EEE6secondB8ue170006Ev, symObjAddr: 0x2D24, symBinAddr: 0x100010C54, symSize: 0x24 }
  - { offset: 0x662C2, size: 0x8, addend: 0x0, symName: __ZNSt3__122__compressed_pair_elemINS_9allocatorIN16MonsterGenerator4TypeEEELi1ELb1EE5__getB8ue170006Ev, symObjAddr: 0x2D48, symBinAddr: 0x100010C78, symSize: 0x14 }
  - { offset: 0x662E8, size: 0x8, addend: 0x0, symName: __ZNSt3__117__compressed_pairIPN16MonsterGenerator4TypeENS_9allocatorIS2_EEE5firstB8ue170006Ev, symObjAddr: 0x2D5C, symBinAddr: 0x100010C8C, symSize: 0x24 }
  - { offset: 0x6630E, size: 0x8, addend: 0x0, symName: __ZNSt3__122__compressed_pair_elemIPN16MonsterGenerator4TypeELi0ELb0EE5__getB8ue170006Ev, symObjAddr: 0x2D80, symBinAddr: 0x100010CB0, symSize: 0x14 }
  - { offset: 0x66334, size: 0x8, addend: 0x0, symName: __ZNKSt3__16vectorIN16MonsterGenerator4TypeENS_9allocatorIS2_EEE31__annotate_contiguous_containerB8ue170006EPKvS7_S7_S7_, symObjAddr: 0x2D94, symBinAddr: 0x100010CC4, symSize: 0x20 }
  - { offset: 0x66386, size: 0x8, addend: 0x0, symName: __ZNKSt3__16vectorIN16MonsterGenerator4TypeENS_9allocatorIS2_EEE4dataB8ue170006Ev, symObjAddr: 0x2DB4, symBinAddr: 0x100010CE4, symSize: 0x28 }
  - { offset: 0x663AC, size: 0x8, addend: 0x0, symName: __ZNKSt3__16vectorIN16MonsterGenerator4TypeENS_9allocatorIS2_EEE8capacityB8ue170006Ev, symObjAddr: 0x2DDC, symBinAddr: 0x100010D0C, symSize: 0x40 }
  - { offset: 0x663D2, size: 0x8, addend: 0x0, symName: __ZNKSt3__16vectorIN16MonsterGenerator4TypeENS_9allocatorIS2_EEE9__end_capB8ue170006Ev, symObjAddr: 0x2E30, symBinAddr: 0x100010D60, symSize: 0x28 }
  - { offset: 0x663F8, size: 0x8, addend: 0x0, symName: __ZNKSt3__117__compressed_pairIPN16MonsterGenerator4TypeENS_9allocatorIS2_EEE5firstB8ue170006Ev, symObjAddr: 0x2E58, symBinAddr: 0x100010D88, symSize: 0x24 }
  - { offset: 0x6641E, size: 0x8, addend: 0x0, symName: __ZNKSt3__122__compressed_pair_elemIPN16MonsterGenerator4TypeELi0ELb0EE5__getB8ue170006Ev, symObjAddr: 0x2E7C, symBinAddr: 0x100010DAC, symSize: 0x14 }
  - { offset: 0x6645F, size: 0x8, addend: 0x0, symName: __ZNSt3__16vectorIN16MonsterGenerator4TypeENS_9allocatorIS2_EEE21_ConstructTransactionC1B8ue170006ERS5_m, symObjAddr: 0x2E90, symBinAddr: 0x100010DC0, symSize: 0x3C }
  - { offset: 0x664A7, size: 0x8, addend: 0x0, symName: __ZNSt3__16vectorIN16MonsterGenerator4TypeENS_9allocatorIS2_EEE21_ConstructTransactionD1B8ue170006Ev, symObjAddr: 0x2F4C, symBinAddr: 0x100010E7C, symSize: 0x2C }
  - { offset: 0x664D1, size: 0x8, addend: 0x0, symName: __ZNSt3__16vectorIN16MonsterGenerator4TypeENS_9allocatorIS2_EEE21_ConstructTransactionC2B8ue170006ERS5_m, symObjAddr: 0x2F78, symBinAddr: 0x100010EA8, symSize: 0x44 }
  - { offset: 0x6653B, size: 0x8, addend: 0x0, symName: __ZNSt3__14pairIPKN16MonsterGenerator4TypeES4_EC1B8ue170006IS4_S4_LPv0EEEOT_OT0_, symObjAddr: 0x3110, symBinAddr: 0x100011040, symSize: 0x3C }
  - { offset: 0x66599, size: 0x8, addend: 0x0, symName: __ZNSt3__14pairIPKN16MonsterGenerator4TypeES4_EC2B8ue170006IS4_S4_LPv0EEEOT_OT0_, symObjAddr: 0x314C, symBinAddr: 0x10001107C, symSize: 0x34 }
  - { offset: 0x665F7, size: 0x8, addend: 0x0, symName: __ZNSt3__118__unwrap_iter_implIPKN16MonsterGenerator4TypeELb1EE8__unwrapB8ue170006ES4_, symObjAddr: 0x3180, symBinAddr: 0x1000110B0, symSize: 0x24 }
  - { offset: 0x66640, size: 0x8, addend: 0x0, symName: __ZNKSt3__114__copy_trivialclB8ue170006IKN16MonsterGenerator4TypeES3_Li0EEENS_4pairIPT_PT0_EES7_S7_S9_, symObjAddr: 0x3334, symBinAddr: 0x100011264, symSize: 0x48 }
  - { offset: 0x666B4, size: 0x8, addend: 0x0, symName: __ZNSt3__14pairIPKN16MonsterGenerator4TypeEPS2_EC1B8ue170006IRS4_S5_LPv0EEEOT_OT0_, symObjAddr: 0x34FC, symBinAddr: 0x10001142C, symSize: 0x3C }
  - { offset: 0x66712, size: 0x8, addend: 0x0, symName: __ZNSt3__14pairIPKN16MonsterGenerator4TypeEPS2_EC2B8ue170006IRS4_S5_LPv0EEEOT_OT0_, symObjAddr: 0x3538, symBinAddr: 0x100011468, symSize: 0x34 }
  - { offset: 0x66770, size: 0x8, addend: 0x0, symName: __ZNSt3__14pairIPKN16MonsterGenerator4TypeEPS2_EC1B8ue170006IS4_S5_LPv0EEEOT_OT0_, symObjAddr: 0x356C, symBinAddr: 0x10001149C, symSize: 0x3C }
  - { offset: 0x667CE, size: 0x8, addend: 0x0, symName: __ZNSt3__14pairIPKN16MonsterGenerator4TypeEPS2_EC2B8ue170006IS4_S5_LPv0EEEOT_OT0_, symObjAddr: 0x35A8, symBinAddr: 0x1000114D8, symSize: 0x34 }
  - { offset: 0x6682C, size: 0x8, addend: 0x0, symName: __ZNSt3__118__unwrap_iter_implIPKN16MonsterGenerator4TypeELb1EE8__rewrapB8ue170006ES4_S4_, symObjAddr: 0x3618, symBinAddr: 0x100011548, symSize: 0x50 }
  - { offset: 0x6685D, size: 0x8, addend: 0x0, symName: __ZNSt3__118__unwrap_iter_implIPN16MonsterGenerator4TypeELb1EE8__unwrapB8ue170006ES3_, symObjAddr: 0x3668, symBinAddr: 0x100011598, symSize: 0x24 }
  - { offset: 0x66880, size: 0x8, addend: 0x0, symName: __ZNSt3__118__unwrap_iter_implIPN16MonsterGenerator4TypeELb1EE8__rewrapB8ue170006ES3_S3_, symObjAddr: 0x368C, symBinAddr: 0x1000115BC, symSize: 0x50 }
  - { offset: 0x668B1, size: 0x8, addend: 0x0, symName: __ZNSt3__16vectorIN16MonsterGenerator4TypeENS_9allocatorIS2_EEE21_ConstructTransactionD2B8ue170006Ev, symObjAddr: 0x36DC, symBinAddr: 0x10001160C, symSize: 0x20 }
  - { offset: 0x668DB, size: 0x8, addend: 0x0, symName: __ZNSt3__128__exception_guard_exceptionsINS_6vectorIN16MonsterGenerator4TypeENS_9allocatorIS3_EEE16__destroy_vectorEED2B8ue170006Ev, symObjAddr: 0x36FC, symBinAddr: 0x10001162C, symSize: 0x50 }
  - { offset: 0x66905, size: 0x8, addend: 0x0, symName: __ZNSt3__16vectorIN16MonsterGenerator4TypeENS_9allocatorIS2_EEE16__destroy_vectorclB8ue170006Ev, symObjAddr: 0x374C, symBinAddr: 0x10001167C, symSize: 0x90 }
  - { offset: 0x6692B, size: 0x8, addend: 0x0, symName: __ZNSt3__16vectorIN16MonsterGenerator4TypeENS_9allocatorIS2_EEE7__clearB8ue170006Ev, symObjAddr: 0x37DC, symBinAddr: 0x10001170C, symSize: 0x28 }
  - { offset: 0x66951, size: 0x8, addend: 0x0, symName: __ZNKSt3__16vectorIN16MonsterGenerator4TypeENS_9allocatorIS2_EEE17__annotate_deleteB8ue170006Ev, symObjAddr: 0x3804, symBinAddr: 0x100011734, symSize: 0xB8 }
  - { offset: 0x66977, size: 0x8, addend: 0x0, symName: __ZNSt3__116allocator_traitsINS_9allocatorIN16MonsterGenerator4TypeEEEE10deallocateB8ue170006ERS4_PS3_m, symObjAddr: 0x38BC, symBinAddr: 0x1000117EC, symSize: 0x34 }
  - { offset: 0x669B9, size: 0x8, addend: 0x0, symName: __ZNSt3__16vectorIN16MonsterGenerator4TypeENS_9allocatorIS2_EEE22__base_destruct_at_endB8ue170006EPS2_, symObjAddr: 0x38F0, symBinAddr: 0x100011820, symSize: 0x8C }
  - { offset: 0x669FD, size: 0x8, addend: 0x0, symName: __ZNSt3__116allocator_traitsINS_9allocatorIN16MonsterGenerator4TypeEEEE7destroyB8ue170006IS3_vEEvRS4_PT_, symObjAddr: 0x397C, symBinAddr: 0x1000118AC, symSize: 0x2C }
  - { offset: 0x66A3A, size: 0x8, addend: 0x0, symName: __ZNSt3__19allocatorIN16MonsterGenerator4TypeEE7destroyB8ue170006EPS2_, symObjAddr: 0x39A8, symBinAddr: 0x1000118D8, symSize: 0x14 }
  - { offset: 0x66A6E, size: 0x8, addend: 0x0, symName: __ZNSt3__19allocatorIN16MonsterGenerator4TypeEE10deallocateB8ue170006EPS2_m, symObjAddr: 0x39BC, symBinAddr: 0x1000118EC, symSize: 0x40 }
  - { offset: 0x66AB0, size: 0x8, addend: 0x0, symName: __ZNKSt3__16vectorIN16MonsterGenerator4TypeENS_9allocatorIS2_EEE17__annotate_shrinkB8ue170006Em, symObjAddr: 0x3B04, symBinAddr: 0x10001192C, symSize: 0xB4 }
  - { offset: 0x66AE5, size: 0x8, addend: 0x0, symName: __ZNSt3__16vectorIN16MonsterGenerator4TypeENS_9allocatorIS2_EEE6assignIPKS2_Li0EEEvT_S9_, symObjAddr: 0x3BB8, symBinAddr: 0x1000119E0, symSize: 0x5C }
  - { offset: 0x66B3A, size: 0x8, addend: 0x0, symName: __ZNSt3__16vectorIN16MonsterGenerator4TypeENS_9allocatorIS2_EEE18__assign_with_sizeB8ue170006IPKS2_S8_EEvT_T0_l, symObjAddr: 0x3C14, symBinAddr: 0x100011A3C, symSize: 0x164 }
  - { offset: 0x66BEA, size: 0x8, addend: 0x0, symName: __ZNSt3__16vectorIN16MonsterGenerator4TypeENS_9allocatorIS2_EEE17__destruct_at_endB8ue170006EPS2_, symObjAddr: 0x3DD8, symBinAddr: 0x100011C00, symSize: 0x4C }
  - { offset: 0x66C2E, size: 0x8, addend: 0x0, symName: __ZNSt3__16vectorIN16MonsterGenerator4TypeENS_9allocatorIS2_EEE13__vdeallocateEv, symObjAddr: 0x3E24, symBinAddr: 0x100011C4C, symSize: 0x94 }
  - { offset: 0x66C56, size: 0x8, addend: 0x0, symName: __ZNKSt3__16vectorIN16MonsterGenerator4TypeENS_9allocatorIS2_EEE11__recommendB8ue170006Em, symObjAddr: 0x3EB8, symBinAddr: 0x100011CE0, symSize: 0xB4 }
  - { offset: 0x66CAB, size: 0x8, addend: 0x0, symName: __ZNSt3__123mersenne_twister_engineIjLm32ELm624ELm397ELm31ELj2567483615ELm11ELj4294967295ELm7ELj2636928640ELm15ELj4022730752ELm18ELj1812433253EEC2B8ue170006Ej, symObjAddr: 0x4088, symBinAddr: 0x100011E1C, symSize: 0x34 }
  - { offset: 0x66CE3, size: 0x8, addend: 0x0, symName: __ZNSt3__123mersenne_twister_engineIjLm32ELm624ELm397ELm31ELj2567483615ELm11ELj4294967295ELm7ELj2636928640ELm15ELj4022730752ELm18ELj1812433253EE4seedEj, symObjAddr: 0x40BC, symBinAddr: 0x100011E50, symSize: 0xC8 }
  - { offset: 0x66D36, size: 0x8, addend: 0x0, symName: __ZNSt3__123mersenne_twister_engineIjLm32ELm624ELm397ELm31ELj2567483615ELm11ELj4294967295ELm7ELj2636928640ELm15ELj4022730752ELm18ELj1812433253EE8__rshiftB8ue170006ILm30EEENS_9enable_ifIXltT_L_ZNS1_3_DtEEEjE4typeEj, symObjAddr: 0x4184, symBinAddr: 0x100011F18, symSize: 0x18 }
  - { offset: 0x66D63, size: 0x8, addend: 0x0, symName: __ZNSt3__16vectorIN16MonsterGenerator4TypeENS_9allocatorIS2_EEE11__make_iterB8ue170006EPS2_, symObjAddr: 0x419C, symBinAddr: 0x100011F30, symSize: 0x30 }
  - { offset: 0x66D98, size: 0x8, addend: 0x0, symName: __ZNSt3__111__wrap_iterIPN16MonsterGenerator4TypeEEC1B8ue170006ES3_, symObjAddr: 0x41CC, symBinAddr: 0x100011F60, symSize: 0x34 }
  - { offset: 0x66DD0, size: 0x8, addend: 0x0, symName: __ZNSt3__111__wrap_iterIPN16MonsterGenerator4TypeEEC2B8ue170006ES3_, symObjAddr: 0x4200, symBinAddr: 0x100011F94, symSize: 0x20 }
  - { offset: 0x66E08, size: 0x8, addend: 0x0, symName: __ZNSt3__18_IterOpsINS_17_ClassicAlgPolicyEE4nextB8ue170006INS_11__wrap_iterIPN16MonsterGenerator4TypeEEEEET_S9_S9_, symObjAddr: 0x435C, symBinAddr: 0x1000120F0, symSize: 0x20 }
  - { offset: 0x66E3E, size: 0x8, addend: 0x0, symName: __ZNSt3__124uniform_int_distributionIlEC1B8ue170006Ev, symObjAddr: 0x43C4, symBinAddr: 0x100012158, symSize: 0x3C }
  - { offset: 0x66E68, size: 0x8, addend: 0x0, symName: __ZNSt3__111__wrap_iterIPN16MonsterGenerator4TypeEEmmB8ue170006Ev, symObjAddr: 0x4400, symBinAddr: 0x100012194, symSize: 0x20 }
  - { offset: 0x66E8E, size: 0x8, addend: 0x0, symName: __ZNSt3__124uniform_int_distributionIlE10param_typeC1B8ue170006Ell, symObjAddr: 0x45DC, symBinAddr: 0x100012370, symSize: 0x3C }
  - { offset: 0x66EDA, size: 0x8, addend: 0x0, symName: __ZNSt3__18_IterOpsINS_17_ClassicAlgPolicyEE9iter_swapB8ue170006IRNS_11__wrap_iterIPN16MonsterGenerator4TypeEEES8_EEvOT_OT0_, symObjAddr: 0x4618, symBinAddr: 0x1000123AC, symSize: 0x44 }
  - { offset: 0x66F1D, size: 0x8, addend: 0x0, symName: __ZNKSt3__111__wrap_iterIPN16MonsterGenerator4TypeEEplB8ue170006El, symObjAddr: 0x465C, symBinAddr: 0x1000123F0, symSize: 0x3C }
  - { offset: 0x66F5F, size: 0x8, addend: 0x0, symName: __ZNSt3__111__wrap_iterIPN16MonsterGenerator4TypeEEppB8ue170006Ev, symObjAddr: 0x4698, symBinAddr: 0x10001242C, symSize: 0x20 }
  - { offset: 0x66F85, size: 0x8, addend: 0x0, symName: __ZNKSt3__111__wrap_iterIPN16MonsterGenerator4TypeEE4baseB8ue170006Ev, symObjAddr: 0x46B8, symBinAddr: 0x10001244C, symSize: 0x18 }
  - { offset: 0x66FAB, size: 0x8, addend: 0x0, symName: __ZNSt3__124uniform_int_distributionIlEC1B8ue170006Ell, symObjAddr: 0x46D0, symBinAddr: 0x100012464, symSize: 0x3C }
  - { offset: 0x66FF1, size: 0x8, addend: 0x0, symName: __ZNSt3__124uniform_int_distributionIlEC2B8ue170006Ell, symObjAddr: 0x470C, symBinAddr: 0x1000124A0, symSize: 0x3C }
  - { offset: 0x67037, size: 0x8, addend: 0x0, symName: __ZNKSt3__124uniform_int_distributionIlE10param_type1bB8ue170006Ev, symObjAddr: 0x4748, symBinAddr: 0x1000124DC, symSize: 0x18 }
  - { offset: 0x6705D, size: 0x8, addend: 0x0, symName: __ZNKSt3__124uniform_int_distributionIlE10param_type1aB8ue170006Ev, symObjAddr: 0x4760, symBinAddr: 0x1000124F4, symSize: 0x18 }
  - { offset: 0x67083, size: 0x8, addend: 0x0, symName: __ZNSt3__125__independent_bits_engineINS_23mersenne_twister_engineIjLm32ELm624ELm397ELm31ELj2567483615ELm11ELj4294967295ELm7ELj2636928640ELm15ELj4022730752ELm18ELj1812433253EEEmEC1ERS2_m, symObjAddr: 0x4778, symBinAddr: 0x10001250C, symSize: 0x3C }
  - { offset: 0x670CA, size: 0x8, addend: 0x0, symName: __ZNSt3__125__independent_bits_engineINS_23mersenne_twister_engineIjLm32ELm624ELm397ELm31ELj2567483615ELm11ELj4294967295ELm7ELj2636928640ELm15ELj4022730752ELm18ELj1812433253EEEmEclB8ue170006Ev, symObjAddr: 0x47B4, symBinAddr: 0x100012548, symSize: 0x24 }
  - { offset: 0x670F0, size: 0x8, addend: 0x0, symName: __ZNSt3__114numeric_limitsImE3maxB8ue170006Ev, symObjAddr: 0x482C, symBinAddr: 0x1000125C0, symSize: 0x14 }
  - { offset: 0x67104, size: 0x8, addend: 0x0, symName: __ZNSt3__125__independent_bits_engineINS_23mersenne_twister_engineIjLm32ELm624ELm397ELm31ELj2567483615ELm11ELj4294967295ELm7ELj2636928640ELm15ELj4022730752ELm18ELj1812433253EEEmEC2ERS2_m, symObjAddr: 0x4840, symBinAddr: 0x1000125D4, symSize: 0x264 }
  - { offset: 0x6714B, size: 0x8, addend: 0x0, symName: __ZNSt3__125__independent_bits_engineINS_23mersenne_twister_engineIjLm32ELm624ELm397ELm31ELj2567483615ELm11ELj4294967295ELm7ELj2636928640ELm15ELj4022730752ELm18ELj1812433253EEEmE6__evalENS_17integral_constantIbLb1EEE, symObjAddr: 0x4AA4, symBinAddr: 0x100012838, symSize: 0x1F8 }
  - { offset: 0x67208, size: 0x8, addend: 0x0, symName: __ZNSt3__123mersenne_twister_engineIjLm32ELm624ELm397ELm31ELj2567483615ELm11ELj4294967295ELm7ELj2636928640ELm15ELj4022730752ELm18ELj1812433253EEclEv, symObjAddr: 0x4C9C, symBinAddr: 0x100012A30, symSize: 0x14C }
  - { offset: 0x6727B, size: 0x8, addend: 0x0, symName: __ZNSt3__123mersenne_twister_engineIjLm32ELm624ELm397ELm31ELj2567483615ELm11ELj4294967295ELm7ELj2636928640ELm15ELj4022730752ELm18ELj1812433253EE3minB8ue170006Ev, symObjAddr: 0x4DE8, symBinAddr: 0x100012B7C, symSize: 0x8 }
  - { offset: 0x6728F, size: 0x8, addend: 0x0, symName: __ZNSt3__123mersenne_twister_engineIjLm32ELm624ELm397ELm31ELj2567483615ELm11ELj4294967295ELm7ELj2636928640ELm15ELj4022730752ELm18ELj1812433253EE8__rshiftB8ue170006ILm1EEENS_9enable_ifIXltT_L_ZNS1_3_DtEEEjE4typeEj, symObjAddr: 0x4DF0, symBinAddr: 0x100012B84, symSize: 0x18 }
  - { offset: 0x672BC, size: 0x8, addend: 0x0, symName: __ZNSt3__123mersenne_twister_engineIjLm32ELm624ELm397ELm31ELj2567483615ELm11ELj4294967295ELm7ELj2636928640ELm15ELj4022730752ELm18ELj1812433253EE8__rshiftB8ue170006ILm11EEENS_9enable_ifIXltT_L_ZNS1_3_DtEEEjE4typeEj, symObjAddr: 0x4E08, symBinAddr: 0x100012B9C, symSize: 0x18 }
  - { offset: 0x672E9, size: 0x8, addend: 0x0, symName: __ZNSt3__123mersenne_twister_engineIjLm32ELm624ELm397ELm31ELj2567483615ELm11ELj4294967295ELm7ELj2636928640ELm15ELj4022730752ELm18ELj1812433253EE8__lshiftB8ue170006ILm7EEENS_9enable_ifIXltT_Lm32EEjE4typeEj, symObjAddr: 0x4E20, symBinAddr: 0x100012BB4, symSize: 0x1C }
  - { offset: 0x67316, size: 0x8, addend: 0x0, symName: __ZNSt3__123mersenne_twister_engineIjLm32ELm624ELm397ELm31ELj2567483615ELm11ELj4294967295ELm7ELj2636928640ELm15ELj4022730752ELm18ELj1812433253EE8__lshiftB8ue170006ILm15EEENS_9enable_ifIXltT_Lm32EEjE4typeEj, symObjAddr: 0x4E3C, symBinAddr: 0x100012BD0, symSize: 0x1C }
  - { offset: 0x67343, size: 0x8, addend: 0x0, symName: __ZNSt3__123mersenne_twister_engineIjLm32ELm624ELm397ELm31ELj2567483615ELm11ELj4294967295ELm7ELj2636928640ELm15ELj4022730752ELm18ELj1812433253EE8__rshiftB8ue170006ILm18EEENS_9enable_ifIXltT_L_ZNS1_3_DtEEEjE4typeEj, symObjAddr: 0x4E58, symBinAddr: 0x100012BEC, symSize: 0x18 }
  - { offset: 0x67370, size: 0x8, addend: 0x0, symName: __ZNSt3__123__libcpp_numeric_limitsImLb1EE3maxB8ue170006Ev, symObjAddr: 0x4E8C, symBinAddr: 0x100012C20, symSize: 0x8 }
  - { offset: 0x67384, size: 0x8, addend: 0x0, symName: __ZNSt3__124uniform_int_distributionIlE10param_typeC2B8ue170006Ell, symObjAddr: 0x4E94, symBinAddr: 0x100012C28, symSize: 0x2C }
  - { offset: 0x673CA, size: 0x8, addend: 0x0, symName: __ZNKSt3__111__wrap_iterIPN16MonsterGenerator4TypeEEdeB8ue170006Ev, symObjAddr: 0x4F4C, symBinAddr: 0x100012CE0, symSize: 0x18 }
  - { offset: 0x673F0, size: 0x8, addend: 0x0, symName: __ZNSt3__111__wrap_iterIPN16MonsterGenerator4TypeEEpLB8ue170006El, symObjAddr: 0x4F64, symBinAddr: 0x100012CF8, symSize: 0x28 }
  - { offset: 0x67424, size: 0x8, addend: 0x0, symName: __ZN7Monster8SetSpeedEf, symObjAddr: 0x4F8C, symBinAddr: 0x100012D20, symSize: 0x30 }
  - { offset: 0x67458, size: 0x8, addend: 0x0, symName: __ZN7Monster12SetMaxHealthEf, symObjAddr: 0x4FEC, symBinAddr: 0x100012D50, symSize: 0x30 }
  - { offset: 0x6748C, size: 0x8, addend: 0x0, symName: __ZN7Monster11SetStrengthEi, symObjAddr: 0x501C, symBinAddr: 0x100012D80, symSize: 0x30 }
  - { offset: 0x674C0, size: 0x8, addend: 0x0, symName: __ZN7Monster9SetRewardEi, symObjAddr: 0x504C, symBinAddr: 0x100012DB0, symSize: 0x30 }
  - { offset: 0x674F4, size: 0x8, addend: 0x0, symName: __ZNSt3__16vectorI7MonsterNS_9allocatorIS1_EEE9__end_capB8ue170006Ev, symObjAddr: 0x507C, symBinAddr: 0x100012DE0, symSize: 0x28 }
  - { offset: 0x6751A, size: 0x8, addend: 0x0, symName: __ZNSt3__16vectorI7MonsterNS_9allocatorIS1_EEE22__construct_one_at_endB8ue170006IJRS1_EEEvDpOT_, symObjAddr: 0x50A4, symBinAddr: 0x100012E08, symSize: 0x90 }
  - { offset: 0x67569, size: 0x8, addend: 0x0, symName: __ZNSt3__16vectorI7MonsterNS_9allocatorIS1_EEE24__emplace_back_slow_pathIJRS1_EEEvDpOT_, symObjAddr: 0x5134, symBinAddr: 0x100012E98, symSize: 0xD8 }
  - { offset: 0x675C9, size: 0x8, addend: 0x0, symName: __ZNSt3__16vectorI7MonsterNS_9allocatorIS1_EEE4backB8ue170006Ev, symObjAddr: 0x520C, symBinAddr: 0x100012F70, symSize: 0x1C }
  - { offset: 0x675EF, size: 0x8, addend: 0x0, symName: __ZNSt3__117__compressed_pairIP7MonsterNS_9allocatorIS1_EEE5firstB8ue170006Ev, symObjAddr: 0x5228, symBinAddr: 0x100012F8C, symSize: 0x24 }
  - { offset: 0x67615, size: 0x8, addend: 0x0, symName: __ZNSt3__122__compressed_pair_elemIP7MonsterLi0ELb0EE5__getB8ue170006Ev, symObjAddr: 0x524C, symBinAddr: 0x100012FB0, symSize: 0x14 }
  - { offset: 0x67656, size: 0x8, addend: 0x0, symName: __ZNSt3__16vectorI7MonsterNS_9allocatorIS1_EEE21_ConstructTransactionC1B8ue170006ERS4_m, symObjAddr: 0x5260, symBinAddr: 0x100012FC4, symSize: 0x3C }
  - { offset: 0x6769E, size: 0x8, addend: 0x0, symName: __ZNSt3__116allocator_traitsINS_9allocatorI7MonsterEEE9constructB8ue170006IS2_JRS2_EvEEvRS3_PT_DpOT0_, symObjAddr: 0x529C, symBinAddr: 0x100013000, symSize: 0x34 }
  - { offset: 0x676F5, size: 0x8, addend: 0x0, symName: __ZNSt3__16vectorI7MonsterNS_9allocatorIS1_EEE21_ConstructTransactionD1B8ue170006Ev, symObjAddr: 0x530C, symBinAddr: 0x100013034, symSize: 0x2C }
  - { offset: 0x6771F, size: 0x8, addend: 0x0, symName: __ZNSt3__16vectorI7MonsterNS_9allocatorIS1_EEE21_ConstructTransactionC2B8ue170006ERS4_m, symObjAddr: 0x5338, symBinAddr: 0x100013060, symSize: 0x4C }
  - { offset: 0x67767, size: 0x8, addend: 0x0, symName: __ZNSt3__19allocatorI7MonsterE9constructB8ue170006IS1_JRS1_EEEvPT_DpOT0_, symObjAddr: 0x5384, symBinAddr: 0x1000130AC, symSize: 0x30 }
  - { offset: 0x677BD, size: 0x8, addend: 0x0, symName: __ZN7MonsterC1ERKS_, symObjAddr: 0x53B4, symBinAddr: 0x1000130DC, symSize: 0x34 }
  - { offset: 0x677F2, size: 0x8, addend: 0x0, symName: __ZN7MonsterC2ERKS_, symObjAddr: 0x53E8, symBinAddr: 0x100013110, symSize: 0xF4 }
  - { offset: 0x67827, size: 0x8, addend: 0x0, symName: __ZN12IGameSubjectC2ERKS_, symObjAddr: 0x5550, symBinAddr: 0x100013204, symSize: 0x28 }
  - { offset: 0x6785C, size: 0x8, addend: 0x0, symName: __ZNSt3__16vectorIP13IGameObserverNS_9allocatorIS2_EEEC1ERKS5_, symObjAddr: 0x5578, symBinAddr: 0x10001322C, symSize: 0x34 }
  - { offset: 0x6789D, size: 0x8, addend: 0x0, symName: __ZN2sf14RectangleShapeC1ERKS0_, symObjAddr: 0x55AC, symBinAddr: 0x100013260, symSize: 0x34 }
  - { offset: 0x678D2, size: 0x8, addend: 0x0, symName: __ZNSt3__16vectorIP13IGameObserverNS_9allocatorIS2_EEEC2ERKS5_, symObjAddr: 0x5784, symBinAddr: 0x100013294, symSize: 0x94 }
  - { offset: 0x67918, size: 0x8, addend: 0x0, symName: __ZNSt3__116allocator_traitsINS_9allocatorIP13IGameObserverEEE37select_on_container_copy_constructionB8ue170006IS4_vvEES4_RKS4_, symObjAddr: 0x5818, symBinAddr: 0x100013328, symSize: 0x10 }
  - { offset: 0x6794D, size: 0x8, addend: 0x0, symName: __ZNSt3__117__compressed_pairIPP13IGameObserverNS_9allocatorIS2_EEEC1B8ue170006IDnS5_EEOT_OT0_, symObjAddr: 0x5850, symBinAddr: 0x100013338, symSize: 0x3C }
  - { offset: 0x679A5, size: 0x8, addend: 0x0, symName: __ZNSt3__16vectorIP13IGameObserverNS_9allocatorIS2_EEE16__init_with_sizeB8ue170006IPS2_S7_EEvT_T0_m, symObjAddr: 0x588C, symBinAddr: 0x100013374, symSize: 0xB8 }
  - { offset: 0x67A19, size: 0x8, addend: 0x0, symName: __ZNSt3__117__compressed_pairIPP13IGameObserverNS_9allocatorIS2_EEEC2B8ue170006IDnS5_EEOT_OT0_, symObjAddr: 0x59A4, symBinAddr: 0x10001342C, symSize: 0x44 }
  - { offset: 0x67A71, size: 0x8, addend: 0x0, symName: __ZNSt3__122__compressed_pair_elemINS_9allocatorIP13IGameObserverEELi1ELb1EEC2B8ue170006IS4_vEEOT_, symObjAddr: 0x5A04, symBinAddr: 0x100013470, symSize: 0x18 }
  - { offset: 0x67AB3, size: 0x8, addend: 0x0, symName: __ZNSt3__128__exception_guard_exceptionsINS_6vectorIP13IGameObserverNS_9allocatorIS3_EEE16__destroy_vectorEE10__completeB8ue170006Ev, symObjAddr: 0x5BC8, symBinAddr: 0x1000134C8, symSize: 0x1C }
  - { offset: 0x67AD9, size: 0x8, addend: 0x0, symName: __ZNSt3__128__exception_guard_exceptionsINS_6vectorIP13IGameObserverNS_9allocatorIS3_EEE16__destroy_vectorEED1B8ue170006Ev, symObjAddr: 0x5BE4, symBinAddr: 0x1000134E4, symSize: 0x2C }
  - { offset: 0x67B03, size: 0x8, addend: 0x0, symName: __ZNSt3__128__exception_guard_exceptionsINS_6vectorIP13IGameObserverNS_9allocatorIS3_EEE16__destroy_vectorEEC1B8ue170006ES7_, symObjAddr: 0x5C10, symBinAddr: 0x100013510, symSize: 0x34 }
  - { offset: 0x67B3B, size: 0x8, addend: 0x0, symName: __ZNSt3__128__exception_guard_exceptionsINS_6vectorIP13IGameObserverNS_9allocatorIS3_EEE16__destroy_vectorEEC2B8ue170006ES7_, symObjAddr: 0x5C44, symBinAddr: 0x100013544, symSize: 0x24 }
  - { offset: 0x67B8E, size: 0x8, addend: 0x0, symName: __ZNSt3__128__exception_guard_exceptionsINS_6vectorIP13IGameObserverNS_9allocatorIS3_EEE16__destroy_vectorEED2B8ue170006Ev, symObjAddr: 0x6718, symBinAddr: 0x100013568, symSize: 0x50 }
  - { offset: 0x67BB8, size: 0x8, addend: 0x0, symName: __ZN2sf14RectangleShapeC2ERKS0_, symObjAddr: 0x6A18, symBinAddr: 0x1000135B8, symSize: 0x58 }
  - { offset: 0x67BF3, size: 0x8, addend: 0x0, symName: __ZN2sf5ShapeC2ERKS0_, symObjAddr: 0x6A70, symBinAddr: 0x100013610, symSize: 0x108 }
  - { offset: 0x67C2E, size: 0x8, addend: 0x0, symName: __ZN2sf11VertexArrayC1ERKS0_, symObjAddr: 0x6B78, symBinAddr: 0x100013718, symSize: 0x34 }
  - { offset: 0x67C63, size: 0x8, addend: 0x0, symName: __ZN2sf11VertexArrayD1Ev, symObjAddr: 0x6BAC, symBinAddr: 0x10001374C, symSize: 0x2C }
  - { offset: 0x67C8F, size: 0x8, addend: 0x0, symName: __ZN2sf11VertexArrayC2ERKS0_, symObjAddr: 0x6BEC, symBinAddr: 0x100013778, symSize: 0x8C }
  - { offset: 0x67CC4, size: 0x8, addend: 0x0, symName: __ZNSt3__16vectorIN2sf6VertexENS_9allocatorIS2_EEEC1ERKS5_, symObjAddr: 0x6C78, symBinAddr: 0x100013804, symSize: 0x34 }
  - { offset: 0x67CFF, size: 0x8, addend: 0x0, symName: __ZNSt3__16vectorIN2sf6VertexENS_9allocatorIS2_EEEC2ERKS5_, symObjAddr: 0x6CAC, symBinAddr: 0x100013838, symSize: 0x94 }
  - { offset: 0x67D45, size: 0x8, addend: 0x0, symName: __ZNSt3__116allocator_traitsINS_9allocatorIN2sf6VertexEEEE37select_on_container_copy_constructionB8ue170006IS4_vvEES4_RKS4_, symObjAddr: 0x6D40, symBinAddr: 0x1000138CC, symSize: 0x10 }
  - { offset: 0x67D7A, size: 0x8, addend: 0x0, symName: __ZNSt3__117__compressed_pairIPN2sf6VertexENS_9allocatorIS2_EEEC1B8ue170006IDnS5_EEOT_OT0_, symObjAddr: 0x6D78, symBinAddr: 0x1000138DC, symSize: 0x3C }
  - { offset: 0x67DD2, size: 0x8, addend: 0x0, symName: __ZNSt3__16vectorIN2sf6VertexENS_9allocatorIS2_EEE16__init_with_sizeB8ue170006IPS2_S7_EEvT_T0_m, symObjAddr: 0x6DB4, symBinAddr: 0x100013918, symSize: 0xB8 }
  - { offset: 0x67E46, size: 0x8, addend: 0x0, symName: __ZNSt3__117__compressed_pairIPN2sf6VertexENS_9allocatorIS2_EEEC2B8ue170006IDnS5_EEOT_OT0_, symObjAddr: 0x6ECC, symBinAddr: 0x1000139D0, symSize: 0x44 }
  - { offset: 0x67E9E, size: 0x8, addend: 0x0, symName: __ZNSt3__122__compressed_pair_elemIPN2sf6VertexELi0ELb0EEC2B8ue170006IDnvEEOT_, symObjAddr: 0x6F10, symBinAddr: 0x100013A14, symSize: 0x1C }
  - { offset: 0x67EE0, size: 0x8, addend: 0x0, symName: __ZNSt3__122__compressed_pair_elemINS_9allocatorIN2sf6VertexEEELi1ELb1EEC2B8ue170006IS4_vEEOT_, symObjAddr: 0x6F2C, symBinAddr: 0x100013A30, symSize: 0x18 }
  - { offset: 0x67F22, size: 0x8, addend: 0x0, symName: __ZNSt3__16vectorIN2sf6VertexENS_9allocatorIS2_EEE16__destroy_vectorC1B8ue170006ERS5_, symObjAddr: 0x6F84, symBinAddr: 0x100013A88, symSize: 0x34 }
  - { offset: 0x67F5B, size: 0x8, addend: 0x0, symName: __ZNSt3__128__exception_guard_exceptionsINS_6vectorIN2sf6VertexENS_9allocatorIS3_EEE16__destroy_vectorEE10__completeB8ue170006Ev, symObjAddr: 0x70F8, symBinAddr: 0x100013ABC, symSize: 0x1C }
  - { offset: 0x67F81, size: 0x8, addend: 0x0, symName: __ZNSt3__128__exception_guard_exceptionsINS_6vectorIN2sf6VertexENS_9allocatorIS3_EEE16__destroy_vectorEED1B8ue170006Ev, symObjAddr: 0x7114, symBinAddr: 0x100013AD8, symSize: 0x2C }
  - { offset: 0x67FAB, size: 0x8, addend: 0x0, symName: __ZNSt3__128__exception_guard_exceptionsINS_6vectorIN2sf6VertexENS_9allocatorIS3_EEE16__destroy_vectorEEC1B8ue170006ES7_, symObjAddr: 0x7140, symBinAddr: 0x100013B04, symSize: 0x34 }
  - { offset: 0x67FE3, size: 0x8, addend: 0x0, symName: __ZNSt3__128__exception_guard_exceptionsINS_6vectorIN2sf6VertexENS_9allocatorIS3_EEE16__destroy_vectorEEC2B8ue170006ES7_, symObjAddr: 0x7174, symBinAddr: 0x100013B38, symSize: 0x24 }
  - { offset: 0x6801B, size: 0x8, addend: 0x0, symName: __ZNSt3__16vectorIN2sf6VertexENS_9allocatorIS2_EEE16__destroy_vectorC2B8ue170006ERS5_, symObjAddr: 0x7198, symBinAddr: 0x100013B5C, symSize: 0x20 }
  - { offset: 0x6806F, size: 0x8, addend: 0x0, symName: __ZNSt3__128__exception_guard_exceptionsINS_6vectorIN2sf6VertexENS_9allocatorIS3_EEE16__destroy_vectorEED2B8ue170006Ev, symObjAddr: 0x7C88, symBinAddr: 0x100013B7C, symSize: 0x50 }
  - { offset: 0x68099, size: 0x8, addend: 0x0, symName: __ZNSt3__16vectorIN2sf6VertexENS_9allocatorIS2_EEE16__destroy_vectorclB8ue170006Ev, symObjAddr: 0x7CD8, symBinAddr: 0x100013BCC, symSize: 0x90 }
  - { offset: 0x680BF, size: 0x8, addend: 0x0, symName: __ZN2sf11VertexArrayD2Ev, symObjAddr: 0x7FA8, symBinAddr: 0x100013C5C, symSize: 0x48 }
  - { offset: 0x680EB, size: 0x8, addend: 0x0, symName: __ZNSt3__16vectorIN2sf6VertexENS_9allocatorIS2_EEED1B8ue170006Ev, symObjAddr: 0x7FF0, symBinAddr: 0x100013CA4, symSize: 0x2C }
  - { offset: 0x68115, size: 0x8, addend: 0x0, symName: __ZNSt3__16vectorIN2sf6VertexENS_9allocatorIS2_EEED2B8ue170006Ev, symObjAddr: 0x801C, symBinAddr: 0x100013CD0, symSize: 0x40 }
  - { offset: 0x6813F, size: 0x8, addend: 0x0, symName: __ZNSt3__16vectorI7MonsterNS_9allocatorIS1_EEE21_ConstructTransactionD2B8ue170006Ev, symObjAddr: 0x80D4, symBinAddr: 0x100013D10, symSize: 0x20 }
  - { offset: 0x68169, size: 0x8, addend: 0x0, symName: __ZNKSt3__16vectorI7MonsterNS_9allocatorIS1_EEE11__recommendB8ue170006Em, symObjAddr: 0x80F4, symBinAddr: 0x100013D30, symSize: 0xB4 }
  - { offset: 0x681BE, size: 0x8, addend: 0x0, symName: __ZNSt3__114__split_bufferI7MonsterRNS_9allocatorIS1_EEEC1EmmS4_, symObjAddr: 0x81D0, symBinAddr: 0x100013DE4, symSize: 0x44 }
  - { offset: 0x68214, size: 0x8, addend: 0x0, symName: __ZNSt3__114__split_bufferI7MonsterRNS_9allocatorIS1_EEED1Ev, symObjAddr: 0x8324, symBinAddr: 0x100013F38, symSize: 0x2C }
  - { offset: 0x68240, size: 0x8, addend: 0x0, symName: __ZNKSt3__16vectorI7MonsterNS_9allocatorIS1_EEE8max_sizeEv, symObjAddr: 0x8350, symBinAddr: 0x100013F64, symSize: 0x60 }
  - { offset: 0x68268, size: 0x8, addend: 0x0, symName: __ZNKSt3__16vectorI7MonsterNS_9allocatorIS1_EEE20__throw_length_errorB8ue170006Ev, symObjAddr: 0x83B0, symBinAddr: 0x100013FC4, symSize: 0x1C }
  - { offset: 0x68299, size: 0x8, addend: 0x0, symName: __ZNSt3__116allocator_traitsINS_9allocatorI7MonsterEEE8max_sizeB8ue170006IS3_vEEmRKS3_, symObjAddr: 0x840C, symBinAddr: 0x100013FE0, symSize: 0x24 }
  - { offset: 0x682C7, size: 0x8, addend: 0x0, symName: __ZNKSt3__16vectorI7MonsterNS_9allocatorIS1_EEE7__allocB8ue170006Ev, symObjAddr: 0x8430, symBinAddr: 0x100014004, symSize: 0x28 }
  - { offset: 0x682ED, size: 0x8, addend: 0x0, symName: __ZNKSt3__19allocatorI7MonsterE8max_sizeB8ue170006Ev, symObjAddr: 0x8458, symBinAddr: 0x10001402C, symSize: 0x20 }
  - { offset: 0x68313, size: 0x8, addend: 0x0, symName: __ZNKSt3__117__compressed_pairIP7MonsterNS_9allocatorIS1_EEE6secondB8ue170006Ev, symObjAddr: 0x8478, symBinAddr: 0x10001404C, symSize: 0x24 }
  - { offset: 0x68339, size: 0x8, addend: 0x0, symName: __ZNKSt3__122__compressed_pair_elemINS_9allocatorI7MonsterEELi1ELb1EE5__getB8ue170006Ev, symObjAddr: 0x849C, symBinAddr: 0x100014070, symSize: 0x14 }
  - { offset: 0x6835F, size: 0x8, addend: 0x0, symName: __ZNSt3__114__split_bufferI7MonsterRNS_9allocatorIS1_EEEC2EmmS4_, symObjAddr: 0x8510, symBinAddr: 0x100014084, symSize: 0xE0 }
  - { offset: 0x683D2, size: 0x8, addend: 0x0, symName: __ZNSt3__117__compressed_pairIP7MonsterRNS_9allocatorIS1_EEEC1B8ue170006IDnS5_EEOT_OT0_, symObjAddr: 0x85F0, symBinAddr: 0x100014164, symSize: 0x3C }
  - { offset: 0x6842A, size: 0x8, addend: 0x0, symName: __ZNSt3__114__split_bufferI7MonsterRNS_9allocatorIS1_EEE7__allocB8ue170006Ev, symObjAddr: 0x866C, symBinAddr: 0x1000141E0, symSize: 0x28 }
  - { offset: 0x68450, size: 0x8, addend: 0x0, symName: __ZNSt3__114__split_bufferI7MonsterRNS_9allocatorIS1_EEE9__end_capB8ue170006Ev, symObjAddr: 0x8694, symBinAddr: 0x100014208, symSize: 0x28 }
  - { offset: 0x68476, size: 0x8, addend: 0x0, symName: __ZNSt3__117__compressed_pairIP7MonsterRNS_9allocatorIS1_EEEC2B8ue170006IDnS5_EEOT_OT0_, symObjAddr: 0x86BC, symBinAddr: 0x100014230, symSize: 0x48 }
  - { offset: 0x684CE, size: 0x8, addend: 0x0, symName: __ZNSt3__122__compressed_pair_elemIP7MonsterLi0ELb0EEC2B8ue170006IDnvEEOT_, symObjAddr: 0x8704, symBinAddr: 0x100014278, symSize: 0x1C }
  - { offset: 0x68510, size: 0x8, addend: 0x0, symName: __ZNSt3__122__compressed_pair_elemIRNS_9allocatorI7MonsterEELi1ELb0EEC2B8ue170006IS4_vEEOT_, symObjAddr: 0x8720, symBinAddr: 0x100014294, symSize: 0x20 }
  - { offset: 0x68552, size: 0x8, addend: 0x0, symName: __ZNSt3__19allocatorI7MonsterE8allocateB8ue170006Em, symObjAddr: 0x8740, symBinAddr: 0x1000142B4, symSize: 0x5C }
  - { offset: 0x68586, size: 0x8, addend: 0x0, symName: __ZNSt3__117__compressed_pairIP7MonsterRNS_9allocatorIS1_EEE6secondB8ue170006Ev, symObjAddr: 0x879C, symBinAddr: 0x100014310, symSize: 0x28 }
  - { offset: 0x685AC, size: 0x8, addend: 0x0, symName: __ZNSt3__122__compressed_pair_elemIRNS_9allocatorI7MonsterEELi1ELb0EE5__getB8ue170006Ev, symObjAddr: 0x87C4, symBinAddr: 0x100014338, symSize: 0x18 }
  - { offset: 0x685D2, size: 0x8, addend: 0x0, symName: __ZNSt3__117__compressed_pairIP7MonsterRNS_9allocatorIS1_EEE5firstB8ue170006Ev, symObjAddr: 0x87DC, symBinAddr: 0x100014350, symSize: 0x24 }
  - { offset: 0x685F8, size: 0x8, addend: 0x0, symName: __ZNKSt3__16vectorI7MonsterNS_9allocatorIS1_EEE17__annotate_deleteB8ue170006Ev, symObjAddr: 0x8800, symBinAddr: 0x100014374, symSize: 0xD4 }
  - { offset: 0x6861E, size: 0x8, addend: 0x0, symName: __ZNSt3__116reverse_iteratorIP7MonsterEC1B8ue170006ES2_, symObjAddr: 0x8A00, symBinAddr: 0x100014574, symSize: 0x34 }
  - { offset: 0x68656, size: 0x8, addend: 0x0, symName: __ZNKSt3__116reverse_iteratorIP7MonsterE4baseB8ue170006Ev, symObjAddr: 0x8A34, symBinAddr: 0x1000145A8, symSize: 0x18 }
  - { offset: 0x6867C, size: 0x8, addend: 0x0, symName: __ZNKSt3__16vectorI7MonsterNS_9allocatorIS1_EEE14__annotate_newB8ue170006Em, symObjAddr: 0x8A88, symBinAddr: 0x1000145FC, symSize: 0xC8 }
  - { offset: 0x686B1, size: 0x8, addend: 0x0, symName: __ZNSt3__129_AllocatorDestroyRangeReverseINS_9allocatorI7MonsterEENS_16reverse_iteratorIPS2_EEEC1B8ue170006ERS3_RS6_S9_, symObjAddr: 0x8BE4, symBinAddr: 0x100014710, symSize: 0x44 }
  - { offset: 0x68708, size: 0x8, addend: 0x0, symName: __ZNSt3__116allocator_traitsINS_9allocatorI7MonsterEEE9constructB8ue170006IS2_JRKS2_EvEEvRS3_PT_DpOT0_, symObjAddr: 0x8C70, symBinAddr: 0x10001479C, symSize: 0x34 }
  - { offset: 0x6875F, size: 0x8, addend: 0x0, symName: __ZNKSt3__116reverse_iteratorIP7MonsterEdeB8ue170006Ev, symObjAddr: 0x8CC8, symBinAddr: 0x1000147F4, symSize: 0x28 }
  - { offset: 0x68793, size: 0x8, addend: 0x0, symName: __ZNSt3__116reverse_iteratorIP7MonsterEppB8ue170006Ev, symObjAddr: 0x8CF0, symBinAddr: 0x10001481C, symSize: 0x20 }
  - { offset: 0x687B9, size: 0x8, addend: 0x0, symName: __ZNSt3__128__exception_guard_exceptionsINS_29_AllocatorDestroyRangeReverseINS_9allocatorI7MonsterEENS_16reverse_iteratorIPS3_EEEEE10__completeB8ue170006Ev, symObjAddr: 0x8D10, symBinAddr: 0x10001483C, symSize: 0x1C }
  - { offset: 0x687DF, size: 0x8, addend: 0x0, symName: __ZNSt3__128__exception_guard_exceptionsINS_29_AllocatorDestroyRangeReverseINS_9allocatorI7MonsterEENS_16reverse_iteratorIPS3_EEEEED1B8ue170006Ev, symObjAddr: 0x8D2C, symBinAddr: 0x100014858, symSize: 0x2C }
  - { offset: 0x68809, size: 0x8, addend: 0x0, symName: __ZNSt3__128__exception_guard_exceptionsINS_29_AllocatorDestroyRangeReverseINS_9allocatorI7MonsterEENS_16reverse_iteratorIPS3_EEEEEC1B8ue170006ES8_, symObjAddr: 0x8D58, symBinAddr: 0x100014884, symSize: 0x34 }
  - { offset: 0x68842, size: 0x8, addend: 0x0, symName: __ZNSt3__128__exception_guard_exceptionsINS_29_AllocatorDestroyRangeReverseINS_9allocatorI7MonsterEENS_16reverse_iteratorIPS3_EEEEEC2B8ue170006ES8_, symObjAddr: 0x8D8C, symBinAddr: 0x1000148B8, symSize: 0x30 }
  - { offset: 0x6887B, size: 0x8, addend: 0x0, symName: __ZNSt3__129_AllocatorDestroyRangeReverseINS_9allocatorI7MonsterEENS_16reverse_iteratorIPS2_EEEC2B8ue170006ERS3_RS6_S9_, symObjAddr: 0x8DBC, symBinAddr: 0x1000148E8, symSize: 0x38 }
  - { offset: 0x688D2, size: 0x8, addend: 0x0, symName: __ZNSt3__19allocatorI7MonsterE9constructB8ue170006IS1_JRKS1_EEEvPT_DpOT0_, symObjAddr: 0x8DF4, symBinAddr: 0x100014920, symSize: 0x30 }
  - { offset: 0x6892E, size: 0x8, addend: 0x0, symName: __ZNSt3__119__to_address_helperINS_16reverse_iteratorIP7MonsterEEvE6__callB8ue170006ERKS4_, symObjAddr: 0x8E24, symBinAddr: 0x100014950, symSize: 0x38 }
  - { offset: 0x68951, size: 0x8, addend: 0x0, symName: __ZNKSt3__116reverse_iteratorIP7MonsterEptB8ue170006Ev, symObjAddr: 0x8E5C, symBinAddr: 0x100014988, symSize: 0x24 }
  - { offset: 0x68977, size: 0x8, addend: 0x0, symName: __ZNSt3__128__exception_guard_exceptionsINS_29_AllocatorDestroyRangeReverseINS_9allocatorI7MonsterEENS_16reverse_iteratorIPS3_EEEEED2B8ue170006Ev, symObjAddr: 0x8E80, symBinAddr: 0x1000149AC, symSize: 0x50 }
  - { offset: 0x689A1, size: 0x8, addend: 0x0, symName: __ZNKSt3__129_AllocatorDestroyRangeReverseINS_9allocatorI7MonsterEENS_16reverse_iteratorIPS2_EEEclB8ue170006Ev, symObjAddr: 0x8ED0, symBinAddr: 0x1000149FC, symSize: 0xB4 }
  - { offset: 0x689C8, size: 0x8, addend: 0x0, symName: __ZNSt3__116reverse_iteratorINS0_IP7MonsterEEEC1B8ue170006ES3_, symObjAddr: 0x8FF4, symBinAddr: 0x100014B20, symSize: 0x3C }
  - { offset: 0x68A00, size: 0x8, addend: 0x0, symName: __ZNSt3__116reverse_iteratorINS0_IP7MonsterEEEppB8ue170006Ev, symObjAddr: 0x90E0, symBinAddr: 0x100014BE0, symSize: 0x30 }
  - { offset: 0x68A26, size: 0x8, addend: 0x0, symName: __ZNKSt3__116reverse_iteratorINS0_IP7MonsterEEE4baseB8ue170006Ev, symObjAddr: 0x9110, symBinAddr: 0x100014C10, symSize: 0x24 }
  - { offset: 0x68A52, size: 0x8, addend: 0x0, symName: __ZNSt3__119__to_address_helperINS_16reverse_iteratorINS1_IP7MonsterEEEEvE6__callB8ue170006ERKS5_, symObjAddr: 0x9164, symBinAddr: 0x100014C34, symSize: 0x38 }
  - { offset: 0x68A75, size: 0x8, addend: 0x0, symName: __ZNKSt3__116reverse_iteratorINS0_IP7MonsterEEEptB8ue170006Ev, symObjAddr: 0x919C, symBinAddr: 0x100014C6C, symSize: 0x24 }
  - { offset: 0x68A9B, size: 0x8, addend: 0x0, symName: __ZNKSt3__116reverse_iteratorINS0_IP7MonsterEEEdeB8ue170006Ev, symObjAddr: 0x91C0, symBinAddr: 0x100014C90, symSize: 0x34 }
  - { offset: 0x68ACF, size: 0x8, addend: 0x0, symName: __ZNSt3__116reverse_iteratorIP7MonsterEmmB8ue170006Ev, symObjAddr: 0x91F4, symBinAddr: 0x100014CC4, symSize: 0x20 }
  - { offset: 0x68AF5, size: 0x8, addend: 0x0, symName: __ZNSt3__116reverse_iteratorINS0_IP7MonsterEEEC2B8ue170006ES3_, symObjAddr: 0x9214, symBinAddr: 0x100014CE4, symSize: 0x2C }
  - { offset: 0x68B2D, size: 0x8, addend: 0x0, symName: __ZNSt3__116reverse_iteratorIP7MonsterEC2B8ue170006ES2_, symObjAddr: 0x9240, symBinAddr: 0x100014D10, symSize: 0x28 }
  - { offset: 0x68B65, size: 0x8, addend: 0x0, symName: __ZNSt3__114__split_bufferI7MonsterRNS_9allocatorIS1_EEED2Ev, symObjAddr: 0x9268, symBinAddr: 0x100014D38, symSize: 0x8C }
  - { offset: 0x68B91, size: 0x8, addend: 0x0, symName: __ZNSt3__114__split_bufferI7MonsterRNS_9allocatorIS1_EEE5clearB8ue170006Ev, symObjAddr: 0x92F4, symBinAddr: 0x100014DC4, symSize: 0x28 }
  - { offset: 0x68BB7, size: 0x8, addend: 0x0, symName: __ZNSt3__116allocator_traitsINS_9allocatorI7MonsterEEE10deallocateB8ue170006ERS3_PS2_m, symObjAddr: 0x931C, symBinAddr: 0x100014DEC, symSize: 0x34 }
  - { offset: 0x68BF9, size: 0x8, addend: 0x0, symName: __ZNKSt3__114__split_bufferI7MonsterRNS_9allocatorIS1_EEE8capacityB8ue170006Ev, symObjAddr: 0x9350, symBinAddr: 0x100014E20, symSize: 0x40 }
  - { offset: 0x68C1F, size: 0x8, addend: 0x0, symName: __ZNSt3__114__split_bufferI7MonsterRNS_9allocatorIS1_EEE17__destruct_at_endB8ue170006EPS1_, symObjAddr: 0x9390, symBinAddr: 0x100014E60, symSize: 0x2C }
  - { offset: 0x68C53, size: 0x8, addend: 0x0, symName: __ZNSt3__114__split_bufferI7MonsterRNS_9allocatorIS1_EEE17__destruct_at_endB8ue170006EPS1_NS_17integral_constantIbLb0EEE, symObjAddr: 0x93BC, symBinAddr: 0x100014E8C, symSize: 0x80 }
  - { offset: 0x68C93, size: 0x8, addend: 0x0, symName: __ZNSt3__19allocatorI7MonsterE10deallocateB8ue170006EPS1_m, symObjAddr: 0x943C, symBinAddr: 0x100014F0C, symSize: 0x44 }
  - { offset: 0x68CD5, size: 0x8, addend: 0x0, symName: __ZNKSt3__114__split_bufferI7MonsterRNS_9allocatorIS1_EEE9__end_capB8ue170006Ev, symObjAddr: 0x9480, symBinAddr: 0x100014F50, symSize: 0x28 }
  - { offset: 0x68CFB, size: 0x8, addend: 0x0, symName: __ZNKSt3__117__compressed_pairIP7MonsterRNS_9allocatorIS1_EEE5firstB8ue170006Ev, symObjAddr: 0x94A8, symBinAddr: 0x100014F78, symSize: 0x24 }
  - { offset: 0x7C62E, size: 0x8, addend: 0x0, symName: __ZNSt3__1neB8ue170006IP11TowerEntityEEbRKNS_11__wrap_iterIT_EES7_, symObjAddr: 0x8DC, symBinAddr: 0x10001583C, symSize: 0x34 }
  - { offset: 0x7C671, size: 0x8, addend: 0x0, symName: __ZNSt3__112__to_addressB8ue170006IN2sf7TextureEEEPT_S4_, symObjAddr: 0xF1C, symBinAddr: 0x100015E34, symSize: 0x14 }
  - { offset: 0x7C766, size: 0x8, addend: 0x0, symName: __ZNSt3__17launderB8ue170006INS_4pairIKPK11TowerEntityN15TowerEntityView15TowerEntityDataEEEEEPT_SA_, symObjAddr: 0x15E8, symBinAddr: 0x100016344, symSize: 0x24 }
  - { offset: 0x7C79D, size: 0x8, addend: 0x0, symName: __ZNSt3__19__launderB8ue170006INS_4pairIKPK11TowerEntityN15TowerEntityView15TowerEntityDataEEEEEPT_SA_, symObjAddr: 0x160C, symBinAddr: 0x100016368, symSize: 0x14 }
  - { offset: 0x7C8DE, size: 0x8, addend: 0x0, symName: __ZNSt3__1eqB8ue170006IP11TowerEntityEEbRKNS_11__wrap_iterIT_EES7_, symObjAddr: 0x467C, symBinAddr: 0x100016914, symSize: 0x48 }
  - { offset: 0x7C921, size: 0x8, addend: 0x0, symName: __ZNSt3__112__to_addressB8ue170006I11TowerEntityEEPT_S3_, symObjAddr: 0x46DC, symBinAddr: 0x100016974, symSize: 0x14 }
  - { offset: 0x7C956, size: 0x8, addend: 0x0, symName: __ZNSt3__119__allocate_at_leastB8ue170006INS_9allocatorI11TowerEntityEEEENS_19__allocation_resultINS_16allocator_traitsIT_E7pointerEEERS6_m, symObjAddr: 0x4D58, symBinAddr: 0x100016FF0, symSize: 0x40 }
  - { offset: 0x7C999, size: 0x8, addend: 0x0, symName: __ZNSt3__142__uninitialized_allocator_move_if_noexceptB8ue170006INS_9allocatorI11TowerEntityEENS_16reverse_iteratorIPS2_EES6_S6_EET2_RT_T0_T1_S7_, symObjAddr: 0x4FF8, symBinAddr: 0x100017290, symSize: 0x12C }
  - { offset: 0x7CA39, size: 0x8, addend: 0x0, symName: __ZNSt3__14swapB8ue170006IP11TowerEntityEENS_9enable_ifIXaasr21is_move_constructibleIT_EE5valuesr18is_move_assignableIS4_EE5valueEvE4typeERS4_S7_, symObjAddr: 0x5170, symBinAddr: 0x100017408, symSize: 0x3C }
  - { offset: 0x7CA8A, size: 0x8, addend: 0x0, symName: __ZNSt3__122__make_exception_guardB8ue170006INS_29_AllocatorDestroyRangeReverseINS_9allocatorI11TowerEntityEENS_16reverse_iteratorIPS3_EEEEEENS_28__exception_guard_exceptionsIT_EESA_, symObjAddr: 0x52E4, symBinAddr: 0x10001757C, symSize: 0x4C }
  - { offset: 0x7CAC0, size: 0x8, addend: 0x0, symName: __ZNSt3__1neB8ue170006IP11TowerEntityS2_EEbRKNS_16reverse_iteratorIT_EERKNS3_IT0_EE, symObjAddr: 0x5374, symBinAddr: 0x10001760C, symSize: 0x48 }
  - { offset: 0x7CB0C, size: 0x8, addend: 0x0, symName: __ZNSt3__112__to_addressB8ue170006INS_16reverse_iteratorIP11TowerEntityEEvEEu7__decayIDTclsr19__to_address_helperIT_EE6__callclsr3stdE7declvalIRKS5_EEEEES7_, symObjAddr: 0x53F0, symBinAddr: 0x100017688, symSize: 0x24 }
  - { offset: 0x7CB6B, size: 0x8, addend: 0x0, symName: __ZNSt3__119__allocator_destroyB8ue170006INS_9allocatorI11TowerEntityEENS_16reverse_iteratorINS4_IPS2_EEEES7_EEvRT_T0_T1_, symObjAddr: 0x60C4, symBinAddr: 0x100017A58, symSize: 0x70 }
  - { offset: 0x7CBD0, size: 0x8, addend: 0x0, symName: __ZNSt3__1neB8ue170006INS_16reverse_iteratorIP11TowerEntityEES4_EEbRKNS1_IT_EERKNS1_IT0_EE, symObjAddr: 0x6170, symBinAddr: 0x100017B04, symSize: 0x60 }
  - { offset: 0x7CC1C, size: 0x8, addend: 0x0, symName: __ZNSt3__112__to_addressB8ue170006INS_16reverse_iteratorINS1_IP11TowerEntityEEEEvEEu7__decayIDTclsr19__to_address_helperIT_EE6__callclsr3stdE7declvalIRKS6_EEEEES8_, symObjAddr: 0x61FC, symBinAddr: 0x100017B90, symSize: 0x24 }
  - { offset: 0x7CC7B, size: 0x8, addend: 0x0, symName: __ZNSt3__1miB8ue170006IPK11TowerEntityS3_EEDTmicldtfp_4baseEcldtfp0_4baseEERKNS_11__wrap_iterIT_EERKNS5_IT0_EE, symObjAddr: 0x6A34, symBinAddr: 0x10001839C, symSize: 0x48 }
  - { offset: 0x7CCC7, size: 0x8, addend: 0x0, symName: __ZNSt3__14moveB8ue170006IP11TowerEntityS2_EET0_T_S4_S3_, symObjAddr: 0x6AF4, symBinAddr: 0x10001845C, symSize: 0x40 }
  - { offset: 0x7CD21, size: 0x8, addend: 0x0, symName: __ZNSt3__16__moveB8ue170006INS_17_ClassicAlgPolicyEP11TowerEntityS3_S3_EENS_4pairIT0_T2_EES5_T1_S6_, symObjAddr: 0x6D5C, symBinAddr: 0x1000186C4, symSize: 0x44 }
  - { offset: 0x7CD8D, size: 0x8, addend: 0x0, symName: __ZNSt3__123__dispatch_copy_or_moveB8ue170006INS_17_ClassicAlgPolicyENS_11__move_loopIS1_EENS_14__move_trivialEP11TowerEntityS6_S6_EENS_4pairIT2_T4_EES8_T3_S9_, symObjAddr: 0x6DA0, symBinAddr: 0x100018708, symSize: 0x44 }
  - { offset: 0x7CE0B, size: 0x8, addend: 0x0, symName: __ZNSt3__121__unwrap_and_dispatchB8ue170006INS_10__overloadINS_11__move_loopINS_17_ClassicAlgPolicyEEENS_14__move_trivialEEEP11TowerEntityS8_S8_Li0EEENS_4pairIT0_T2_EESA_T1_SB_, symObjAddr: 0x6DE4, symBinAddr: 0x10001874C, symSize: 0xB4 }
  - { offset: 0x7CE99, size: 0x8, addend: 0x0, symName: __ZNSt3__114__unwrap_rangeB8ue170006IP11TowerEntityS2_EENS_4pairIT0_S4_EET_S6_, symObjAddr: 0x6E98, symBinAddr: 0x100018800, symSize: 0x60 }
  - { offset: 0x7CFB9, size: 0x8, addend: 0x0, symName: __ZNSt3__113__unwrap_iterB8ue170006IP11TowerEntityNS_18__unwrap_iter_implIS2_Lb1EEELi0EEEDTclsrT0_8__unwrapclsr3stdE7declvalIT_EEEES6_, symObjAddr: 0x6F88, symBinAddr: 0x1000188F0, symSize: 0x24 }
  - { offset: 0x7CFFD, size: 0x8, addend: 0x0, symName: __ZNSt3__19make_pairB8ue170006IP11TowerEntityS2_EENS_4pairINS_18__unwrap_ref_decayIT_E4typeENS4_IT0_E4typeEEEOS5_OS8_, symObjAddr: 0x6FAC, symBinAddr: 0x100018914, symSize: 0x38 }
  - { offset: 0x7D04C, size: 0x8, addend: 0x0, symName: __ZNSt3__114__rewrap_rangeB8ue170006IP11TowerEntityS2_EET_S3_T0_, symObjAddr: 0x6FE4, symBinAddr: 0x10001894C, symSize: 0x2C }
  - { offset: 0x7D098, size: 0x8, addend: 0x0, symName: __ZNSt3__113__rewrap_iterB8ue170006IP11TowerEntityS2_NS_18__unwrap_iter_implIS2_Lb1EEEEET_S5_T0_, symObjAddr: 0x7010, symBinAddr: 0x100018978, symSize: 0x3C }
  - { offset: 0x7F44D, size: 0x8, addend: 0x0, symName: __ZNSt3__16vectorI11TowerEntityNS_9allocatorIS1_EEE26__swap_out_circular_bufferERNS_14__split_bufferIS1_RS3_EE, symObjAddr: 0x49C4, symBinAddr: 0x100016C5C, symSize: 0x110 }
  - { offset: 0x7F631, size: 0x8, addend: 0x0, symName: __ZN12TowerManagerC2ERN2sf12RenderWindowE, symObjAddr: 0x0, symBinAddr: 0x100014F9C, symSize: 0xA0 }
  - { offset: 0x7F66B, size: 0x8, addend: 0x0, symName: __ZN2sf7Vector2IiEC1Ev, symObjAddr: 0xA0, symBinAddr: 0x10001503C, symSize: 0x2C }
  - { offset: 0x7F697, size: 0x8, addend: 0x0, symName: __ZNSt3__16vectorI11TowerEntityNS_9allocatorIS1_EEEC1B8ue170006Ev, symObjAddr: 0xCC, symBinAddr: 0x100015068, symSize: 0x2C }
  - { offset: 0x7F6C1, size: 0x8, addend: 0x0, symName: __ZN15TowerEntityViewD1Ev, symObjAddr: 0xF8, symBinAddr: 0x100015094, symSize: 0x2C }
  - { offset: 0x7F6EB, size: 0x8, addend: 0x0, symName: __ZN12TowerManagerC1ERN2sf12RenderWindowE, symObjAddr: 0x124, symBinAddr: 0x1000150C0, symSize: 0x34 }
  - { offset: 0x7F725, size: 0x8, addend: 0x0, symName: __ZN12TowerManager19InitializeGameSetupEv, symObjAddr: 0x158, symBinAddr: 0x1000150F4, symSize: 0x288 }
  - { offset: 0x7F76B, size: 0x8, addend: 0x0, symName: __ZNSt3__16vectorI11TowerEntityNS_9allocatorIS1_EEE7reserveEm, symObjAddr: 0x3E0, symBinAddr: 0x10001537C, symSize: 0xE8 }
  - { offset: 0x7F7CD, size: 0x8, addend: 0x0, symName: __ZNSt3__16vectorI11TowerEntityNS_9allocatorIS1_EEE12emplace_backIJS1_EEERS1_DpOT_, symObjAddr: 0x4C8, symBinAddr: 0x100015464, symSize: 0x74 }
  - { offset: 0x7F80F, size: 0x8, addend: 0x0, symName: __ZN11TowerEntityD1Ev, symObjAddr: 0x53C, symBinAddr: 0x1000154D8, symSize: 0x2C }
  - { offset: 0x7F839, size: 0x8, addend: 0x0, symName: __ZNKSt3__16vectorI11TowerEntityNS_9allocatorIS1_EEE4sizeB8ue170006Ev, symObjAddr: 0x568, symBinAddr: 0x100015504, symSize: 0x28 }
  - { offset: 0x7F85F, size: 0x8, addend: 0x0, symName: __ZNSt3__16vectorI11TowerEntityNS_9allocatorIS1_EEEixB8ue170006Em, symObjAddr: 0x590, symBinAddr: 0x10001552C, symSize: 0x2C }
  - { offset: 0x7F896, size: 0x8, addend: 0x0, symName: __ZN11TowerEntity7SetCostEi, symObjAddr: 0x5F8, symBinAddr: 0x100015558, symSize: 0x30 }
  - { offset: 0x7F8CA, size: 0x8, addend: 0x0, symName: __ZN11TowerEntity13SetIsTemplateEb, symObjAddr: 0x628, symBinAddr: 0x100015588, symSize: 0x3C }
  - { offset: 0x7F8FE, size: 0x8, addend: 0x0, symName: __ZN12TowerManager11CreateTowerEN14TowerGenerator9TowerTypeERKN2sf7Vector2IfEE, symObjAddr: 0x664, symBinAddr: 0x1000155C4, symSize: 0xC8 }
  - { offset: 0x7F950, size: 0x8, addend: 0x0, symName: __ZNSt3__16vectorI11TowerEntityNS_9allocatorIS1_EEE4backB8ue170006Ev, symObjAddr: 0x72C, symBinAddr: 0x10001568C, symSize: 0x1C }
  - { offset: 0x7F976, size: 0x8, addend: 0x0, symName: __ZN12TowerManager11RemoveTowerERKN2sf7Vector2IfEE, symObjAddr: 0x748, symBinAddr: 0x1000156A8, symSize: 0x164 }
  - { offset: 0x7F9C8, size: 0x8, addend: 0x0, symName: __ZNSt3__16vectorI11TowerEntityNS_9allocatorIS1_EEE5beginB8ue170006Ev, symObjAddr: 0x8AC, symBinAddr: 0x10001580C, symSize: 0x30 }
  - { offset: 0x7F9F0, size: 0x8, addend: 0x0, symName: __ZNSt3__16vectorI11TowerEntityNS_9allocatorIS1_EEE3endB8ue170006Ev, symObjAddr: 0x910, symBinAddr: 0x100015870, symSize: 0x30 }
  - { offset: 0x7FA17, size: 0x8, addend: 0x0, symName: __Z3absB8ue170006f, symObjAddr: 0x940, symBinAddr: 0x1000158A0, symSize: 0x18 }
  - { offset: 0x7FA44, size: 0x8, addend: 0x0, symName: __ZNKSt3__111__wrap_iterIP11TowerEntityEptB8ue170006Ev, symObjAddr: 0x958, symBinAddr: 0x1000158B8, symSize: 0x28 }
  - { offset: 0x7FA6A, size: 0x8, addend: 0x0, symName: __ZNSt3__16vectorI11TowerEntityNS_9allocatorIS1_EEE5eraseB8ue170006ENS_11__wrap_iterIPKS1_EE, symObjAddr: 0x9B8, symBinAddr: 0x1000158E0, symSize: 0x9C }
  - { offset: 0x7FACA, size: 0x8, addend: 0x0, symName: __ZNSt3__111__wrap_iterIPK11TowerEntityEC1B8ue170006IPS1_EERKNS0_IT_EEPNS_9enable_ifIXsr14is_convertibleIS7_S3_EE5valueEvE4typeE, symObjAddr: 0xA54, symBinAddr: 0x10001597C, symSize: 0x3C }
  - { offset: 0x7FB15, size: 0x8, addend: 0x0, symName: __ZNSt3__111__wrap_iterIP11TowerEntityEppB8ue170006Ev, symObjAddr: 0xA90, symBinAddr: 0x1000159B8, symSize: 0x20 }
  - { offset: 0x7FB3B, size: 0x8, addend: 0x0, symName: __ZN15TowerEntityViewD2Ev, symObjAddr: 0xAB0, symBinAddr: 0x1000159D8, symSize: 0x78 }
  - { offset: 0x7FB65, size: 0x8, addend: 0x0, symName: __ZNSt3__16vectorIN2sf7TextureENS_9allocatorIS2_EEED1B8ue170006Ev, symObjAddr: 0xB28, symBinAddr: 0x100015A50, symSize: 0x2C }
  - { offset: 0x7FB8F, size: 0x8, addend: 0x0, symName: __ZNSt3__113unordered_mapIPK11TowerEntityN15TowerEntityView15TowerEntityDataENS_4hashIS3_EENS_8equal_toIS3_EENS_9allocatorINS_4pairIKS3_S5_EEEEED1B8ue170006Ev, symObjAddr: 0xB54, symBinAddr: 0x100015A7C, symSize: 0x2C }
  - { offset: 0x7FBB9, size: 0x8, addend: 0x0, symName: __ZN13IGameObserverD2Ev, symObjAddr: 0xB80, symBinAddr: 0x100015AA8, symSize: 0x14 }
  - { offset: 0x7FBE3, size: 0x8, addend: 0x0, symName: __ZNSt3__16vectorIN2sf7TextureENS_9allocatorIS2_EEED2B8ue170006Ev, symObjAddr: 0xB94, symBinAddr: 0x100015ABC, symSize: 0x44 }
  - { offset: 0x7FC0D, size: 0x8, addend: 0x0, symName: __ZNSt3__16vectorIN2sf7TextureENS_9allocatorIS2_EEE16__destroy_vectorC1B8ue170006ERS5_, symObjAddr: 0xBD8, symBinAddr: 0x100015B00, symSize: 0x34 }
  - { offset: 0x7FC46, size: 0x8, addend: 0x0, symName: __ZNSt3__16vectorIN2sf7TextureENS_9allocatorIS2_EEE16__destroy_vectorclB8ue170006Ev, symObjAddr: 0xC1C, symBinAddr: 0x100015B34, symSize: 0x90 }
  - { offset: 0x7FC6C, size: 0x8, addend: 0x0, symName: __ZNSt3__16vectorIN2sf7TextureENS_9allocatorIS2_EEE16__destroy_vectorC2B8ue170006ERS5_, symObjAddr: 0xCAC, symBinAddr: 0x100015BC4, symSize: 0x20 }
  - { offset: 0x7FCA5, size: 0x8, addend: 0x0, symName: __ZNSt3__16vectorIN2sf7TextureENS_9allocatorIS2_EEE7__clearB8ue170006Ev, symObjAddr: 0xCCC, symBinAddr: 0x100015BE4, symSize: 0x28 }
  - { offset: 0x7FCCB, size: 0x8, addend: 0x0, symName: __ZNKSt3__16vectorIN2sf7TextureENS_9allocatorIS2_EEE17__annotate_deleteB8ue170006Ev, symObjAddr: 0xCF4, symBinAddr: 0x100015C0C, symSize: 0xD4 }
  - { offset: 0x7FCF1, size: 0x8, addend: 0x0, symName: __ZNSt3__116allocator_traitsINS_9allocatorIN2sf7TextureEEEE10deallocateB8ue170006ERS4_PS3_m, symObjAddr: 0xDC8, symBinAddr: 0x100015CE0, symSize: 0x34 }
  - { offset: 0x7FD33, size: 0x8, addend: 0x0, symName: __ZNSt3__16vectorIN2sf7TextureENS_9allocatorIS2_EEE7__allocB8ue170006Ev, symObjAddr: 0xDFC, symBinAddr: 0x100015D14, symSize: 0x28 }
  - { offset: 0x7FD59, size: 0x8, addend: 0x0, symName: __ZNKSt3__16vectorIN2sf7TextureENS_9allocatorIS2_EEE8capacityB8ue170006Ev, symObjAddr: 0xE24, symBinAddr: 0x100015D3C, symSize: 0x40 }
  - { offset: 0x7FD7F, size: 0x8, addend: 0x0, symName: __ZNSt3__16vectorIN2sf7TextureENS_9allocatorIS2_EEE22__base_destruct_at_endB8ue170006EPS2_, symObjAddr: 0xE64, symBinAddr: 0x100015D7C, symSize: 0x8C }
  - { offset: 0x7FDC3, size: 0x8, addend: 0x0, symName: __ZNSt3__116allocator_traitsINS_9allocatorIN2sf7TextureEEEE7destroyB8ue170006IS3_vEEvRS4_PT_, symObjAddr: 0xEF0, symBinAddr: 0x100015E08, symSize: 0x2C }
  - { offset: 0x7FE00, size: 0x8, addend: 0x0, symName: __ZNSt3__19allocatorIN2sf7TextureEE7destroyB8ue170006EPS2_, symObjAddr: 0xF30, symBinAddr: 0x100015E48, symSize: 0x28 }
  - { offset: 0x7FE34, size: 0x8, addend: 0x0, symName: __ZNKSt3__16vectorIN2sf7TextureENS_9allocatorIS2_EEE31__annotate_contiguous_containerB8ue170006EPKvS7_S7_S7_, symObjAddr: 0xF58, symBinAddr: 0x100015E70, symSize: 0x20 }
  - { offset: 0x7FE86, size: 0x8, addend: 0x0, symName: __ZNKSt3__16vectorIN2sf7TextureENS_9allocatorIS2_EEE4dataB8ue170006Ev, symObjAddr: 0xF78, symBinAddr: 0x100015E90, symSize: 0x28 }
  - { offset: 0x7FEAC, size: 0x8, addend: 0x0, symName: __ZNKSt3__16vectorIN2sf7TextureENS_9allocatorIS2_EEE4sizeB8ue170006Ev, symObjAddr: 0xFA0, symBinAddr: 0x100015EB8, symSize: 0x28 }
  - { offset: 0x7FED2, size: 0x8, addend: 0x0, symName: __ZNSt3__19allocatorIN2sf7TextureEE10deallocateB8ue170006EPS2_m, symObjAddr: 0xFC8, symBinAddr: 0x100015EE0, symSize: 0x44 }
  - { offset: 0x7FF14, size: 0x8, addend: 0x0, symName: __ZNSt3__117__compressed_pairIPN2sf7TextureENS_9allocatorIS2_EEE6secondB8ue170006Ev, symObjAddr: 0x1134, symBinAddr: 0x100015F24, symSize: 0x24 }
  - { offset: 0x7FF3A, size: 0x8, addend: 0x0, symName: __ZNSt3__122__compressed_pair_elemINS_9allocatorIN2sf7TextureEEELi1ELb1EE5__getB8ue170006Ev, symObjAddr: 0x1158, symBinAddr: 0x100015F48, symSize: 0x14 }
  - { offset: 0x7FF60, size: 0x8, addend: 0x0, symName: __ZNKSt3__16vectorIN2sf7TextureENS_9allocatorIS2_EEE9__end_capB8ue170006Ev, symObjAddr: 0x116C, symBinAddr: 0x100015F5C, symSize: 0x28 }
  - { offset: 0x7FF86, size: 0x8, addend: 0x0, symName: __ZNKSt3__117__compressed_pairIPN2sf7TextureENS_9allocatorIS2_EEE5firstB8ue170006Ev, symObjAddr: 0x1194, symBinAddr: 0x100015F84, symSize: 0x24 }
  - { offset: 0x7FFAC, size: 0x8, addend: 0x0, symName: __ZNKSt3__122__compressed_pair_elemIPN2sf7TextureELi0ELb0EE5__getB8ue170006Ev, symObjAddr: 0x11B8, symBinAddr: 0x100015FA8, symSize: 0x14 }
  - { offset: 0x7FFD2, size: 0x8, addend: 0x0, symName: __ZNSt3__113unordered_mapIPK11TowerEntityN15TowerEntityView15TowerEntityDataENS_4hashIS3_EENS_8equal_toIS3_EENS_9allocatorINS_4pairIKS3_S5_EEEEED2B8ue170006Ev, symObjAddr: 0x11CC, symBinAddr: 0x100015FBC, symSize: 0x2C }
  - { offset: 0x7FFFC, size: 0x8, addend: 0x0, symName: __ZNSt3__112__hash_tableINS_17__hash_value_typeIPK11TowerEntityN15TowerEntityView15TowerEntityDataEEENS_22__unordered_map_hasherIS4_S7_NS_4hashIS4_EENS_8equal_toIS4_EELb1EEENS_21__unordered_map_equalIS4_S7_SC_SA_Lb1EEENS_9allocatorIS7_EEED1Ev, symObjAddr: 0x11F8, symBinAddr: 0x100015FE8, symSize: 0x2C }
  - { offset: 0x80028, size: 0x8, addend: 0x0, symName: __ZNSt3__112__hash_tableINS_17__hash_value_typeIPK11TowerEntityN15TowerEntityView15TowerEntityDataEEENS_22__unordered_map_hasherIS4_S7_NS_4hashIS4_EENS_8equal_toIS4_EELb1EEENS_21__unordered_map_equalIS4_S7_SC_SA_Lb1EEENS_9allocatorIS7_EEED2Ev, symObjAddr: 0x1224, symBinAddr: 0x100016014, symSize: 0x48 }
  - { offset: 0x80054, size: 0x8, addend: 0x0, symName: __ZNSt3__112__hash_tableINS_17__hash_value_typeIPK11TowerEntityN15TowerEntityView15TowerEntityDataEEENS_22__unordered_map_hasherIS4_S7_NS_4hashIS4_EENS_8equal_toIS4_EELb1EEENS_21__unordered_map_equalIS4_S7_SC_SA_Lb1EEENS_9allocatorIS7_EEE17__deallocate_nodeEPNS_16__hash_node_baseIPNS_11__hash_nodeIS7_PvEEEE, symObjAddr: 0x126C, symBinAddr: 0x10001605C, symSize: 0xA8 }
  - { offset: 0x800BE, size: 0x8, addend: 0x0, symName: __ZNSt3__117__compressed_pairINS_16__hash_node_baseIPNS_11__hash_nodeINS_17__hash_value_typeIPK11TowerEntityN15TowerEntityView15TowerEntityDataEEEPvEEEENS_9allocatorISB_EEE5firstB8ue170006Ev, symObjAddr: 0x1314, symBinAddr: 0x100016104, symSize: 0x24 }
  - { offset: 0x800E4, size: 0x8, addend: 0x0, symName: __ZNSt3__110unique_ptrIA_PNS_16__hash_node_baseIPNS_11__hash_nodeINS_17__hash_value_typeIPK11TowerEntityN15TowerEntityView15TowerEntityDataEEEPvEEEENS_25__bucket_list_deallocatorINS_9allocatorISE_EEEEED1B8ue170006Ev, symObjAddr: 0x1338, symBinAddr: 0x100016128, symSize: 0x2C }
  - { offset: 0x8010E, size: 0x8, addend: 0x0, symName: __ZNSt3__112__hash_tableINS_17__hash_value_typeIPK11TowerEntityN15TowerEntityView15TowerEntityDataEEENS_22__unordered_map_hasherIS4_S7_NS_4hashIS4_EENS_8equal_toIS4_EELb1EEENS_21__unordered_map_equalIS4_S7_SC_SA_Lb1EEENS_9allocatorIS7_EEE12__node_allocB8ue170006Ev, symObjAddr: 0x1364, symBinAddr: 0x100016154, symSize: 0x28 }
  - { offset: 0x80134, size: 0x8, addend: 0x0, symName: __ZNSt3__116__hash_node_baseIPNS_11__hash_nodeINS_17__hash_value_typeIPK11TowerEntityN15TowerEntityView15TowerEntityDataEEEPvEEE8__upcastB8ue170006Ev, symObjAddr: 0x138C, symBinAddr: 0x10001617C, symSize: 0x24 }
  - { offset: 0x80160, size: 0x8, addend: 0x0, symName: __ZNSt3__116allocator_traitsINS_9allocatorINS_11__hash_nodeINS_17__hash_value_typeIPK11TowerEntityN15TowerEntityView15TowerEntityDataEEEPvEEEEE7destroyB8ue170006INS_4pairIKS6_S8_EEvvEEvRSC_PT_, symObjAddr: 0x13B0, symBinAddr: 0x1000161A0, symSize: 0x28 }
  - { offset: 0x8019A, size: 0x8, addend: 0x0, symName: __ZNSt3__122__hash_key_value_typesINS_17__hash_value_typeIPK11TowerEntityN15TowerEntityView15TowerEntityDataEEEE9__get_ptrB8ue170006ERS7_, symObjAddr: 0x13D8, symBinAddr: 0x1000161C8, symSize: 0x24 }
  - { offset: 0x801BD, size: 0x8, addend: 0x0, symName: __ZNSt3__116allocator_traitsINS_9allocatorINS_11__hash_nodeINS_17__hash_value_typeIPK11TowerEntityN15TowerEntityView15TowerEntityDataEEEPvEEEEE10deallocateB8ue170006ERSC_PSB_m, symObjAddr: 0x13FC, symBinAddr: 0x1000161EC, symSize: 0x34 }
  - { offset: 0x801FF, size: 0x8, addend: 0x0, symName: __ZNSt3__117__compressed_pairINS_16__hash_node_baseIPNS_11__hash_nodeINS_17__hash_value_typeIPK11TowerEntityN15TowerEntityView15TowerEntityDataEEEPvEEEENS_9allocatorISB_EEE6secondB8ue170006Ev, symObjAddr: 0x1430, symBinAddr: 0x100016220, symSize: 0x24 }
  - { offset: 0x80225, size: 0x8, addend: 0x0, symName: __ZNSt3__122__compressed_pair_elemINS_9allocatorINS_11__hash_nodeINS_17__hash_value_typeIPK11TowerEntityN15TowerEntityView15TowerEntityDataEEEPvEEEELi1ELb1EE5__getB8ue170006Ev, symObjAddr: 0x1454, symBinAddr: 0x100016244, symSize: 0x14 }
  - { offset: 0x8024B, size: 0x8, addend: 0x0, symName: __ZNSt3__114pointer_traitsIPNS_16__hash_node_baseIPNS_11__hash_nodeINS_17__hash_value_typeIPK11TowerEntityN15TowerEntityView15TowerEntityDataEEEPvEEEEE10pointer_toB8ue170006ERSD_, symObjAddr: 0x1468, symBinAddr: 0x100016258, symSize: 0x14 }
  - { offset: 0x8026E, size: 0x8, addend: 0x0, symName: __ZNSt3__14pairIKPK11TowerEntityN15TowerEntityView15TowerEntityDataEED1Ev, symObjAddr: 0x147C, symBinAddr: 0x10001626C, symSize: 0x2C }
  - { offset: 0x8029A, size: 0x8, addend: 0x0, symName: __ZNSt3__14pairIKPK11TowerEntityN15TowerEntityView15TowerEntityDataEED2Ev, symObjAddr: 0x14A8, symBinAddr: 0x100016298, symSize: 0x30 }
  - { offset: 0x802CB, size: 0x8, addend: 0x0, symName: __ZN15TowerEntityView15TowerEntityDataD1Ev, symObjAddr: 0x14D8, symBinAddr: 0x1000162C8, symSize: 0x2C }
  - { offset: 0x802F7, size: 0x8, addend: 0x0, symName: __ZN15TowerEntityView15TowerEntityDataD2Ev, symObjAddr: 0x1504, symBinAddr: 0x1000162F4, symSize: 0x2C }
  - { offset: 0x80323, size: 0x8, addend: 0x0, symName: __ZNSt3__117__hash_value_typeIPK11TowerEntityN15TowerEntityView15TowerEntityDataEE11__get_valueB8ue170006Ev, symObjAddr: 0x15C4, symBinAddr: 0x100016320, symSize: 0x24 }
  - { offset: 0x80349, size: 0x8, addend: 0x0, symName: __ZNSt3__19allocatorINS_11__hash_nodeINS_17__hash_value_typeIPK11TowerEntityN15TowerEntityView15TowerEntityDataEEEPvEEE10deallocateB8ue170006EPSA_m, symObjAddr: 0x1620, symBinAddr: 0x10001637C, symSize: 0x44 }
  - { offset: 0x8038B, size: 0x8, addend: 0x0, symName: __ZNSt3__122__compressed_pair_elemINS_16__hash_node_baseIPNS_11__hash_nodeINS_17__hash_value_typeIPK11TowerEntityN15TowerEntityView15TowerEntityDataEEEPvEEEELi0ELb0EE5__getB8ue170006Ev, symObjAddr: 0x1664, symBinAddr: 0x1000163C0, symSize: 0x14 }
  - { offset: 0x803B1, size: 0x8, addend: 0x0, symName: __ZNSt3__110unique_ptrIA_PNS_16__hash_node_baseIPNS_11__hash_nodeINS_17__hash_value_typeIPK11TowerEntityN15TowerEntityView15TowerEntityDataEEEPvEEEENS_25__bucket_list_deallocatorINS_9allocatorISE_EEEEED2B8ue170006Ev, symObjAddr: 0x1678, symBinAddr: 0x1000163D4, symSize: 0x30 }
  - { offset: 0x803DB, size: 0x8, addend: 0x0, symName: __ZNSt3__110unique_ptrIA_PNS_16__hash_node_baseIPNS_11__hash_nodeINS_17__hash_value_typeIPK11TowerEntityN15TowerEntityView15TowerEntityDataEEEPvEEEENS_25__bucket_list_deallocatorINS_9allocatorISE_EEEEE5resetB8ue170006EDn, symObjAddr: 0x16A8, symBinAddr: 0x100016404, symSize: 0x6C }
  - { offset: 0x8041B, size: 0x8, addend: 0x0, symName: __ZNSt3__117__compressed_pairIPPNS_16__hash_node_baseIPNS_11__hash_nodeINS_17__hash_value_typeIPK11TowerEntityN15TowerEntityView15TowerEntityDataEEEPvEEEENS_25__bucket_list_deallocatorINS_9allocatorISE_EEEEE5firstB8ue170006Ev, symObjAddr: 0x1714, symBinAddr: 0x100016470, symSize: 0x24 }
  - { offset: 0x80441, size: 0x8, addend: 0x0, symName: __ZNSt3__117__compressed_pairIPPNS_16__hash_node_baseIPNS_11__hash_nodeINS_17__hash_value_typeIPK11TowerEntityN15TowerEntityView15TowerEntityDataEEEPvEEEENS_25__bucket_list_deallocatorINS_9allocatorISE_EEEEE6secondB8ue170006Ev, symObjAddr: 0x1738, symBinAddr: 0x100016494, symSize: 0x28 }
  - { offset: 0x80467, size: 0x8, addend: 0x0, symName: __ZNSt3__125__bucket_list_deallocatorINS_9allocatorIPNS_16__hash_node_baseIPNS_11__hash_nodeINS_17__hash_value_typeIPK11TowerEntityN15TowerEntityView15TowerEntityDataEEEPvEEEEEEEclB8ue170006EPSF_, symObjAddr: 0x1760, symBinAddr: 0x1000164BC, symSize: 0x58 }
  - { offset: 0x8049C, size: 0x8, addend: 0x0, symName: __ZNSt3__122__compressed_pair_elemIPPNS_16__hash_node_baseIPNS_11__hash_nodeINS_17__hash_value_typeIPK11TowerEntityN15TowerEntityView15TowerEntityDataEEEPvEEEELi0ELb0EE5__getB8ue170006Ev, symObjAddr: 0x17B8, symBinAddr: 0x100016514, symSize: 0x14 }
  - { offset: 0x804C2, size: 0x8, addend: 0x0, symName: __ZNSt3__122__compressed_pair_elemINS_25__bucket_list_deallocatorINS_9allocatorIPNS_16__hash_node_baseIPNS_11__hash_nodeINS_17__hash_value_typeIPK11TowerEntityN15TowerEntityView15TowerEntityDataEEEPvEEEEEEEELi1ELb0EE5__getB8ue170006Ev, symObjAddr: 0x17CC, symBinAddr: 0x100016528, symSize: 0x14 }
  - { offset: 0x804E8, size: 0x8, addend: 0x0, symName: __ZNSt3__116allocator_traitsINS_9allocatorIPNS_16__hash_node_baseIPNS_11__hash_nodeINS_17__hash_value_typeIPK11TowerEntityN15TowerEntityView15TowerEntityDataEEEPvEEEEEEE10deallocateB8ue170006ERSG_PSF_m, symObjAddr: 0x17E0, symBinAddr: 0x10001653C, symSize: 0x34 }
  - { offset: 0x8052A, size: 0x8, addend: 0x0, symName: __ZNSt3__125__bucket_list_deallocatorINS_9allocatorIPNS_16__hash_node_baseIPNS_11__hash_nodeINS_17__hash_value_typeIPK11TowerEntityN15TowerEntityView15TowerEntityDataEEEPvEEEEEEE7__allocB8ue170006Ev, symObjAddr: 0x1814, symBinAddr: 0x100016570, symSize: 0x24 }
  - { offset: 0x80550, size: 0x8, addend: 0x0, symName: __ZNSt3__125__bucket_list_deallocatorINS_9allocatorIPNS_16__hash_node_baseIPNS_11__hash_nodeINS_17__hash_value_typeIPK11TowerEntityN15TowerEntityView15TowerEntityDataEEEPvEEEEEEE4sizeB8ue170006Ev, symObjAddr: 0x1838, symBinAddr: 0x100016594, symSize: 0x24 }
  - { offset: 0x80576, size: 0x8, addend: 0x0, symName: __ZNSt3__19allocatorIPNS_16__hash_node_baseIPNS_11__hash_nodeINS_17__hash_value_typeIPK11TowerEntityN15TowerEntityView15TowerEntityDataEEEPvEEEEE10deallocateB8ue170006EPSE_m, symObjAddr: 0x185C, symBinAddr: 0x1000165B8, symSize: 0x40 }
  - { offset: 0x805B8, size: 0x8, addend: 0x0, symName: __ZNSt3__117__compressed_pairImNS_9allocatorIPNS_16__hash_node_baseIPNS_11__hash_nodeINS_17__hash_value_typeIPK11TowerEntityN15TowerEntityView15TowerEntityDataEEEPvEEEEEEE6secondB8ue170006Ev, symObjAddr: 0x189C, symBinAddr: 0x1000165F8, symSize: 0x24 }
  - { offset: 0x805DE, size: 0x8, addend: 0x0, symName: __ZNSt3__122__compressed_pair_elemINS_9allocatorIPNS_16__hash_node_baseIPNS_11__hash_nodeINS_17__hash_value_typeIPK11TowerEntityN15TowerEntityView15TowerEntityDataEEEPvEEEEEELi1ELb1EE5__getB8ue170006Ev, symObjAddr: 0x18C0, symBinAddr: 0x10001661C, symSize: 0x14 }
  - { offset: 0x80604, size: 0x8, addend: 0x0, symName: __ZNSt3__117__compressed_pairImNS_9allocatorIPNS_16__hash_node_baseIPNS_11__hash_nodeINS_17__hash_value_typeIPK11TowerEntityN15TowerEntityView15TowerEntityDataEEEPvEEEEEEE5firstB8ue170006Ev, symObjAddr: 0x18D4, symBinAddr: 0x100016630, symSize: 0x24 }
  - { offset: 0x8062A, size: 0x8, addend: 0x0, symName: __ZNSt3__122__compressed_pair_elemImLi0ELb0EE5__getB8ue170006Ev, symObjAddr: 0x18F8, symBinAddr: 0x100016654, symSize: 0x14 }
  - { offset: 0x80650, size: 0x8, addend: 0x0, symName: __ZN11TowerEntityD2Ev, symObjAddr: 0x190C, symBinAddr: 0x100016668, symSize: 0x5C }
  - { offset: 0x8067A, size: 0x8, addend: 0x0, symName: __ZThn320_N11TowerEntityD1Ev, symObjAddr: 0x1968, symBinAddr: 0x1000166C4, symSize: 0x1C }
  - { offset: 0x80690, size: 0x8, addend: 0x0, symName: __ZN11TowerEntityD0Ev, symObjAddr: 0x19C4, symBinAddr: 0x1000166E0, symSize: 0x30 }
  - { offset: 0x806BA, size: 0x8, addend: 0x0, symName: __ZN11TowerEntity11SetPositionERKN2sf7Vector2IfEE, symObjAddr: 0x1A2C, symBinAddr: 0x100016710, symSize: 0x38 }
  - { offset: 0x806EE, size: 0x8, addend: 0x0, symName: __ZN11TowerEntity11AddObserverEP13IGameObserver, symObjAddr: 0x1A64, symBinAddr: 0x100016748, symSize: 0x34 }
  - { offset: 0x80722, size: 0x8, addend: 0x0, symName: __ZN11TowerEntity14RemoveObserverEP13IGameObserver, symObjAddr: 0x1A98, symBinAddr: 0x10001677C, symSize: 0xAC }
  - { offset: 0x80756, size: 0x8, addend: 0x0, symName: __ZThn320_N11TowerEntityD0Ev, symObjAddr: 0x1B44, symBinAddr: 0x100016828, symSize: 0x18 }
  - { offset: 0x8076C, size: 0x8, addend: 0x0, symName: __ZThn320_N11TowerEntity11AddObserverEP13IGameObserver, symObjAddr: 0x1B5C, symBinAddr: 0x100016840, symSize: 0x20 }
  - { offset: 0x80782, size: 0x8, addend: 0x0, symName: __ZThn320_N11TowerEntity14RemoveObserverEP13IGameObserver, symObjAddr: 0x1B7C, symBinAddr: 0x100016860, symSize: 0x20 }
  - { offset: 0x80798, size: 0x8, addend: 0x0, symName: __ZN11TowerEntity18NotifyStatsChangedEv, symObjAddr: 0x2098, symBinAddr: 0x100016880, symSize: 0x94 }
  - { offset: 0x8083A, size: 0x8, addend: 0x0, symName: __ZNKSt3__111__wrap_iterIP11TowerEntityE4baseB8ue170006Ev, symObjAddr: 0x46C4, symBinAddr: 0x10001695C, symSize: 0x18 }
  - { offset: 0x80860, size: 0x8, addend: 0x0, symName: __ZNSt3__111__wrap_iterIPK11TowerEntityEC2B8ue170006IPS1_EERKNS0_IT_EEPNS_9enable_ifIXsr14is_convertibleIS7_S3_EE5valueEvE4typeE, symObjAddr: 0x46F0, symBinAddr: 0x100016988, symSize: 0x40 }
  - { offset: 0x808AB, size: 0x8, addend: 0x0, symName: __ZN2sf7Vector2IiEC2Ev, symObjAddr: 0x4730, symBinAddr: 0x1000169C8, symSize: 0x1C }
  - { offset: 0x808D7, size: 0x8, addend: 0x0, symName: __ZNSt3__16vectorI11TowerEntityNS_9allocatorIS1_EEEC2B8ue170006Ev, symObjAddr: 0x474C, symBinAddr: 0x1000169E4, symSize: 0x4C }
  - { offset: 0x80907, size: 0x8, addend: 0x0, symName: __ZNSt3__117__compressed_pairIP11TowerEntityNS_9allocatorIS1_EEEC1B8ue170006IDnNS_18__default_init_tagEEEOT_OT0_, symObjAddr: 0x4798, symBinAddr: 0x100016A30, symSize: 0x3C }
  - { offset: 0x8095F, size: 0x8, addend: 0x0, symName: __ZNSt3__117__compressed_pairIP11TowerEntityNS_9allocatorIS1_EEEC2B8ue170006IDnNS_18__default_init_tagEEEOT_OT0_, symObjAddr: 0x47D4, symBinAddr: 0x100016A6C, symSize: 0x40 }
  - { offset: 0x809B7, size: 0x8, addend: 0x0, symName: __ZNSt3__122__compressed_pair_elemIP11TowerEntityLi0ELb0EEC2B8ue170006IDnvEEOT_, symObjAddr: 0x4814, symBinAddr: 0x100016AAC, symSize: 0x1C }
  - { offset: 0x809F9, size: 0x8, addend: 0x0, symName: __ZNSt3__122__compressed_pair_elemINS_9allocatorI11TowerEntityEELi1ELb1EEC2B8ue170006ENS_18__default_init_tagE, symObjAddr: 0x4830, symBinAddr: 0x100016AC8, symSize: 0x2C }
  - { offset: 0x80A2D, size: 0x8, addend: 0x0, symName: __ZNSt3__19allocatorI11TowerEntityEC2B8ue170006Ev, symObjAddr: 0x485C, symBinAddr: 0x100016AF4, symSize: 0x2C }
  - { offset: 0x80A57, size: 0x8, addend: 0x0, symName: __ZNSt3__116__non_trivial_ifILb1ENS_9allocatorI11TowerEntityEEEC2B8ue170006Ev, symObjAddr: 0x4888, symBinAddr: 0x100016B20, symSize: 0x14 }
  - { offset: 0x80A81, size: 0x8, addend: 0x0, symName: __ZNKSt3__16vectorI11TowerEntityNS_9allocatorIS1_EEE8capacityB8ue170006Ev, symObjAddr: 0x489C, symBinAddr: 0x100016B34, symSize: 0x40 }
  - { offset: 0x80AA7, size: 0x8, addend: 0x0, symName: __ZNKSt3__16vectorI11TowerEntityNS_9allocatorIS1_EEE8max_sizeEv, symObjAddr: 0x48DC, symBinAddr: 0x100016B74, symSize: 0x60 }
  - { offset: 0x80ACF, size: 0x8, addend: 0x0, symName: __ZNKSt3__16vectorI11TowerEntityNS_9allocatorIS1_EEE20__throw_length_errorB8ue170006Ev, symObjAddr: 0x493C, symBinAddr: 0x100016BD4, symSize: 0x1C }
  - { offset: 0x80AF5, size: 0x8, addend: 0x0, symName: __ZNSt3__16vectorI11TowerEntityNS_9allocatorIS1_EEE7__allocB8ue170006Ev, symObjAddr: 0x4958, symBinAddr: 0x100016BF0, symSize: 0x28 }
  - { offset: 0x80B1B, size: 0x8, addend: 0x0, symName: __ZNSt3__114__split_bufferI11TowerEntityRNS_9allocatorIS1_EEEC1EmmS4_, symObjAddr: 0x4980, symBinAddr: 0x100016C18, symSize: 0x44 }
  - { offset: 0x80B71, size: 0x8, addend: 0x0, symName: __ZNSt3__114__split_bufferI11TowerEntityRNS_9allocatorIS1_EEED1Ev, symObjAddr: 0x4AD4, symBinAddr: 0x100016D6C, symSize: 0x2C }
  - { offset: 0x80B9D, size: 0x8, addend: 0x0, symName: __ZNKSt3__16vectorI11TowerEntityNS_9allocatorIS1_EEE9__end_capB8ue170006Ev, symObjAddr: 0x4B00, symBinAddr: 0x100016D98, symSize: 0x28 }
  - { offset: 0x80BC3, size: 0x8, addend: 0x0, symName: __ZNKSt3__117__compressed_pairIP11TowerEntityNS_9allocatorIS1_EEE5firstB8ue170006Ev, symObjAddr: 0x4B28, symBinAddr: 0x100016DC0, symSize: 0x24 }
  - { offset: 0x80BE9, size: 0x8, addend: 0x0, symName: __ZNKSt3__122__compressed_pair_elemIP11TowerEntityLi0ELb0EE5__getB8ue170006Ev, symObjAddr: 0x4B4C, symBinAddr: 0x100016DE4, symSize: 0x14 }
  - { offset: 0x80C1A, size: 0x8, addend: 0x0, symName: __ZNSt3__116allocator_traitsINS_9allocatorI11TowerEntityEEE8max_sizeB8ue170006IS3_vEEmRKS3_, symObjAddr: 0x4B60, symBinAddr: 0x100016DF8, symSize: 0x24 }
  - { offset: 0x80C48, size: 0x8, addend: 0x0, symName: __ZNKSt3__16vectorI11TowerEntityNS_9allocatorIS1_EEE7__allocB8ue170006Ev, symObjAddr: 0x4B84, symBinAddr: 0x100016E1C, symSize: 0x28 }
  - { offset: 0x80C6E, size: 0x8, addend: 0x0, symName: __ZNKSt3__19allocatorI11TowerEntityE8max_sizeB8ue170006Ev, symObjAddr: 0x4BAC, symBinAddr: 0x100016E44, symSize: 0x20 }
  - { offset: 0x80C94, size: 0x8, addend: 0x0, symName: __ZNKSt3__117__compressed_pairIP11TowerEntityNS_9allocatorIS1_EEE6secondB8ue170006Ev, symObjAddr: 0x4BCC, symBinAddr: 0x100016E64, symSize: 0x24 }
  - { offset: 0x80CBA, size: 0x8, addend: 0x0, symName: __ZNKSt3__122__compressed_pair_elemINS_9allocatorI11TowerEntityEELi1ELb1EE5__getB8ue170006Ev, symObjAddr: 0x4BF0, symBinAddr: 0x100016E88, symSize: 0x14 }
  - { offset: 0x80CE0, size: 0x8, addend: 0x0, symName: __ZNSt3__117__compressed_pairIP11TowerEntityNS_9allocatorIS1_EEE6secondB8ue170006Ev, symObjAddr: 0x4C04, symBinAddr: 0x100016E9C, symSize: 0x24 }
  - { offset: 0x80D06, size: 0x8, addend: 0x0, symName: __ZNSt3__122__compressed_pair_elemINS_9allocatorI11TowerEntityEELi1ELb1EE5__getB8ue170006Ev, symObjAddr: 0x4C28, symBinAddr: 0x100016EC0, symSize: 0x14 }
  - { offset: 0x80D2C, size: 0x8, addend: 0x0, symName: __ZNSt3__114__split_bufferI11TowerEntityRNS_9allocatorIS1_EEEC2EmmS4_, symObjAddr: 0x4C3C, symBinAddr: 0x100016ED4, symSize: 0xE0 }
  - { offset: 0x80D9F, size: 0x8, addend: 0x0, symName: __ZNSt3__117__compressed_pairIP11TowerEntityRNS_9allocatorIS1_EEEC1B8ue170006IDnS5_EEOT_OT0_, symObjAddr: 0x4D1C, symBinAddr: 0x100016FB4, symSize: 0x3C }
  - { offset: 0x80DF7, size: 0x8, addend: 0x0, symName: __ZNSt3__114__split_bufferI11TowerEntityRNS_9allocatorIS1_EEE7__allocB8ue170006Ev, symObjAddr: 0x4D98, symBinAddr: 0x100017030, symSize: 0x28 }
  - { offset: 0x80E1D, size: 0x8, addend: 0x0, symName: __ZNSt3__114__split_bufferI11TowerEntityRNS_9allocatorIS1_EEE9__end_capB8ue170006Ev, symObjAddr: 0x4DC0, symBinAddr: 0x100017058, symSize: 0x28 }
  - { offset: 0x80E43, size: 0x8, addend: 0x0, symName: __ZNSt3__117__compressed_pairIP11TowerEntityRNS_9allocatorIS1_EEEC2B8ue170006IDnS5_EEOT_OT0_, symObjAddr: 0x4DE8, symBinAddr: 0x100017080, symSize: 0x48 }
  - { offset: 0x80E9B, size: 0x8, addend: 0x0, symName: __ZNSt3__122__compressed_pair_elemIRNS_9allocatorI11TowerEntityEELi1ELb0EEC2B8ue170006IS4_vEEOT_, symObjAddr: 0x4E30, symBinAddr: 0x1000170C8, symSize: 0x20 }
  - { offset: 0x80EDD, size: 0x8, addend: 0x0, symName: __ZNSt3__19allocatorI11TowerEntityE8allocateB8ue170006Em, symObjAddr: 0x4E50, symBinAddr: 0x1000170E8, symSize: 0x5C }
  - { offset: 0x80F11, size: 0x8, addend: 0x0, symName: __ZNSt3__117__compressed_pairIP11TowerEntityRNS_9allocatorIS1_EEE6secondB8ue170006Ev, symObjAddr: 0x4EAC, symBinAddr: 0x100017144, symSize: 0x28 }
  - { offset: 0x80F37, size: 0x8, addend: 0x0, symName: __ZNSt3__122__compressed_pair_elemIRNS_9allocatorI11TowerEntityEELi1ELb0EE5__getB8ue170006Ev, symObjAddr: 0x4ED4, symBinAddr: 0x10001716C, symSize: 0x18 }
  - { offset: 0x80F5D, size: 0x8, addend: 0x0, symName: __ZNSt3__117__compressed_pairIP11TowerEntityRNS_9allocatorIS1_EEE5firstB8ue170006Ev, symObjAddr: 0x4EEC, symBinAddr: 0x100017184, symSize: 0x24 }
  - { offset: 0x80F83, size: 0x8, addend: 0x0, symName: __ZNSt3__122__compressed_pair_elemIP11TowerEntityLi0ELb0EE5__getB8ue170006Ev, symObjAddr: 0x4F10, symBinAddr: 0x1000171A8, symSize: 0x14 }
  - { offset: 0x80FA9, size: 0x8, addend: 0x0, symName: __ZNKSt3__16vectorI11TowerEntityNS_9allocatorIS1_EEE17__annotate_deleteB8ue170006Ev, symObjAddr: 0x4F24, symBinAddr: 0x1000171BC, symSize: 0xD4 }
  - { offset: 0x80FCF, size: 0x8, addend: 0x0, symName: __ZNSt3__116reverse_iteratorIP11TowerEntityEC1B8ue170006ES2_, symObjAddr: 0x5124, symBinAddr: 0x1000173BC, symSize: 0x34 }
  - { offset: 0x81007, size: 0x8, addend: 0x0, symName: __ZNKSt3__116reverse_iteratorIP11TowerEntityE4baseB8ue170006Ev, symObjAddr: 0x5158, symBinAddr: 0x1000173F0, symSize: 0x18 }
  - { offset: 0x8102D, size: 0x8, addend: 0x0, symName: __ZNSt3__16vectorI11TowerEntityNS_9allocatorIS1_EEE9__end_capB8ue170006Ev, symObjAddr: 0x51AC, symBinAddr: 0x100017444, symSize: 0x28 }
  - { offset: 0x81053, size: 0x8, addend: 0x0, symName: __ZNKSt3__16vectorI11TowerEntityNS_9allocatorIS1_EEE14__annotate_newB8ue170006Em, symObjAddr: 0x51D4, symBinAddr: 0x10001746C, symSize: 0xC8 }
  - { offset: 0x81088, size: 0x8, addend: 0x0, symName: __ZNKSt3__16vectorI11TowerEntityNS_9allocatorIS1_EEE31__annotate_contiguous_containerB8ue170006EPKvS6_S6_S6_, symObjAddr: 0x529C, symBinAddr: 0x100017534, symSize: 0x20 }
  - { offset: 0x810DA, size: 0x8, addend: 0x0, symName: __ZNKSt3__16vectorI11TowerEntityNS_9allocatorIS1_EEE4dataB8ue170006Ev, symObjAddr: 0x52BC, symBinAddr: 0x100017554, symSize: 0x28 }
  - { offset: 0x81100, size: 0x8, addend: 0x0, symName: __ZNSt3__129_AllocatorDestroyRangeReverseINS_9allocatorI11TowerEntityEENS_16reverse_iteratorIPS2_EEEC1B8ue170006ERS3_RS6_S9_, symObjAddr: 0x5330, symBinAddr: 0x1000175C8, symSize: 0x44 }
  - { offset: 0x81157, size: 0x8, addend: 0x0, symName: __ZNSt3__116allocator_traitsINS_9allocatorI11TowerEntityEEE9constructB8ue170006IS2_JRKS2_EvEEvRS3_PT_DpOT0_, symObjAddr: 0x53BC, symBinAddr: 0x100017654, symSize: 0x34 }
  - { offset: 0x811AE, size: 0x8, addend: 0x0, symName: __ZNKSt3__116reverse_iteratorIP11TowerEntityEdeB8ue170006Ev, symObjAddr: 0x5414, symBinAddr: 0x1000176AC, symSize: 0x28 }
  - { offset: 0x811E2, size: 0x8, addend: 0x0, symName: __ZNSt3__116reverse_iteratorIP11TowerEntityEppB8ue170006Ev, symObjAddr: 0x543C, symBinAddr: 0x1000176D4, symSize: 0x20 }
  - { offset: 0x81208, size: 0x8, addend: 0x0, symName: __ZNSt3__128__exception_guard_exceptionsINS_29_AllocatorDestroyRangeReverseINS_9allocatorI11TowerEntityEENS_16reverse_iteratorIPS3_EEEEE10__completeB8ue170006Ev, symObjAddr: 0x545C, symBinAddr: 0x1000176F4, symSize: 0x1C }
  - { offset: 0x8122E, size: 0x8, addend: 0x0, symName: __ZNSt3__128__exception_guard_exceptionsINS_29_AllocatorDestroyRangeReverseINS_9allocatorI11TowerEntityEENS_16reverse_iteratorIPS3_EEEEED1B8ue170006Ev, symObjAddr: 0x5478, symBinAddr: 0x100017710, symSize: 0x2C }
  - { offset: 0x81258, size: 0x8, addend: 0x0, symName: __ZNSt3__128__exception_guard_exceptionsINS_29_AllocatorDestroyRangeReverseINS_9allocatorI11TowerEntityEENS_16reverse_iteratorIPS3_EEEEEC1B8ue170006ES8_, symObjAddr: 0x54A4, symBinAddr: 0x10001773C, symSize: 0x34 }
  - { offset: 0x81291, size: 0x8, addend: 0x0, symName: __ZNSt3__128__exception_guard_exceptionsINS_29_AllocatorDestroyRangeReverseINS_9allocatorI11TowerEntityEENS_16reverse_iteratorIPS3_EEEEEC2B8ue170006ES8_, symObjAddr: 0x54D8, symBinAddr: 0x100017770, symSize: 0x30 }
  - { offset: 0x812CA, size: 0x8, addend: 0x0, symName: __ZNSt3__129_AllocatorDestroyRangeReverseINS_9allocatorI11TowerEntityEENS_16reverse_iteratorIPS2_EEEC2B8ue170006ERS3_RS6_S9_, symObjAddr: 0x5508, symBinAddr: 0x1000177A0, symSize: 0x38 }
  - { offset: 0x81321, size: 0x8, addend: 0x0, symName: __ZNSt3__19allocatorI11TowerEntityE9constructB8ue170006IS1_JRKS1_EEEvPT_DpOT0_, symObjAddr: 0x5540, symBinAddr: 0x1000177D8, symSize: 0x30 }
  - { offset: 0x81377, size: 0x8, addend: 0x0, symName: __ZN11TowerEntityC1ERKS_, symObjAddr: 0x5570, symBinAddr: 0x100017808, symSize: 0x34 }
  - { offset: 0x813AC, size: 0x8, addend: 0x0, symName: __ZN11TowerEntityC2ERKS_, symObjAddr: 0x55A4, symBinAddr: 0x10001783C, symSize: 0xBC }
  - { offset: 0x813ED, size: 0x8, addend: 0x0, symName: __ZNSt3__119__to_address_helperINS_16reverse_iteratorIP11TowerEntityEEvE6__callB8ue170006ERKS4_, symObjAddr: 0x5F64, symBinAddr: 0x1000178F8, symSize: 0x38 }
  - { offset: 0x81410, size: 0x8, addend: 0x0, symName: __ZNKSt3__116reverse_iteratorIP11TowerEntityEptB8ue170006Ev, symObjAddr: 0x5F9C, symBinAddr: 0x100017930, symSize: 0x24 }
  - { offset: 0x81436, size: 0x8, addend: 0x0, symName: __ZNSt3__128__exception_guard_exceptionsINS_29_AllocatorDestroyRangeReverseINS_9allocatorI11TowerEntityEENS_16reverse_iteratorIPS3_EEEEED2B8ue170006Ev, symObjAddr: 0x5FC0, symBinAddr: 0x100017954, symSize: 0x50 }
  - { offset: 0x81460, size: 0x8, addend: 0x0, symName: __ZNKSt3__129_AllocatorDestroyRangeReverseINS_9allocatorI11TowerEntityEENS_16reverse_iteratorIPS2_EEEclB8ue170006Ev, symObjAddr: 0x6010, symBinAddr: 0x1000179A4, symSize: 0xB4 }
  - { offset: 0x81487, size: 0x8, addend: 0x0, symName: __ZNSt3__116reverse_iteratorINS0_IP11TowerEntityEEEC1B8ue170006ES3_, symObjAddr: 0x6134, symBinAddr: 0x100017AC8, symSize: 0x3C }
  - { offset: 0x814BF, size: 0x8, addend: 0x0, symName: __ZNSt3__116allocator_traitsINS_9allocatorI11TowerEntityEEE7destroyB8ue170006IS2_vEEvRS3_PT_, symObjAddr: 0x61D0, symBinAddr: 0x100017B64, symSize: 0x2C }
  - { offset: 0x814FC, size: 0x8, addend: 0x0, symName: __ZNSt3__116reverse_iteratorINS0_IP11TowerEntityEEEppB8ue170006Ev, symObjAddr: 0x6220, symBinAddr: 0x100017BB4, symSize: 0x30 }
  - { offset: 0x81522, size: 0x8, addend: 0x0, symName: __ZNKSt3__116reverse_iteratorINS0_IP11TowerEntityEEE4baseB8ue170006Ev, symObjAddr: 0x6250, symBinAddr: 0x100017BE4, symSize: 0x24 }
  - { offset: 0x81548, size: 0x8, addend: 0x0, symName: __ZNSt3__19allocatorI11TowerEntityE7destroyB8ue170006EPS1_, symObjAddr: 0x6274, symBinAddr: 0x100017C08, symSize: 0x30 }
  - { offset: 0x81582, size: 0x8, addend: 0x0, symName: __ZNSt3__119__to_address_helperINS_16reverse_iteratorINS1_IP11TowerEntityEEEEvE6__callB8ue170006ERKS5_, symObjAddr: 0x62A4, symBinAddr: 0x100017C38, symSize: 0x38 }
  - { offset: 0x815A5, size: 0x8, addend: 0x0, symName: __ZNKSt3__116reverse_iteratorINS0_IP11TowerEntityEEEptB8ue170006Ev, symObjAddr: 0x62DC, symBinAddr: 0x100017C70, symSize: 0x24 }
  - { offset: 0x815CB, size: 0x8, addend: 0x0, symName: __ZNKSt3__116reverse_iteratorINS0_IP11TowerEntityEEEdeB8ue170006Ev, symObjAddr: 0x6300, symBinAddr: 0x100017C94, symSize: 0x34 }
  - { offset: 0x815FF, size: 0x8, addend: 0x0, symName: __ZNSt3__116reverse_iteratorIP11TowerEntityEmmB8ue170006Ev, symObjAddr: 0x6334, symBinAddr: 0x100017CC8, symSize: 0x20 }
  - { offset: 0x81625, size: 0x8, addend: 0x0, symName: __ZNSt3__116reverse_iteratorINS0_IP11TowerEntityEEEC2B8ue170006ES3_, symObjAddr: 0x6354, symBinAddr: 0x100017CE8, symSize: 0x2C }
  - { offset: 0x8165D, size: 0x8, addend: 0x0, symName: __ZNSt3__116reverse_iteratorIP11TowerEntityEC2B8ue170006ES2_, symObjAddr: 0x6380, symBinAddr: 0x100017D14, symSize: 0x28 }
  - { offset: 0x81695, size: 0x8, addend: 0x0, symName: __ZNSt3__117__compressed_pairIP11TowerEntityNS_9allocatorIS1_EEE5firstB8ue170006Ev, symObjAddr: 0x63A8, symBinAddr: 0x100017D3C, symSize: 0x24 }
  - { offset: 0x816BB, size: 0x8, addend: 0x0, symName: __ZNSt3__114__split_bufferI11TowerEntityRNS_9allocatorIS1_EEED2Ev, symObjAddr: 0x63CC, symBinAddr: 0x100017D60, symSize: 0x8C }
  - { offset: 0x816E7, size: 0x8, addend: 0x0, symName: __ZNSt3__114__split_bufferI11TowerEntityRNS_9allocatorIS1_EEE5clearB8ue170006Ev, symObjAddr: 0x6458, symBinAddr: 0x100017DEC, symSize: 0x28 }
  - { offset: 0x8170D, size: 0x8, addend: 0x0, symName: __ZNSt3__116allocator_traitsINS_9allocatorI11TowerEntityEEE10deallocateB8ue170006ERS3_PS2_m, symObjAddr: 0x6480, symBinAddr: 0x100017E14, symSize: 0x34 }
  - { offset: 0x8174F, size: 0x8, addend: 0x0, symName: __ZNKSt3__114__split_bufferI11TowerEntityRNS_9allocatorIS1_EEE8capacityB8ue170006Ev, symObjAddr: 0x64B4, symBinAddr: 0x100017E48, symSize: 0x40 }
  - { offset: 0x81775, size: 0x8, addend: 0x0, symName: __ZNSt3__114__split_bufferI11TowerEntityRNS_9allocatorIS1_EEE17__destruct_at_endB8ue170006EPS1_, symObjAddr: 0x64F4, symBinAddr: 0x100017E88, symSize: 0x2C }
  - { offset: 0x817A9, size: 0x8, addend: 0x0, symName: __ZNSt3__114__split_bufferI11TowerEntityRNS_9allocatorIS1_EEE17__destruct_at_endB8ue170006EPS1_NS_17integral_constantIbLb0EEE, symObjAddr: 0x6520, symBinAddr: 0x100017EB4, symSize: 0x80 }
  - { offset: 0x817E9, size: 0x8, addend: 0x0, symName: __ZNSt3__19allocatorI11TowerEntityE10deallocateB8ue170006EPS1_m, symObjAddr: 0x65A0, symBinAddr: 0x100017F34, symSize: 0x44 }
  - { offset: 0x8182B, size: 0x8, addend: 0x0, symName: __ZNKSt3__114__split_bufferI11TowerEntityRNS_9allocatorIS1_EEE9__end_capB8ue170006Ev, symObjAddr: 0x65E4, symBinAddr: 0x100017F78, symSize: 0x28 }
  - { offset: 0x81851, size: 0x8, addend: 0x0, symName: __ZNKSt3__117__compressed_pairIP11TowerEntityRNS_9allocatorIS1_EEE5firstB8ue170006Ev, symObjAddr: 0x660C, symBinAddr: 0x100017FA0, symSize: 0x24 }
  - { offset: 0x81877, size: 0x8, addend: 0x0, symName: __ZNSt3__16vectorI11TowerEntityNS_9allocatorIS1_EEE22__construct_one_at_endB8ue170006IJS1_EEEvDpOT_, symObjAddr: 0x6630, symBinAddr: 0x100017FC4, symSize: 0x90 }
  - { offset: 0x818C6, size: 0x8, addend: 0x0, symName: __ZNSt3__16vectorI11TowerEntityNS_9allocatorIS1_EEE24__emplace_back_slow_pathIJS1_EEEvDpOT_, symObjAddr: 0x66C0, symBinAddr: 0x100018054, symSize: 0xD8 }
  - { offset: 0x81941, size: 0x8, addend: 0x0, symName: __ZNSt3__16vectorI11TowerEntityNS_9allocatorIS1_EEE21_ConstructTransactionC1B8ue170006ERS4_m, symObjAddr: 0x6798, symBinAddr: 0x10001812C, symSize: 0x3C }
  - { offset: 0x81989, size: 0x8, addend: 0x0, symName: __ZNSt3__116allocator_traitsINS_9allocatorI11TowerEntityEEE9constructB8ue170006IS2_JS2_EvEEvRS3_PT_DpOT0_, symObjAddr: 0x67D4, symBinAddr: 0x100018168, symSize: 0x34 }
  - { offset: 0x819E0, size: 0x8, addend: 0x0, symName: __ZNSt3__16vectorI11TowerEntityNS_9allocatorIS1_EEE21_ConstructTransactionD1B8ue170006Ev, symObjAddr: 0x6808, symBinAddr: 0x10001819C, symSize: 0x2C }
  - { offset: 0x81A0A, size: 0x8, addend: 0x0, symName: __ZNSt3__16vectorI11TowerEntityNS_9allocatorIS1_EEE21_ConstructTransactionC2B8ue170006ERS4_m, symObjAddr: 0x6834, symBinAddr: 0x1000181C8, symSize: 0x4C }
  - { offset: 0x81A52, size: 0x8, addend: 0x0, symName: __ZNSt3__19allocatorI11TowerEntityE9constructB8ue170006IS1_JS1_EEEvPT_DpOT0_, symObjAddr: 0x6880, symBinAddr: 0x100018214, symSize: 0x30 }
  - { offset: 0x81AA8, size: 0x8, addend: 0x0, symName: __ZNSt3__16vectorI11TowerEntityNS_9allocatorIS1_EEE21_ConstructTransactionD2B8ue170006Ev, symObjAddr: 0x68B0, symBinAddr: 0x100018244, symSize: 0x20 }
  - { offset: 0x81AD2, size: 0x8, addend: 0x0, symName: __ZNKSt3__16vectorI11TowerEntityNS_9allocatorIS1_EEE11__recommendB8ue170006Em, symObjAddr: 0x68D0, symBinAddr: 0x100018264, symSize: 0xB4 }
  - { offset: 0x81B27, size: 0x8, addend: 0x0, symName: __ZNSt3__16vectorI11TowerEntityNS_9allocatorIS1_EEE11__make_iterB8ue170006EPS1_, symObjAddr: 0x69B0, symBinAddr: 0x100018318, symSize: 0x30 }
  - { offset: 0x81B5C, size: 0x8, addend: 0x0, symName: __ZNSt3__111__wrap_iterIP11TowerEntityEC1B8ue170006ES2_, symObjAddr: 0x69E0, symBinAddr: 0x100018348, symSize: 0x34 }
  - { offset: 0x81B94, size: 0x8, addend: 0x0, symName: __ZNSt3__111__wrap_iterIP11TowerEntityEC2B8ue170006ES2_, symObjAddr: 0x6A14, symBinAddr: 0x10001837C, symSize: 0x20 }
  - { offset: 0x81BCC, size: 0x8, addend: 0x0, symName: __ZNKSt3__16vectorI11TowerEntityNS_9allocatorIS1_EEE6cbeginB8ue170006Ev, symObjAddr: 0x6A7C, symBinAddr: 0x1000183E4, symSize: 0x2C }
  - { offset: 0x81BF2, size: 0x8, addend: 0x0, symName: __ZNSt3__16vectorI11TowerEntityNS_9allocatorIS1_EEE17__destruct_at_endB8ue170006EPS1_, symObjAddr: 0x6AA8, symBinAddr: 0x100018410, symSize: 0x4C }
  - { offset: 0x81C36, size: 0x8, addend: 0x0, symName: __ZNKSt3__111__wrap_iterIPK11TowerEntityE4baseB8ue170006Ev, symObjAddr: 0x6B34, symBinAddr: 0x10001849C, symSize: 0x18 }
  - { offset: 0x81C5C, size: 0x8, addend: 0x0, symName: __ZNKSt3__16vectorI11TowerEntityNS_9allocatorIS1_EEE5beginB8ue170006Ev, symObjAddr: 0x6B4C, symBinAddr: 0x1000184B4, symSize: 0x30 }
  - { offset: 0x81C84, size: 0x8, addend: 0x0, symName: __ZNKSt3__16vectorI11TowerEntityNS_9allocatorIS1_EEE11__make_iterB8ue170006EPKS1_, symObjAddr: 0x6B7C, symBinAddr: 0x1000184E4, symSize: 0x30 }
  - { offset: 0x81CB9, size: 0x8, addend: 0x0, symName: __ZNSt3__111__wrap_iterIPK11TowerEntityEC1B8ue170006ES3_, symObjAddr: 0x6BAC, symBinAddr: 0x100018514, symSize: 0x34 }
  - { offset: 0x81CF1, size: 0x8, addend: 0x0, symName: __ZNSt3__111__wrap_iterIPK11TowerEntityEC2B8ue170006ES3_, symObjAddr: 0x6BE0, symBinAddr: 0x100018548, symSize: 0x20 }
  - { offset: 0x81D29, size: 0x8, addend: 0x0, symName: __ZNSt3__16vectorI11TowerEntityNS_9allocatorIS1_EEE22__base_destruct_at_endB8ue170006EPS1_, symObjAddr: 0x6C00, symBinAddr: 0x100018568, symSize: 0x8C }
  - { offset: 0x81D6D, size: 0x8, addend: 0x0, symName: __ZNKSt3__16vectorI11TowerEntityNS_9allocatorIS1_EEE17__annotate_shrinkB8ue170006Em, symObjAddr: 0x6C8C, symBinAddr: 0x1000185F4, symSize: 0xD0 }
  - { offset: 0x81DBE, size: 0x8, addend: 0x0, symName: __ZNKSt3__111__move_loopINS_17_ClassicAlgPolicyEEclB8ue170006IP11TowerEntityS5_S5_EENS_4pairIT_T1_EES7_T0_S8_, symObjAddr: 0x6EF8, symBinAddr: 0x100018860, symSize: 0x90 }
  - { offset: 0x81E29, size: 0x8, addend: 0x0, symName: __ZNSt3__18_IterOpsINS_17_ClassicAlgPolicyEE11__iter_moveB8ue170006IRP11TowerEntityEENS_9enable_ifIXsr12is_referenceIDTdeclsr3stdE7declvalIRT_EEEEE5valueEDTclsr3stdE4movedeclsr3stdE7declvalIS9_EEEEE4typeEOS8_, symObjAddr: 0x704C, symBinAddr: 0x1000189B4, symSize: 0x28 }
  - { offset: 0x81E55, size: 0x8, addend: 0x0, symName: __ZN11TowerEntityaSERKS_, symObjAddr: 0x7074, symBinAddr: 0x1000189DC, symSize: 0x74 }
  - { offset: 0x81E86, size: 0x8, addend: 0x0, symName: __ZNSt3__18_IterOpsINS_17_ClassicAlgPolicyEE25__validate_iter_referenceB8ue170006IRP11TowerEntityEEvv, symObjAddr: 0x70E8, symBinAddr: 0x100018A50, symSize: 0x4 }
  - { offset: 0x81EB0, size: 0x8, addend: 0x0, symName: __ZNSt3__118__unwrap_iter_implIP11TowerEntityLb1EE8__unwrapB8ue170006ES2_, symObjAddr: 0x76B0, symBinAddr: 0x100018A54, symSize: 0x24 }
  - { offset: 0x81ED9, size: 0x8, addend: 0x0, symName: __ZNSt3__14pairIP11TowerEntityS2_EC1B8ue170006IS2_S2_LPv0EEEOT_OT0_, symObjAddr: 0x76D4, symBinAddr: 0x100018A78, symSize: 0x3C }
  - { offset: 0x81F37, size: 0x8, addend: 0x0, symName: __ZNSt3__14pairIP11TowerEntityS2_EC2B8ue170006IS2_S2_LPv0EEEOT_OT0_, symObjAddr: 0x7710, symBinAddr: 0x100018AB4, symSize: 0x34 }
  - { offset: 0x81F95, size: 0x8, addend: 0x0, symName: __ZNSt3__118__unwrap_iter_implIP11TowerEntityLb1EE8__rewrapB8ue170006ES2_S2_, symObjAddr: 0x7744, symBinAddr: 0x100018AE8, symSize: 0x58 }
  - { offset: 0x92608, size: 0x8, addend: 0x0, symName: __ZN5TowerC2E9TowerType, symObjAddr: 0x0, symBinAddr: 0x100018B40, symSize: 0x190 }
  - { offset: 0x92642, size: 0x8, addend: 0x0, symName: __ZN5TowerC1E9TowerType, symObjAddr: 0x1E0, symBinAddr: 0x100018CD0, symSize: 0x34 }
  - { offset: 0x9267C, size: 0x8, addend: 0x0, symName: __ZN5TowerD2Ev, symObjAddr: 0x214, symBinAddr: 0x100018D04, symSize: 0x5C }
  - { offset: 0x926A8, size: 0x8, addend: 0x0, symName: __ZN5TowerD1Ev, symObjAddr: 0x2B0, symBinAddr: 0x100018D60, symSize: 0x2C }
  - { offset: 0x926D4, size: 0x8, addend: 0x0, symName: __ZThn320_N5TowerD1Ev, symObjAddr: 0x2DC, symBinAddr: 0x100018D8C, symSize: 0x1C }
  - { offset: 0x926EA, size: 0x8, addend: 0x0, symName: __ZN5TowerD0Ev, symObjAddr: 0x2F8, symBinAddr: 0x100018DA8, symSize: 0x30 }
  - { offset: 0x92716, size: 0x8, addend: 0x0, symName: __ZThn320_N5TowerD0Ev, symObjAddr: 0x328, symBinAddr: 0x100018DD8, symSize: 0x18 }
  - { offset: 0x9272C, size: 0x8, addend: 0x0, symName: __ZN5Tower7UpgradeEv, symObjAddr: 0x340, symBinAddr: 0x100018DF0, symSize: 0xEC }
  - { offset: 0x9278C, size: 0x8, addend: 0x0, symName: __ZNK5Tower10CanUpgradeEv, symObjAddr: 0x42C, symBinAddr: 0x100018EDC, symSize: 0x24 }
  - { offset: 0x927B2, size: 0x8, addend: 0x0, symName: __ZN5Tower18NotifyStatsChangedEv, symObjAddr: 0x450, symBinAddr: 0x100018F00, symSize: 0x94 }
  - { offset: 0x92829, size: 0x8, addend: 0x0, symName: __ZNK5Tower14GetUpgradeCostEv, symObjAddr: 0x4E4, symBinAddr: 0x100018F94, symSize: 0x5C }
  - { offset: 0x92851, size: 0x8, addend: 0x0, symName: __ZN5Tower9GetHealthEv, symObjAddr: 0x540, symBinAddr: 0x100018FF0, symSize: 0x18 }
  - { offset: 0x92879, size: 0x8, addend: 0x0, symName: __ZN5Tower11IsDestroyedEv, symObjAddr: 0x558, symBinAddr: 0x100019008, symSize: 0x24 }
  - { offset: 0x928A1, size: 0x8, addend: 0x0, symName: __ZN5Tower10TakeDamageEf, symObjAddr: 0x57C, symBinAddr: 0x10001902C, symSize: 0x50 }
  - { offset: 0x928D7, size: 0x8, addend: 0x0, symName: __ZN5Tower11AddObserverEP13IGameObserver, symObjAddr: 0x634, symBinAddr: 0x10001907C, symSize: 0x34 }
  - { offset: 0x9290B, size: 0x8, addend: 0x0, symName: __ZN5Tower14RemoveObserverEP13IGameObserver, symObjAddr: 0x668, symBinAddr: 0x1000190B0, symSize: 0xAC }
  - { offset: 0x9293F, size: 0x8, addend: 0x0, symName: __ZThn320_N5Tower11AddObserverEP13IGameObserver, symObjAddr: 0x714, symBinAddr: 0x10001915C, symSize: 0x20 }
  - { offset: 0x92955, size: 0x8, addend: 0x0, symName: __ZThn320_N5Tower14RemoveObserverEP13IGameObserver, symObjAddr: 0x734, symBinAddr: 0x10001917C, symSize: 0x20 }
  - { offset: 0x9483C, size: 0x8, addend: 0x0, symName: _main, symObjAddr: 0x0, symBinAddr: 0x10001919C, symSize: 0x8C }
  - { offset: 0xB5A1F, size: 0x8, addend: 0x0, symName: _main, symObjAddr: 0x0, symBinAddr: 0x10001919C, symSize: 0x8C }
  - { offset: 0xBD850, size: 0x8, addend: 0x0, symName: __ZNSt3__1plB8ue170006IcNS_11char_traitsIcEENS_9allocatorIcEEEENS_12basic_stringIT_T0_T1_EEPKS6_OS9_, symObjAddr: 0x714, symBinAddr: 0x100019854, symSize: 0x44 }
  - { offset: 0xBF20C, size: 0x8, addend: 0x0, symName: __ZN6InfoUIC2Ev, symObjAddr: 0x0, symBinAddr: 0x100019228, symSize: 0x270 }
  - { offset: 0xBF238, size: 0x8, addend: 0x0, symName: __ZN6InfoUIC1Ev, symObjAddr: 0x358, symBinAddr: 0x100019498, symSize: 0x2C }
  - { offset: 0xBF264, size: 0x8, addend: 0x0, symName: __ZN6InfoUI16InitializeInfoUIEv, symObjAddr: 0x384, symBinAddr: 0x1000194C4, symSize: 0x390 }
  - { offset: 0xBF28C, size: 0x8, addend: 0x0, symName: __ZNSt3__112basic_stringIcNS_11char_traitsIcEENS_9allocatorIcEEEaSB8ue170006EOS5_, symObjAddr: 0x758, symBinAddr: 0x100019898, symSize: 0x34 }
  - { offset: 0xBF2C1, size: 0x8, addend: 0x0, symName: __ZN6InfoUI15notifyObserversEv, symObjAddr: 0x7B8, symBinAddr: 0x1000198CC, symSize: 0x90 }
  - { offset: 0xBF338, size: 0x8, addend: 0x0, symName: __ZN6InfoUID1Ev, symObjAddr: 0x848, symBinAddr: 0x10001995C, symSize: 0x2C }
  - { offset: 0xBF362, size: 0x8, addend: 0x0, symName: __ZN6InfoUID0Ev, symObjAddr: 0x874, symBinAddr: 0x100019988, symSize: 0x30 }
  - { offset: 0xBF38C, size: 0x8, addend: 0x0, symName: __ZN6InfoUI11AddObserverEP13IGameObserver, symObjAddr: 0x8A4, symBinAddr: 0x1000199B8, symSize: 0x34 }
  - { offset: 0xBF3C0, size: 0x8, addend: 0x0, symName: __ZN6InfoUI14RemoveObserverEP13IGameObserver, symObjAddr: 0x8D8, symBinAddr: 0x1000199EC, symSize: 0xAC }
  - { offset: 0xBF3F4, size: 0x8, addend: 0x0, symName: __ZNSt3__112basic_stringIcNS_11char_traitsIcEENS_9allocatorIcEEE13__move_assignB8ue170006ERS5_NS_17integral_constantIbLb1EEE, symObjAddr: 0xB54, symBinAddr: 0x100019A98, symSize: 0xC8 }
  - { offset: 0xBF436, size: 0x8, addend: 0x0, symName: __ZNSt3__116allocator_traitsINS_9allocatorIcEEE10deallocateB8ue170006ERS2_Pcm, symObjAddr: 0xC54, symBinAddr: 0x100019B60, symSize: 0x34 }
  - { offset: 0xBF478, size: 0x8, addend: 0x0, symName: __ZNSt3__112basic_stringIcNS_11char_traitsIcEENS_9allocatorIcEEE7__allocB8ue170006Ev, symObjAddr: 0xC88, symBinAddr: 0x100019B94, symSize: 0x24 }
  - { offset: 0xBF49E, size: 0x8, addend: 0x0, symName: __ZNKSt3__112basic_stringIcNS_11char_traitsIcEENS_9allocatorIcEEE14__get_long_capB8ue170006Ev, symObjAddr: 0xCD4, symBinAddr: 0x100019BB8, symSize: 0x30 }
  - { offset: 0xBF4C4, size: 0x8, addend: 0x0, symName: __ZNSt3__112basic_stringIcNS_11char_traitsIcEENS_9allocatorIcEEE19__move_assign_allocB8ue170006ERS5_, symObjAddr: 0xD04, symBinAddr: 0x100019BE8, symSize: 0x2C }
  - { offset: 0xBF4F9, size: 0x8, addend: 0x0, symName: __ZNSt3__112basic_stringIcNS_11char_traitsIcEENS_9allocatorIcEEE16__set_short_sizeB8ue170006Em, symObjAddr: 0xD54, symBinAddr: 0x100019C14, symSize: 0x78 }
  - { offset: 0xBF52E, size: 0x8, addend: 0x0, symName: __ZNSt3__111char_traitsIcE6assignB8ue170006ERcRKc, symObjAddr: 0xDCC, symBinAddr: 0x100019C8C, symSize: 0x24 }
  - { offset: 0xBF55F, size: 0x8, addend: 0x0, symName: __ZNSt3__19allocatorIcE10deallocateB8ue170006EPcm, symObjAddr: 0xE50, symBinAddr: 0x100019CB0, symSize: 0x40 }
  - { offset: 0xBF5A1, size: 0x8, addend: 0x0, symName: __ZNSt3__117__compressed_pairINS_12basic_stringIcNS_11char_traitsIcEENS_9allocatorIcEEE5__repES5_E6secondB8ue170006Ev, symObjAddr: 0xFC8, symBinAddr: 0x100019CF0, symSize: 0x24 }
  - { offset: 0xBF5C7, size: 0x8, addend: 0x0, symName: __ZNSt3__122__compressed_pair_elemINS_9allocatorIcEELi1ELb1EE5__getB8ue170006Ev, symObjAddr: 0xFEC, symBinAddr: 0x100019D14, symSize: 0x14 }
  - { offset: 0xBF5ED, size: 0x8, addend: 0x0, symName: __ZNSt3__112basic_stringIcNS_11char_traitsIcEENS_9allocatorIcEEE19__move_assign_allocB8ue170006ERS5_NS_17integral_constantIbLb1EEE, symObjAddr: 0x1000, symBinAddr: 0x100019D28, symSize: 0x38 }
  - { offset: 0xBF62D, size: 0x8, addend: 0x0, symName: __ZNSt3__112basic_stringIcNS_11char_traitsIcEENS_9allocatorIcEEEC1B8ue170006EOS5_, symObjAddr: 0x1060, symBinAddr: 0x100019D60, symSize: 0x34 }
  - { offset: 0xBF666, size: 0x8, addend: 0x0, symName: __ZNSt3__112basic_stringIcNS_11char_traitsIcEENS_9allocatorIcEEEC2B8ue170006EOS5_, symObjAddr: 0x1094, symBinAddr: 0x100019D94, symSize: 0x50 }
  - { offset: 0xBF69F, size: 0x8, addend: 0x0, symName: __ZN6InfoUID2Ev, symObjAddr: 0x189C, symBinAddr: 0x100019DE4, symSize: 0x120 }
  - { offset: 0xC15DA, size: 0x8, addend: 0x0, symName: __ZN2sfneIfEEbRKNS_7Vector2IT_EES5_, symObjAddr: 0x8B8, symBinAddr: 0x10001A698, symSize: 0x64 }
  - { offset: 0xC630B, size: 0x8, addend: 0x0, symName: __ZNSt3__112__to_addressB8ue170006INS_6vectorIN8MapSetup8TileDataENS_9allocatorIS3_EEEEEEPT_S8_, symObjAddr: 0x2EB0, symBinAddr: 0x10001B5FC, symSize: 0x14 }
  - { offset: 0xC6340, size: 0x8, addend: 0x0, symName: __ZNSt3__112__to_addressB8ue170006IN2sf7Vector2IfEEEEPT_S5_, symObjAddr: 0x336C, symBinAddr: 0x10001BAB8, symSize: 0x14 }
  - { offset: 0xC6375, size: 0x8, addend: 0x0, symName: __ZNSt3__112__to_addressB8ue170006IN8MapSetup8TileDataEEEPT_S4_, symObjAddr: 0x3A4C, symBinAddr: 0x10001C198, symSize: 0x14 }
  - { offset: 0xC63AA, size: 0x8, addend: 0x0, symName: __ZNSt3__119__allocate_at_leastB8ue170006INS_9allocatorIN8MapSetup8TileDataEEEEENS_19__allocation_resultINS_16allocator_traitsIT_E7pointerEEERS7_m, symObjAddr: 0x4548, symBinAddr: 0x10001CA68, symSize: 0x40 }
  - { offset: 0xC63ED, size: 0x8, addend: 0x0, symName: __ZNSt3__142__uninitialized_allocator_move_if_noexceptB8ue170006INS_9allocatorIN8MapSetup8TileDataEEENS_16reverse_iteratorIPS3_EES7_S3_vEET1_RT_T0_SB_S8_, symObjAddr: 0x47E4, symBinAddr: 0x10001CC20, symSize: 0x78 }
  - { offset: 0xC646A, size: 0x8, addend: 0x0, symName: __ZNSt3__14swapB8ue170006IPN8MapSetup8TileDataEEENS_9enable_ifIXaasr21is_move_constructibleIT_EE5valuesr18is_move_assignableIS5_EE5valueEvE4typeERS5_S8_, symObjAddr: 0x48A8, symBinAddr: 0x10001CCE4, symSize: 0x3C }
  - { offset: 0xC64BB, size: 0x8, addend: 0x0, symName: __ZNSt3__14moveB8ue170006INS_16reverse_iteratorIPN8MapSetup8TileDataEEES5_EET0_T_S7_S6_, symObjAddr: 0x49AC, symBinAddr: 0x10001CDE8, symSize: 0x78 }
  - { offset: 0xC6515, size: 0x8, addend: 0x0, symName: __ZNSt3__16__moveB8ue170006INS_17_ClassicAlgPolicyENS_16reverse_iteratorIPN8MapSetup8TileDataEEES6_S6_EENS_4pairIT0_T2_EES8_T1_S9_, symObjAddr: 0x4A24, symBinAddr: 0x10001CE60, symSize: 0x64 }
  - { offset: 0xC6581, size: 0x8, addend: 0x0, symName: __ZNSt3__123__dispatch_copy_or_moveB8ue170006INS_17_ClassicAlgPolicyENS_11__move_loopIS1_EENS_14__move_trivialENS_16reverse_iteratorIPN8MapSetup8TileDataEEES9_S9_EENS_4pairIT2_T4_EESB_T3_SC_, symObjAddr: 0x4A88, symBinAddr: 0x10001CEC4, symSize: 0x64 }
  - { offset: 0xC65FF, size: 0x8, addend: 0x0, symName: __ZNSt3__121__unwrap_and_dispatchB8ue170006INS_10__overloadINS_11__move_loopINS_17_ClassicAlgPolicyEEENS_14__move_trivialEEENS_16reverse_iteratorIPN8MapSetup8TileDataEEESB_SB_Li0EEENS_4pairIT0_T2_EESD_T1_SE_, symObjAddr: 0x4AEC, symBinAddr: 0x10001CF28, symSize: 0x12C }
  - { offset: 0xC668F, size: 0x8, addend: 0x0, symName: __ZNSt3__114__unwrap_rangeB8ue170006INS_16reverse_iteratorIPN8MapSetup8TileDataEEES5_EENS_4pairIT0_S7_EET_S9_, symObjAddr: 0x4C18, symBinAddr: 0x10001D054, symSize: 0x84 }
  - { offset: 0xC6840, size: 0x8, addend: 0x0, symName: __ZNSt3__113__unwrap_iterB8ue170006INS_16reverse_iteratorIPN8MapSetup8TileDataEEENS_18__unwrap_iter_implIS5_Lb0EEELi0EEEDTclsrT0_8__unwrapclsr3stdE7declvalIT_EEEES9_, symObjAddr: 0x4D44, symBinAddr: 0x10001D180, symSize: 0x44 }
  - { offset: 0xC6884, size: 0x8, addend: 0x0, symName: __ZNSt3__19make_pairB8ue170006INS_16reverse_iteratorIPN8MapSetup8TileDataEEES5_EENS_4pairINS_18__unwrap_ref_decayIT_E4typeENS7_IT0_E4typeEEEOS8_OSB_, symObjAddr: 0x4D88, symBinAddr: 0x10001D1C4, symSize: 0x38 }
  - { offset: 0xC68D3, size: 0x8, addend: 0x0, symName: __ZNSt3__114__rewrap_rangeB8ue170006INS_16reverse_iteratorIPN8MapSetup8TileDataEEES5_EET_S6_T0_, symObjAddr: 0x4DC0, symBinAddr: 0x10001D1FC, symSize: 0x5C }
  - { offset: 0xC691F, size: 0x8, addend: 0x0, symName: __ZNSt3__113__rewrap_iterB8ue170006INS_16reverse_iteratorIPN8MapSetup8TileDataEEES5_NS_18__unwrap_iter_implIS5_Lb0EEEEET_S8_T0_, symObjAddr: 0x4E1C, symBinAddr: 0x10001D258, symSize: 0x74 }
  - { offset: 0xC6974, size: 0x8, addend: 0x0, symName: __ZNSt3__1neB8ue170006IPN8MapSetup8TileDataES3_EEbRKNS_16reverse_iteratorIT_EERKNS4_IT0_EE, symObjAddr: 0x4E90, symBinAddr: 0x10001D2CC, symSize: 0x48 }
  - { offset: 0xC6AA5, size: 0x8, addend: 0x0, symName: __ZNSt3__122__make_exception_guardB8ue170006INS_6vectorIN8MapSetup8TileDataENS_9allocatorIS3_EEE16__destroy_vectorEEENS_28__exception_guard_exceptionsIT_EES9_, symObjAddr: 0x5744, symBinAddr: 0x10001DB80, symSize: 0x40 }
  - { offset: 0xC6ADA, size: 0x8, addend: 0x0, symName: __ZNSt3__130__uninitialized_allocator_copyB8ue170006INS_9allocatorIN8MapSetup8TileDataEEEPS3_S5_S5_EET2_RT_T0_T1_S6_, symObjAddr: 0x5964, symBinAddr: 0x10001DDA0, symSize: 0x80 }
  - { offset: 0xC6B77, size: 0x8, addend: 0x0, symName: __ZNSt3__114__unwrap_rangeB8ue170006IPN8MapSetup8TileDataES3_EENS_4pairIT0_S5_EET_S7_, symObjAddr: 0x59E4, symBinAddr: 0x10001DE20, symSize: 0x60 }
  - { offset: 0xC6BC3, size: 0x8, addend: 0x0, symName: __ZNSt3__135__uninitialized_allocator_copy_implB8ue170006INS_9allocatorIN8MapSetup8TileDataEEES3_S3_S3_LPv0EEEPT2_RT_PT0_SB_S7_, symObjAddr: 0x5A44, symBinAddr: 0x10001DE80, symSize: 0x38 }
  - { offset: 0xC6C44, size: 0x8, addend: 0x0, symName: __ZNSt3__113__unwrap_iterB8ue170006IPN8MapSetup8TileDataENS_18__unwrap_iter_implIS3_Lb1EEELi0EEEDTclsrT0_8__unwrapclsr3stdE7declvalIT_EEEES7_, symObjAddr: 0x5A7C, symBinAddr: 0x10001DEB8, symSize: 0x24 }
  - { offset: 0xC6C88, size: 0x8, addend: 0x0, symName: __ZNSt3__113__rewrap_iterB8ue170006IPN8MapSetup8TileDataES3_NS_18__unwrap_iter_implIS3_Lb1EEEEET_S6_T0_, symObjAddr: 0x5AA0, symBinAddr: 0x10001DEDC, symSize: 0x3C }
  - { offset: 0xC6CDD, size: 0x8, addend: 0x0, symName: __ZNSt3__19make_pairB8ue170006IPN8MapSetup8TileDataES3_EENS_4pairINS_18__unwrap_ref_decayIT_E4typeENS5_IT0_E4typeEEEOS6_OS9_, symObjAddr: 0x5ADC, symBinAddr: 0x10001DF18, symSize: 0x38 }
  - { offset: 0xC6E2F, size: 0x8, addend: 0x0, symName: __ZNSt3__14copyB8ue170006IPN8MapSetup8TileDataES3_EET0_T_S5_S4_, symObjAddr: 0x5B84, symBinAddr: 0x10001DFC0, symSize: 0x40 }
  - { offset: 0xC6E89, size: 0x8, addend: 0x0, symName: __ZNSt3__16__copyB8ue170006INS_17_ClassicAlgPolicyEPN8MapSetup8TileDataES4_S4_EENS_4pairIT0_T2_EES6_T1_S7_, symObjAddr: 0x5BC4, symBinAddr: 0x10001E000, symSize: 0x44 }
  - { offset: 0xC6EF5, size: 0x8, addend: 0x0, symName: __ZNSt3__123__dispatch_copy_or_moveB8ue170006INS_17_ClassicAlgPolicyENS_11__copy_loopIS1_EENS_14__copy_trivialEPN8MapSetup8TileDataES7_S7_EENS_4pairIT2_T4_EES9_T3_SA_, symObjAddr: 0x5C08, symBinAddr: 0x10001E044, symSize: 0x44 }
  - { offset: 0xC6F73, size: 0x8, addend: 0x0, symName: __ZNSt3__121__unwrap_and_dispatchB8ue170006INS_10__overloadINS_11__copy_loopINS_17_ClassicAlgPolicyEEENS_14__copy_trivialEEEPN8MapSetup8TileDataES9_S9_Li0EEENS_4pairIT0_T2_EESB_T1_SC_, symObjAddr: 0x5C4C, symBinAddr: 0x10001E088, symSize: 0xB4 }
  - { offset: 0xC7047, size: 0x8, addend: 0x0, symName: __ZNSt3__114__rewrap_rangeB8ue170006IPN8MapSetup8TileDataES3_EET_S4_T0_, symObjAddr: 0x5D48, symBinAddr: 0x10001E184, symSize: 0x2C }
  - { offset: 0xC7093, size: 0x8, addend: 0x0, symName: __ZNSt3__119__copy_trivial_implB8ue170006IN8MapSetup8TileDataES2_EENS_4pairIPT_PT0_EES5_S5_S7_, symObjAddr: 0x5D74, symBinAddr: 0x10001E1B0, symSize: 0x88 }
  - { offset: 0xC70FB, size: 0x8, addend: 0x0, symName: __ZNSt3__119__constexpr_memmoveB8ue170006IN8MapSetup8TileDataES2_Li0EEEPT_S4_PT0_NS_15__element_countE, symObjAddr: 0x5DFC, symBinAddr: 0x10001E238, symSize: 0x68 }
  - { offset: 0xC7169, size: 0x8, addend: 0x0, symName: __ZNSt3__19make_pairB8ue170006IRPN8MapSetup8TileDataES3_EENS_4pairINS_18__unwrap_ref_decayIT_E4typeENS6_IT0_E4typeEEEOS7_OSA_, symObjAddr: 0x5E64, symBinAddr: 0x10001E2A0, symSize: 0x38 }
  - { offset: 0xC720B, size: 0x8, addend: 0x0, symName: __ZNSt3__119__allocate_at_leastB8ue170006INS_9allocatorINS_6vectorIN8MapSetup8TileDataENS1_IS4_EEEEEEEENS_19__allocation_resultINS_16allocator_traitsIT_E7pointerEEERSA_m, symObjAddr: 0x6458, symBinAddr: 0x10001E894, symSize: 0x40 }
  - { offset: 0xC724E, size: 0x8, addend: 0x0, symName: __ZNSt3__142__uninitialized_allocator_move_if_noexceptB8ue170006INS_9allocatorINS_6vectorIN8MapSetup8TileDataENS1_IS4_EEEEEENS_16reverse_iteratorIPS6_EESA_SA_EET2_RT_T0_T1_SB_, symObjAddr: 0x6610, symBinAddr: 0x10001EA4C, symSize: 0x12C }
  - { offset: 0xC72EE, size: 0x8, addend: 0x0, symName: __ZNSt3__14swapB8ue170006IPNS_6vectorIN8MapSetup8TileDataENS_9allocatorIS3_EEEEEENS_9enable_ifIXaasr21is_move_constructibleIT_EE5valuesr18is_move_assignableIS9_EE5valueEvE4typeERS9_SC_, symObjAddr: 0x6788, symBinAddr: 0x10001EBC4, symSize: 0x3C }
  - { offset: 0xC733F, size: 0x8, addend: 0x0, symName: __ZNSt3__122__make_exception_guardB8ue170006INS_29_AllocatorDestroyRangeReverseINS_9allocatorINS_6vectorIN8MapSetup8TileDataENS2_IS5_EEEEEENS_16reverse_iteratorIPS7_EEEEEENS_28__exception_guard_exceptionsIT_EESE_, symObjAddr: 0x688C, symBinAddr: 0x10001ECC8, symSize: 0x4C }
  - { offset: 0xC7375, size: 0x8, addend: 0x0, symName: __ZNSt3__1neB8ue170006IPNS_6vectorIN8MapSetup8TileDataENS_9allocatorIS3_EEEES7_EEbRKNS_16reverse_iteratorIT_EERKNS8_IT0_EE, symObjAddr: 0x691C, symBinAddr: 0x10001ED58, symSize: 0x48 }
  - { offset: 0xC73C1, size: 0x8, addend: 0x0, symName: __ZNSt3__112__to_addressB8ue170006INS_16reverse_iteratorIPNS_6vectorIN8MapSetup8TileDataENS_9allocatorIS4_EEEEEEvEEu7__decayIDTclsr19__to_address_helperIT_EE6__callclsr3stdE7declvalIRKSA_EEEEESC_, symObjAddr: 0x6998, symBinAddr: 0x10001EDD4, symSize: 0x24 }
  - { offset: 0xC7420, size: 0x8, addend: 0x0, symName: __ZNSt3__119__allocator_destroyB8ue170006INS_9allocatorINS_6vectorIN8MapSetup8TileDataENS1_IS4_EEEEEENS_16reverse_iteratorINS8_IPS6_EEEESB_EEvRT_T0_T1_, symObjAddr: 0x6D70, symBinAddr: 0x10001F1AC, symSize: 0x70 }
  - { offset: 0xC7485, size: 0x8, addend: 0x0, symName: __ZNSt3__1neB8ue170006INS_16reverse_iteratorIPNS_6vectorIN8MapSetup8TileDataENS_9allocatorIS4_EEEEEES9_EEbRKNS1_IT_EERKNS1_IT0_EE, symObjAddr: 0x6E1C, symBinAddr: 0x10001F258, symSize: 0x60 }
  - { offset: 0xC74D1, size: 0x8, addend: 0x0, symName: __ZNSt3__112__to_addressB8ue170006INS_16reverse_iteratorINS1_IPNS_6vectorIN8MapSetup8TileDataENS_9allocatorIS4_EEEEEEEEvEEu7__decayIDTclsr19__to_address_helperIT_EE6__callclsr3stdE7declvalIRKSB_EEEEESD_, symObjAddr: 0x6E7C, symBinAddr: 0x10001F2B8, symSize: 0x24 }
  - { offset: 0xC8995, size: 0x8, addend: 0x0, symName: __ZNSt3__16vectorIN8MapSetup8TileDataENS_9allocatorIS2_EEE26__swap_out_circular_bufferERNS_14__split_bufferIS2_RS4_EE, symObjAddr: 0x3FAC, symBinAddr: 0x10001C6F8, symSize: 0x110 }
  - { offset: 0xC8A09, size: 0x8, addend: 0x0, symName: __ZNSt3__16vectorINS0_IN8MapSetup8TileDataENS_9allocatorIS2_EEEENS3_IS5_EEE26__swap_out_circular_bufferERNS_14__split_bufferIS5_RS6_EE, symObjAddr: 0x60E8, symBinAddr: 0x10001E524, symSize: 0x110 }
  - { offset: 0xC8AA7, size: 0x8, addend: 0x0, symName: __ZN8MapSetupC2EN2sf7Vector2IiEE, symObjAddr: 0x0, symBinAddr: 0x100019F04, symSize: 0x118 }
  - { offset: 0xC8AE1, size: 0x8, addend: 0x0, symName: __ZNSt3__16vectorINS0_IN8MapSetup8TileDataENS_9allocatorIS2_EEEENS3_IS5_EEEC1B8ue170006Ev, symObjAddr: 0x194, symBinAddr: 0x10001A01C, symSize: 0x2C }
  - { offset: 0xC8B0B, size: 0x8, addend: 0x0, symName: __ZNSt3__16vectorIN2sf7Vector2IfEENS_9allocatorIS3_EEEC1B8ue170006Ev, symObjAddr: 0x1C0, symBinAddr: 0x10001A048, symSize: 0x2C }
  - { offset: 0xC8B35, size: 0x8, addend: 0x0, symName: __ZNSt3__16vectorIN2sf7Vector2IfEENS_9allocatorIS3_EEED1B8ue170006Ev, symObjAddr: 0x218, symBinAddr: 0x10001A074, symSize: 0x2C }
  - { offset: 0xC8B5F, size: 0x8, addend: 0x0, symName: __ZNSt3__16vectorINS0_IN8MapSetup8TileDataENS_9allocatorIS2_EEEENS3_IS5_EEED1B8ue170006Ev, symObjAddr: 0x244, symBinAddr: 0x10001A0A0, symSize: 0x2C }
  - { offset: 0xC8B89, size: 0x8, addend: 0x0, symName: __ZN8MapSetupC1EN2sf7Vector2IiEE, symObjAddr: 0x2B0, symBinAddr: 0x10001A0CC, symSize: 0x34 }
  - { offset: 0xC8BC3, size: 0x8, addend: 0x0, symName: __ZN8MapSetup10SetupTilesEv, symObjAddr: 0x2E4, symBinAddr: 0x10001A100, symSize: 0x15C }
  - { offset: 0xC8C43, size: 0x8, addend: 0x0, symName: __ZNSt3__16vectorINS0_IN8MapSetup8TileDataENS_9allocatorIS2_EEEENS3_IS5_EEE5clearB8ue170006Ev, symObjAddr: 0x440, symBinAddr: 0x10001A25C, symSize: 0x44 }
  - { offset: 0xC8C78, size: 0x8, addend: 0x0, symName: __ZNSt3__16vectorIN8MapSetup8TileDataENS_9allocatorIS2_EEEC1B8ue170006Ev, symObjAddr: 0x484, symBinAddr: 0x10001A2A0, symSize: 0x2C }
  - { offset: 0xC8CA7, size: 0x8, addend: 0x0, symName: __ZN8MapSetup8TileDataC1Ev, symObjAddr: 0x4B0, symBinAddr: 0x10001A2CC, symSize: 0x2C }
  - { offset: 0xC8CD3, size: 0x8, addend: 0x0, symName: __ZNSt3__16vectorIN8MapSetup8TileDataENS_9allocatorIS2_EEE12emplace_backIJRS2_EEES7_DpOT_, symObjAddr: 0x518, symBinAddr: 0x10001A2F8, symSize: 0x74 }
  - { offset: 0xC8D15, size: 0x8, addend: 0x0, symName: __ZNSt3__16vectorINS0_IN8MapSetup8TileDataENS_9allocatorIS2_EEEENS3_IS5_EEE12emplace_backIJRS5_EEES9_DpOT_, symObjAddr: 0x58C, symBinAddr: 0x10001A36C, symSize: 0x74 }
  - { offset: 0xC8D57, size: 0x8, addend: 0x0, symName: __ZNSt3__16vectorIN8MapSetup8TileDataENS_9allocatorIS2_EEED1B8ue170006Ev, symObjAddr: 0x600, symBinAddr: 0x10001A3E0, symSize: 0x2C }
  - { offset: 0xC8D81, size: 0x8, addend: 0x0, symName: __ZN8MapSetup15notifyObserversEv, symObjAddr: 0x62C, symBinAddr: 0x10001A40C, symSize: 0x90 }
  - { offset: 0xC8DF8, size: 0x8, addend: 0x0, symName: __ZN8MapSetup18HighlightEdgeTilesEN4Tile4TypeE, symObjAddr: 0x6BC, symBinAddr: 0x10001A49C, symSize: 0x180 }
  - { offset: 0xC8E66, size: 0x8, addend: 0x0, symName: __ZNKSt3__16vectorINS0_IN8MapSetup8TileDataENS_9allocatorIS2_EEEENS3_IS5_EEE4sizeB8ue170006Ev, symObjAddr: 0x83C, symBinAddr: 0x10001A61C, symSize: 0x28 }
  - { offset: 0xC8E8C, size: 0x8, addend: 0x0, symName: __ZNSt3__16vectorINS0_IN8MapSetup8TileDataENS_9allocatorIS2_EEEENS3_IS5_EEEixB8ue170006Em, symObjAddr: 0x864, symBinAddr: 0x10001A644, symSize: 0x2C }
  - { offset: 0xC8EC3, size: 0x8, addend: 0x0, symName: __ZNKSt3__16vectorIN8MapSetup8TileDataENS_9allocatorIS2_EEE4sizeB8ue170006Ev, symObjAddr: 0x890, symBinAddr: 0x10001A670, symSize: 0x28 }
  - { offset: 0xC8EE9, size: 0x8, addend: 0x0, symName: __ZNSt3__16vectorIN8MapSetup8TileDataENS_9allocatorIS2_EEEixB8ue170006Em, symObjAddr: 0x91C, symBinAddr: 0x10001A6FC, symSize: 0x2C }
  - { offset: 0xC8F20, size: 0x8, addend: 0x0, symName: __ZN8MapSetup10isEdgeTileEN2sf7Vector2IfEE, symObjAddr: 0x948, symBinAddr: 0x10001A728, symSize: 0x13C }
  - { offset: 0xC8F72, size: 0x8, addend: 0x0, symName: __ZN8MapSetup10debugPrintEv, symObjAddr: 0xA84, symBinAddr: 0x10001A864, symSize: 0x2B8 }
  - { offset: 0xC8FD2, size: 0x8, addend: 0x0, symName: __ZN8MapSetup11SetTileTypeEN2sf7Vector2IfEEN4Tile4TypeE, symObjAddr: 0xE6C, symBinAddr: 0x10001AB1C, symSize: 0x7C }
  - { offset: 0xC9024, size: 0x8, addend: 0x0, symName: __ZN8MapSetup20tileCenterPosToIndexEN2sf7Vector2IfEE, symObjAddr: 0xEE8, symBinAddr: 0x10001AB98, symSize: 0x5C }
  - { offset: 0xC905A, size: 0x8, addend: 0x0, symName: __ZN2sf7Vector2IiEC1Eii, symObjAddr: 0xF44, symBinAddr: 0x10001ABF4, symSize: 0x3C }
  - { offset: 0xC90A2, size: 0x8, addend: 0x0, symName: __ZN8MapSetup12ValidatePathEv, symObjAddr: 0xF80, symBinAddr: 0x10001AC30, symSize: 0x1AC }
  - { offset: 0xC912C, size: 0x8, addend: 0x0, symName: __ZNKSt3__16vectorIN2sf7Vector2IfEENS_9allocatorIS3_EEE5emptyB8ue170006Ev, symObjAddr: 0x112C, symBinAddr: 0x10001ADDC, symSize: 0x28 }
  - { offset: 0xC9152, size: 0x8, addend: 0x0, symName: __ZNKSt3__16vectorIN2sf7Vector2IfEENS_9allocatorIS3_EEE4sizeB8ue170006Ev, symObjAddr: 0x1154, symBinAddr: 0x10001AE04, symSize: 0x28 }
  - { offset: 0xC9178, size: 0x8, addend: 0x0, symName: __ZNSt3__16vectorIN2sf7Vector2IfEENS_9allocatorIS3_EEEixB8ue170006Em, symObjAddr: 0x117C, symBinAddr: 0x10001AE2C, symSize: 0x24 }
  - { offset: 0xC91AF, size: 0x8, addend: 0x0, symName: __ZN8MapSetupD1Ev, symObjAddr: 0x1248, symBinAddr: 0x10001AE50, symSize: 0x2C }
  - { offset: 0xC91D9, size: 0x8, addend: 0x0, symName: __ZN8MapSetupD0Ev, symObjAddr: 0x1274, symBinAddr: 0x10001AE7C, symSize: 0x30 }
  - { offset: 0xC9203, size: 0x8, addend: 0x0, symName: __ZN8MapSetup11AddObserverEP13IGameObserver, symObjAddr: 0x12A4, symBinAddr: 0x10001AEAC, symSize: 0x34 }
  - { offset: 0xC9237, size: 0x8, addend: 0x0, symName: __ZN8MapSetup14RemoveObserverEP13IGameObserver, symObjAddr: 0x12D8, symBinAddr: 0x10001AEE0, symSize: 0xAC }
  - { offset: 0xC926B, size: 0x8, addend: 0x0, symName: __ZN8MapSetup8TileDataC2Ev, symObjAddr: 0x13A4, symBinAddr: 0x10001AF8C, symSize: 0x2C }
  - { offset: 0xC9297, size: 0x8, addend: 0x0, symName: __ZN2sf7Vector2IiEC2Eii, symObjAddr: 0x1598, symBinAddr: 0x10001AFB8, symSize: 0x2C }
  - { offset: 0xC92EB, size: 0x8, addend: 0x0, symName: __ZNSt3__16vectorINS0_IN8MapSetup8TileDataENS_9allocatorIS2_EEEENS3_IS5_EEEC2B8ue170006Ev, symObjAddr: 0x2284, symBinAddr: 0x10001AFE4, symSize: 0x4C }
  - { offset: 0xC9315, size: 0x8, addend: 0x0, symName: __ZNSt3__117__compressed_pairIPNS_6vectorIN8MapSetup8TileDataENS_9allocatorIS3_EEEENS4_IS6_EEEC1B8ue170006IDnNS_18__default_init_tagEEEOT_OT0_, symObjAddr: 0x22D0, symBinAddr: 0x10001B030, symSize: 0x3C }
  - { offset: 0xC936D, size: 0x8, addend: 0x0, symName: __ZNSt3__117__compressed_pairIPNS_6vectorIN8MapSetup8TileDataENS_9allocatorIS3_EEEENS4_IS6_EEEC2B8ue170006IDnNS_18__default_init_tagEEEOT_OT0_, symObjAddr: 0x230C, symBinAddr: 0x10001B06C, symSize: 0x40 }
  - { offset: 0xC93C5, size: 0x8, addend: 0x0, symName: __ZNSt3__122__compressed_pair_elemIPNS_6vectorIN8MapSetup8TileDataENS_9allocatorIS3_EEEELi0ELb0EEC2B8ue170006IDnvEEOT_, symObjAddr: 0x234C, symBinAddr: 0x10001B0AC, symSize: 0x1C }
  - { offset: 0xC9407, size: 0x8, addend: 0x0, symName: __ZNSt3__122__compressed_pair_elemINS_9allocatorINS_6vectorIN8MapSetup8TileDataENS1_IS4_EEEEEELi1ELb1EEC2B8ue170006ENS_18__default_init_tagE, symObjAddr: 0x2368, symBinAddr: 0x10001B0C8, symSize: 0x2C }
  - { offset: 0xC943B, size: 0x8, addend: 0x0, symName: __ZNSt3__19allocatorINS_6vectorIN8MapSetup8TileDataENS0_IS3_EEEEEC2B8ue170006Ev, symObjAddr: 0x2394, symBinAddr: 0x10001B0F4, symSize: 0x2C }
  - { offset: 0xC9465, size: 0x8, addend: 0x0, symName: __ZNSt3__116__non_trivial_ifILb1ENS_9allocatorINS_6vectorIN8MapSetup8TileDataENS1_IS4_EEEEEEEC2B8ue170006Ev, symObjAddr: 0x23C0, symBinAddr: 0x10001B120, symSize: 0x14 }
  - { offset: 0xC948F, size: 0x8, addend: 0x0, symName: __ZNSt3__16vectorIN2sf7Vector2IfEENS_9allocatorIS3_EEEC2B8ue170006Ev, symObjAddr: 0x23D4, symBinAddr: 0x10001B134, symSize: 0x4C }
  - { offset: 0xC94B9, size: 0x8, addend: 0x0, symName: __ZNSt3__117__compressed_pairIPN2sf7Vector2IfEENS_9allocatorIS3_EEEC1B8ue170006IDnNS_18__default_init_tagEEEOT_OT0_, symObjAddr: 0x2420, symBinAddr: 0x10001B180, symSize: 0x3C }
  - { offset: 0xC9511, size: 0x8, addend: 0x0, symName: __ZNSt3__117__compressed_pairIPN2sf7Vector2IfEENS_9allocatorIS3_EEEC2B8ue170006IDnNS_18__default_init_tagEEEOT_OT0_, symObjAddr: 0x245C, symBinAddr: 0x10001B1BC, symSize: 0x40 }
  - { offset: 0xC9569, size: 0x8, addend: 0x0, symName: __ZNSt3__122__compressed_pair_elemIPN2sf7Vector2IfEELi0ELb0EEC2B8ue170006IDnvEEOT_, symObjAddr: 0x249C, symBinAddr: 0x10001B1FC, symSize: 0x1C }
  - { offset: 0xC95AB, size: 0x8, addend: 0x0, symName: __ZNSt3__122__compressed_pair_elemINS_9allocatorIN2sf7Vector2IfEEEELi1ELb1EEC2B8ue170006ENS_18__default_init_tagE, symObjAddr: 0x24B8, symBinAddr: 0x10001B218, symSize: 0x2C }
  - { offset: 0xC95DF, size: 0x8, addend: 0x0, symName: __ZNSt3__19allocatorIN2sf7Vector2IfEEEC2B8ue170006Ev, symObjAddr: 0x24E4, symBinAddr: 0x10001B244, symSize: 0x2C }
  - { offset: 0xC9609, size: 0x8, addend: 0x0, symName: __ZNSt3__116__non_trivial_ifILb1ENS_9allocatorIN2sf7Vector2IfEEEEEC2B8ue170006Ev, symObjAddr: 0x2510, symBinAddr: 0x10001B270, symSize: 0x14 }
  - { offset: 0xC9633, size: 0x8, addend: 0x0, symName: __ZNSt3__16vectorINS0_IN8MapSetup8TileDataENS_9allocatorIS2_EEEENS3_IS5_EEED2B8ue170006Ev, symObjAddr: 0x2B38, symBinAddr: 0x10001B284, symSize: 0x44 }
  - { offset: 0xC965D, size: 0x8, addend: 0x0, symName: __ZNSt3__16vectorINS0_IN8MapSetup8TileDataENS_9allocatorIS2_EEEENS3_IS5_EEE16__destroy_vectorC1B8ue170006ERS7_, symObjAddr: 0x2B7C, symBinAddr: 0x10001B2C8, symSize: 0x34 }
  - { offset: 0xC9696, size: 0x8, addend: 0x0, symName: __ZNSt3__16vectorINS0_IN8MapSetup8TileDataENS_9allocatorIS2_EEEENS3_IS5_EEE16__destroy_vectorclB8ue170006Ev, symObjAddr: 0x2BB0, symBinAddr: 0x10001B2FC, symSize: 0x90 }
  - { offset: 0xC96BC, size: 0x8, addend: 0x0, symName: __ZNSt3__16vectorINS0_IN8MapSetup8TileDataENS_9allocatorIS2_EEEENS3_IS5_EEE16__destroy_vectorC2B8ue170006ERS7_, symObjAddr: 0x2C40, symBinAddr: 0x10001B38C, symSize: 0x20 }
  - { offset: 0xC96F5, size: 0x8, addend: 0x0, symName: __ZNSt3__16vectorINS0_IN8MapSetup8TileDataENS_9allocatorIS2_EEEENS3_IS5_EEE7__clearB8ue170006Ev, symObjAddr: 0x2C60, symBinAddr: 0x10001B3AC, symSize: 0x28 }
  - { offset: 0xC971B, size: 0x8, addend: 0x0, symName: __ZNKSt3__16vectorINS0_IN8MapSetup8TileDataENS_9allocatorIS2_EEEENS3_IS5_EEE17__annotate_deleteB8ue170006Ev, symObjAddr: 0x2C88, symBinAddr: 0x10001B3D4, symSize: 0xD4 }
  - { offset: 0xC9741, size: 0x8, addend: 0x0, symName: __ZNSt3__116allocator_traitsINS_9allocatorINS_6vectorIN8MapSetup8TileDataENS1_IS4_EEEEEEE10deallocateB8ue170006ERS7_PS6_m, symObjAddr: 0x2D5C, symBinAddr: 0x10001B4A8, symSize: 0x34 }
  - { offset: 0xC9783, size: 0x8, addend: 0x0, symName: __ZNSt3__16vectorINS0_IN8MapSetup8TileDataENS_9allocatorIS2_EEEENS3_IS5_EEE7__allocB8ue170006Ev, symObjAddr: 0x2D90, symBinAddr: 0x10001B4DC, symSize: 0x28 }
  - { offset: 0xC97A9, size: 0x8, addend: 0x0, symName: __ZNKSt3__16vectorINS0_IN8MapSetup8TileDataENS_9allocatorIS2_EEEENS3_IS5_EEE8capacityB8ue170006Ev, symObjAddr: 0x2DB8, symBinAddr: 0x10001B504, symSize: 0x40 }
  - { offset: 0xC97CF, size: 0x8, addend: 0x0, symName: __ZNSt3__16vectorINS0_IN8MapSetup8TileDataENS_9allocatorIS2_EEEENS3_IS5_EEE22__base_destruct_at_endB8ue170006EPS5_, symObjAddr: 0x2DF8, symBinAddr: 0x10001B544, symSize: 0x8C }
  - { offset: 0xC9813, size: 0x8, addend: 0x0, symName: __ZNSt3__116allocator_traitsINS_9allocatorINS_6vectorIN8MapSetup8TileDataENS1_IS4_EEEEEEE7destroyB8ue170006IS6_vEEvRS7_PT_, symObjAddr: 0x2E84, symBinAddr: 0x10001B5D0, symSize: 0x2C }
  - { offset: 0xC9850, size: 0x8, addend: 0x0, symName: __ZNSt3__19allocatorINS_6vectorIN8MapSetup8TileDataENS0_IS3_EEEEE7destroyB8ue170006EPS5_, symObjAddr: 0x2EC4, symBinAddr: 0x10001B610, symSize: 0x28 }
  - { offset: 0xC9884, size: 0x8, addend: 0x0, symName: __ZNKSt3__16vectorINS0_IN8MapSetup8TileDataENS_9allocatorIS2_EEEENS3_IS5_EEE31__annotate_contiguous_containerB8ue170006EPKvS9_S9_S9_, symObjAddr: 0x2EEC, symBinAddr: 0x10001B638, symSize: 0x20 }
  - { offset: 0xC98D6, size: 0x8, addend: 0x0, symName: __ZNKSt3__16vectorINS0_IN8MapSetup8TileDataENS_9allocatorIS2_EEEENS3_IS5_EEE4dataB8ue170006Ev, symObjAddr: 0x2F0C, symBinAddr: 0x10001B658, symSize: 0x28 }
  - { offset: 0xC98FC, size: 0x8, addend: 0x0, symName: __ZNSt3__19allocatorINS_6vectorIN8MapSetup8TileDataENS0_IS3_EEEEE10deallocateB8ue170006EPS5_m, symObjAddr: 0x2F34, symBinAddr: 0x10001B680, symSize: 0x44 }
  - { offset: 0xC993E, size: 0x8, addend: 0x0, symName: __ZNSt3__117__compressed_pairIPNS_6vectorIN8MapSetup8TileDataENS_9allocatorIS3_EEEENS4_IS6_EEE6secondB8ue170006Ev, symObjAddr: 0x2F78, symBinAddr: 0x10001B6C4, symSize: 0x24 }
  - { offset: 0xC9964, size: 0x8, addend: 0x0, symName: __ZNSt3__122__compressed_pair_elemINS_9allocatorINS_6vectorIN8MapSetup8TileDataENS1_IS4_EEEEEELi1ELb1EE5__getB8ue170006Ev, symObjAddr: 0x2F9C, symBinAddr: 0x10001B6E8, symSize: 0x14 }
  - { offset: 0xC998A, size: 0x8, addend: 0x0, symName: __ZNKSt3__16vectorINS0_IN8MapSetup8TileDataENS_9allocatorIS2_EEEENS3_IS5_EEE9__end_capB8ue170006Ev, symObjAddr: 0x2FB0, symBinAddr: 0x10001B6FC, symSize: 0x28 }
  - { offset: 0xC99B0, size: 0x8, addend: 0x0, symName: __ZNKSt3__117__compressed_pairIPNS_6vectorIN8MapSetup8TileDataENS_9allocatorIS3_EEEENS4_IS6_EEE5firstB8ue170006Ev, symObjAddr: 0x2FD8, symBinAddr: 0x10001B724, symSize: 0x24 }
  - { offset: 0xC99D6, size: 0x8, addend: 0x0, symName: __ZNKSt3__122__compressed_pair_elemIPNS_6vectorIN8MapSetup8TileDataENS_9allocatorIS3_EEEELi0ELb0EE5__getB8ue170006Ev, symObjAddr: 0x2FFC, symBinAddr: 0x10001B748, symSize: 0x14 }
  - { offset: 0xC99FC, size: 0x8, addend: 0x0, symName: __ZNSt3__16vectorIN2sf7Vector2IfEENS_9allocatorIS3_EEED2B8ue170006Ev, symObjAddr: 0x3010, symBinAddr: 0x10001B75C, symSize: 0x44 }
  - { offset: 0xC9A26, size: 0x8, addend: 0x0, symName: __ZNSt3__16vectorIN2sf7Vector2IfEENS_9allocatorIS3_EEE16__destroy_vectorC1B8ue170006ERS6_, symObjAddr: 0x3054, symBinAddr: 0x10001B7A0, symSize: 0x34 }
  - { offset: 0xC9A5F, size: 0x8, addend: 0x0, symName: __ZNSt3__16vectorIN2sf7Vector2IfEENS_9allocatorIS3_EEE16__destroy_vectorclB8ue170006Ev, symObjAddr: 0x3088, symBinAddr: 0x10001B7D4, symSize: 0x90 }
  - { offset: 0xC9A85, size: 0x8, addend: 0x0, symName: __ZNSt3__16vectorIN2sf7Vector2IfEENS_9allocatorIS3_EEE16__destroy_vectorC2B8ue170006ERS6_, symObjAddr: 0x3118, symBinAddr: 0x10001B864, symSize: 0x20 }
  - { offset: 0xC9ABE, size: 0x8, addend: 0x0, symName: __ZNSt3__16vectorIN2sf7Vector2IfEENS_9allocatorIS3_EEE7__clearB8ue170006Ev, symObjAddr: 0x3138, symBinAddr: 0x10001B884, symSize: 0x28 }
  - { offset: 0xC9AE4, size: 0x8, addend: 0x0, symName: __ZNKSt3__16vectorIN2sf7Vector2IfEENS_9allocatorIS3_EEE17__annotate_deleteB8ue170006Ev, symObjAddr: 0x3160, symBinAddr: 0x10001B8AC, symSize: 0xB8 }
  - { offset: 0xC9B0A, size: 0x8, addend: 0x0, symName: __ZNSt3__116allocator_traitsINS_9allocatorIN2sf7Vector2IfEEEEE10deallocateB8ue170006ERS5_PS4_m, symObjAddr: 0x3218, symBinAddr: 0x10001B964, symSize: 0x34 }
  - { offset: 0xC9B4C, size: 0x8, addend: 0x0, symName: __ZNSt3__16vectorIN2sf7Vector2IfEENS_9allocatorIS3_EEE7__allocB8ue170006Ev, symObjAddr: 0x324C, symBinAddr: 0x10001B998, symSize: 0x28 }
  - { offset: 0xC9B72, size: 0x8, addend: 0x0, symName: __ZNKSt3__16vectorIN2sf7Vector2IfEENS_9allocatorIS3_EEE8capacityB8ue170006Ev, symObjAddr: 0x3274, symBinAddr: 0x10001B9C0, symSize: 0x40 }
  - { offset: 0xC9B98, size: 0x8, addend: 0x0, symName: __ZNSt3__16vectorIN2sf7Vector2IfEENS_9allocatorIS3_EEE22__base_destruct_at_endB8ue170006EPS3_, symObjAddr: 0x32B4, symBinAddr: 0x10001BA00, symSize: 0x8C }
  - { offset: 0xC9BDC, size: 0x8, addend: 0x0, symName: __ZNSt3__116allocator_traitsINS_9allocatorIN2sf7Vector2IfEEEEE7destroyB8ue170006IS4_vEEvRS5_PT_, symObjAddr: 0x3340, symBinAddr: 0x10001BA8C, symSize: 0x2C }
  - { offset: 0xC9C19, size: 0x8, addend: 0x0, symName: __ZNSt3__19allocatorIN2sf7Vector2IfEEE7destroyB8ue170006EPS3_, symObjAddr: 0x3380, symBinAddr: 0x10001BACC, symSize: 0x14 }
  - { offset: 0xC9C4D, size: 0x8, addend: 0x0, symName: __ZNKSt3__16vectorIN2sf7Vector2IfEENS_9allocatorIS3_EEE31__annotate_contiguous_containerB8ue170006EPKvS8_S8_S8_, symObjAddr: 0x3394, symBinAddr: 0x10001BAE0, symSize: 0x20 }
  - { offset: 0xC9C9F, size: 0x8, addend: 0x0, symName: __ZNKSt3__16vectorIN2sf7Vector2IfEENS_9allocatorIS3_EEE4dataB8ue170006Ev, symObjAddr: 0x33B4, symBinAddr: 0x10001BB00, symSize: 0x28 }
  - { offset: 0xC9CC5, size: 0x8, addend: 0x0, symName: __ZNSt3__19allocatorIN2sf7Vector2IfEEE10deallocateB8ue170006EPS3_m, symObjAddr: 0x33DC, symBinAddr: 0x10001BB28, symSize: 0x40 }
  - { offset: 0xC9D07, size: 0x8, addend: 0x0, symName: __ZNSt3__117__compressed_pairIPN2sf7Vector2IfEENS_9allocatorIS3_EEE6secondB8ue170006Ev, symObjAddr: 0x341C, symBinAddr: 0x10001BB68, symSize: 0x24 }
  - { offset: 0xC9D2D, size: 0x8, addend: 0x0, symName: __ZNSt3__122__compressed_pair_elemINS_9allocatorIN2sf7Vector2IfEEEELi1ELb1EE5__getB8ue170006Ev, symObjAddr: 0x3440, symBinAddr: 0x10001BB8C, symSize: 0x14 }
  - { offset: 0xC9D53, size: 0x8, addend: 0x0, symName: __ZNKSt3__16vectorIN2sf7Vector2IfEENS_9allocatorIS3_EEE9__end_capB8ue170006Ev, symObjAddr: 0x3454, symBinAddr: 0x10001BBA0, symSize: 0x28 }
  - { offset: 0xC9D79, size: 0x8, addend: 0x0, symName: __ZNKSt3__117__compressed_pairIPN2sf7Vector2IfEENS_9allocatorIS3_EEE5firstB8ue170006Ev, symObjAddr: 0x347C, symBinAddr: 0x10001BBC8, symSize: 0x24 }
  - { offset: 0xC9D9F, size: 0x8, addend: 0x0, symName: __ZNKSt3__122__compressed_pair_elemIPN2sf7Vector2IfEELi0ELb0EE5__getB8ue170006Ev, symObjAddr: 0x34A0, symBinAddr: 0x10001BBEC, symSize: 0x14 }
  - { offset: 0xC9DC5, size: 0x8, addend: 0x0, symName: __ZNKSt3__16vectorINS0_IN8MapSetup8TileDataENS_9allocatorIS2_EEEENS3_IS5_EEE17__annotate_shrinkB8ue170006Em, symObjAddr: 0x34B4, symBinAddr: 0x10001BC00, symSize: 0xD0 }
  - { offset: 0xC9DFA, size: 0x8, addend: 0x0, symName: __ZNSt3__16vectorIN8MapSetup8TileDataENS_9allocatorIS2_EEEC2B8ue170006Ev, symObjAddr: 0x3584, symBinAddr: 0x10001BCD0, symSize: 0x4C }
  - { offset: 0xC9E24, size: 0x8, addend: 0x0, symName: __ZNSt3__117__compressed_pairIPN8MapSetup8TileDataENS_9allocatorIS2_EEEC1B8ue170006IDnNS_18__default_init_tagEEEOT_OT0_, symObjAddr: 0x35D0, symBinAddr: 0x10001BD1C, symSize: 0x3C }
  - { offset: 0xC9E7C, size: 0x8, addend: 0x0, symName: __ZNSt3__117__compressed_pairIPN8MapSetup8TileDataENS_9allocatorIS2_EEEC2B8ue170006IDnNS_18__default_init_tagEEEOT_OT0_, symObjAddr: 0x360C, symBinAddr: 0x10001BD58, symSize: 0x40 }
  - { offset: 0xC9ED4, size: 0x8, addend: 0x0, symName: __ZNSt3__122__compressed_pair_elemIPN8MapSetup8TileDataELi0ELb0EEC2B8ue170006IDnvEEOT_, symObjAddr: 0x364C, symBinAddr: 0x10001BD98, symSize: 0x1C }
  - { offset: 0xC9F16, size: 0x8, addend: 0x0, symName: __ZNSt3__122__compressed_pair_elemINS_9allocatorIN8MapSetup8TileDataEEELi1ELb1EEC2B8ue170006ENS_18__default_init_tagE, symObjAddr: 0x3668, symBinAddr: 0x10001BDB4, symSize: 0x2C }
  - { offset: 0xC9F4A, size: 0x8, addend: 0x0, symName: __ZNSt3__19allocatorIN8MapSetup8TileDataEEC2B8ue170006Ev, symObjAddr: 0x3694, symBinAddr: 0x10001BDE0, symSize: 0x2C }
  - { offset: 0xC9F74, size: 0x8, addend: 0x0, symName: __ZNSt3__116__non_trivial_ifILb1ENS_9allocatorIN8MapSetup8TileDataEEEEC2B8ue170006Ev, symObjAddr: 0x36C0, symBinAddr: 0x10001BE0C, symSize: 0x14 }
  - { offset: 0xC9F9E, size: 0x8, addend: 0x0, symName: __ZNSt3__16vectorIN8MapSetup8TileDataENS_9allocatorIS2_EEED2B8ue170006Ev, symObjAddr: 0x36D4, symBinAddr: 0x10001BE20, symSize: 0x44 }
  - { offset: 0xC9FC8, size: 0x8, addend: 0x0, symName: __ZNSt3__16vectorIN8MapSetup8TileDataENS_9allocatorIS2_EEE16__destroy_vectorC1B8ue170006ERS5_, symObjAddr: 0x3718, symBinAddr: 0x10001BE64, symSize: 0x34 }
  - { offset: 0xCA001, size: 0x8, addend: 0x0, symName: __ZNSt3__16vectorIN8MapSetup8TileDataENS_9allocatorIS2_EEE16__destroy_vectorclB8ue170006Ev, symObjAddr: 0x374C, symBinAddr: 0x10001BE98, symSize: 0x90 }
  - { offset: 0xCA027, size: 0x8, addend: 0x0, symName: __ZNSt3__16vectorIN8MapSetup8TileDataENS_9allocatorIS2_EEE16__destroy_vectorC2B8ue170006ERS5_, symObjAddr: 0x37DC, symBinAddr: 0x10001BF28, symSize: 0x20 }
  - { offset: 0xCA060, size: 0x8, addend: 0x0, symName: __ZNSt3__16vectorIN8MapSetup8TileDataENS_9allocatorIS2_EEE7__clearB8ue170006Ev, symObjAddr: 0x37FC, symBinAddr: 0x10001BF48, symSize: 0x28 }
  - { offset: 0xCA086, size: 0x8, addend: 0x0, symName: __ZNKSt3__16vectorIN8MapSetup8TileDataENS_9allocatorIS2_EEE17__annotate_deleteB8ue170006Ev, symObjAddr: 0x3824, symBinAddr: 0x10001BF70, symSize: 0xD4 }
  - { offset: 0xCA0AC, size: 0x8, addend: 0x0, symName: __ZNSt3__116allocator_traitsINS_9allocatorIN8MapSetup8TileDataEEEE10deallocateB8ue170006ERS4_PS3_m, symObjAddr: 0x38F8, symBinAddr: 0x10001C044, symSize: 0x34 }
  - { offset: 0xCA0EE, size: 0x8, addend: 0x0, symName: __ZNSt3__16vectorIN8MapSetup8TileDataENS_9allocatorIS2_EEE7__allocB8ue170006Ev, symObjAddr: 0x392C, symBinAddr: 0x10001C078, symSize: 0x28 }
  - { offset: 0xCA114, size: 0x8, addend: 0x0, symName: __ZNKSt3__16vectorIN8MapSetup8TileDataENS_9allocatorIS2_EEE8capacityB8ue170006Ev, symObjAddr: 0x3954, symBinAddr: 0x10001C0A0, symSize: 0x40 }
  - { offset: 0xCA13A, size: 0x8, addend: 0x0, symName: __ZNSt3__16vectorIN8MapSetup8TileDataENS_9allocatorIS2_EEE22__base_destruct_at_endB8ue170006EPS2_, symObjAddr: 0x3994, symBinAddr: 0x10001C0E0, symSize: 0x8C }
  - { offset: 0xCA17E, size: 0x8, addend: 0x0, symName: __ZNSt3__116allocator_traitsINS_9allocatorIN8MapSetup8TileDataEEEE7destroyB8ue170006IS3_vEEvRS4_PT_, symObjAddr: 0x3A20, symBinAddr: 0x10001C16C, symSize: 0x2C }
  - { offset: 0xCA1BB, size: 0x8, addend: 0x0, symName: __ZNSt3__19allocatorIN8MapSetup8TileDataEE7destroyB8ue170006EPS2_, symObjAddr: 0x3A60, symBinAddr: 0x10001C1AC, symSize: 0x14 }
  - { offset: 0xCA1EF, size: 0x8, addend: 0x0, symName: __ZNKSt3__16vectorIN8MapSetup8TileDataENS_9allocatorIS2_EEE31__annotate_contiguous_containerB8ue170006EPKvS7_S7_S7_, symObjAddr: 0x3A74, symBinAddr: 0x10001C1C0, symSize: 0x20 }
  - { offset: 0xCA241, size: 0x8, addend: 0x0, symName: __ZNKSt3__16vectorIN8MapSetup8TileDataENS_9allocatorIS2_EEE4dataB8ue170006Ev, symObjAddr: 0x3A94, symBinAddr: 0x10001C1E0, symSize: 0x28 }
  - { offset: 0xCA267, size: 0x8, addend: 0x0, symName: __ZNSt3__19allocatorIN8MapSetup8TileDataEE10deallocateB8ue170006EPS2_m, symObjAddr: 0x3ABC, symBinAddr: 0x10001C208, symSize: 0x44 }
  - { offset: 0xCA2A9, size: 0x8, addend: 0x0, symName: __ZNSt3__117__compressed_pairIPN8MapSetup8TileDataENS_9allocatorIS2_EEE6secondB8ue170006Ev, symObjAddr: 0x3B00, symBinAddr: 0x10001C24C, symSize: 0x24 }
  - { offset: 0xCA2CF, size: 0x8, addend: 0x0, symName: __ZNSt3__122__compressed_pair_elemINS_9allocatorIN8MapSetup8TileDataEEELi1ELb1EE5__getB8ue170006Ev, symObjAddr: 0x3B24, symBinAddr: 0x10001C270, symSize: 0x14 }
  - { offset: 0xCA2F5, size: 0x8, addend: 0x0, symName: __ZNKSt3__16vectorIN8MapSetup8TileDataENS_9allocatorIS2_EEE9__end_capB8ue170006Ev, symObjAddr: 0x3B38, symBinAddr: 0x10001C284, symSize: 0x28 }
  - { offset: 0xCA31B, size: 0x8, addend: 0x0, symName: __ZNKSt3__117__compressed_pairIPN8MapSetup8TileDataENS_9allocatorIS2_EEE5firstB8ue170006Ev, symObjAddr: 0x3B60, symBinAddr: 0x10001C2AC, symSize: 0x24 }
  - { offset: 0xCA341, size: 0x8, addend: 0x0, symName: __ZNKSt3__122__compressed_pair_elemIPN8MapSetup8TileDataELi0ELb0EE5__getB8ue170006Ev, symObjAddr: 0x3B84, symBinAddr: 0x10001C2D0, symSize: 0x14 }
  - { offset: 0xCA367, size: 0x8, addend: 0x0, symName: __ZNSt3__16vectorIN8MapSetup8TileDataENS_9allocatorIS2_EEE9__end_capB8ue170006Ev, symObjAddr: 0x3B98, symBinAddr: 0x10001C2E4, symSize: 0x28 }
  - { offset: 0xCA38D, size: 0x8, addend: 0x0, symName: __ZNSt3__16vectorIN8MapSetup8TileDataENS_9allocatorIS2_EEE22__construct_one_at_endB8ue170006IJRS2_EEEvDpOT_, symObjAddr: 0x3BC0, symBinAddr: 0x10001C30C, symSize: 0x90 }
  - { offset: 0xCA3DC, size: 0x8, addend: 0x0, symName: __ZNSt3__16vectorIN8MapSetup8TileDataENS_9allocatorIS2_EEE24__emplace_back_slow_pathIJRS2_EEEvDpOT_, symObjAddr: 0x3C50, symBinAddr: 0x10001C39C, symSize: 0xD8 }
  - { offset: 0xCA43C, size: 0x8, addend: 0x0, symName: __ZNSt3__16vectorIN8MapSetup8TileDataENS_9allocatorIS2_EEE4backB8ue170006Ev, symObjAddr: 0x3D28, symBinAddr: 0x10001C474, symSize: 0x1C }
  - { offset: 0xCA462, size: 0x8, addend: 0x0, symName: __ZNSt3__117__compressed_pairIPN8MapSetup8TileDataENS_9allocatorIS2_EEE5firstB8ue170006Ev, symObjAddr: 0x3D44, symBinAddr: 0x10001C490, symSize: 0x24 }
  - { offset: 0xCA488, size: 0x8, addend: 0x0, symName: __ZNSt3__122__compressed_pair_elemIPN8MapSetup8TileDataELi0ELb0EE5__getB8ue170006Ev, symObjAddr: 0x3D68, symBinAddr: 0x10001C4B4, symSize: 0x14 }
  - { offset: 0xCA4C9, size: 0x8, addend: 0x0, symName: __ZNSt3__16vectorIN8MapSetup8TileDataENS_9allocatorIS2_EEE21_ConstructTransactionC1B8ue170006ERS5_m, symObjAddr: 0x3D7C, symBinAddr: 0x10001C4C8, symSize: 0x3C }
  - { offset: 0xCA511, size: 0x8, addend: 0x0, symName: __ZNSt3__116allocator_traitsINS_9allocatorIN8MapSetup8TileDataEEEE9constructB8ue170006IS3_JRS3_EvEEvRS4_PT_DpOT0_, symObjAddr: 0x3DB8, symBinAddr: 0x10001C504, symSize: 0x34 }
  - { offset: 0xCA568, size: 0x8, addend: 0x0, symName: __ZNSt3__16vectorIN8MapSetup8TileDataENS_9allocatorIS2_EEE21_ConstructTransactionD1B8ue170006Ev, symObjAddr: 0x3DEC, symBinAddr: 0x10001C538, symSize: 0x2C }
  - { offset: 0xCA592, size: 0x8, addend: 0x0, symName: __ZNSt3__16vectorIN8MapSetup8TileDataENS_9allocatorIS2_EEE21_ConstructTransactionC2B8ue170006ERS5_m, symObjAddr: 0x3E18, symBinAddr: 0x10001C564, symSize: 0x4C }
  - { offset: 0xCA5DA, size: 0x8, addend: 0x0, symName: __ZNSt3__19allocatorIN8MapSetup8TileDataEE9constructB8ue170006IS2_JRS2_EEEvPT_DpOT0_, symObjAddr: 0x3E64, symBinAddr: 0x10001C5B0, symSize: 0x30 }
  - { offset: 0xCA630, size: 0x8, addend: 0x0, symName: __ZNSt3__16vectorIN8MapSetup8TileDataENS_9allocatorIS2_EEE21_ConstructTransactionD2B8ue170006Ev, symObjAddr: 0x3E94, symBinAddr: 0x10001C5E0, symSize: 0x20 }
  - { offset: 0xCA65A, size: 0x8, addend: 0x0, symName: __ZNKSt3__16vectorIN8MapSetup8TileDataENS_9allocatorIS2_EEE11__recommendB8ue170006Em, symObjAddr: 0x3EB4, symBinAddr: 0x10001C600, symSize: 0xB4 }
  - { offset: 0xCA6AF, size: 0x8, addend: 0x0, symName: __ZNSt3__114__split_bufferIN8MapSetup8TileDataERNS_9allocatorIS2_EEEC1EmmS5_, symObjAddr: 0x3F68, symBinAddr: 0x10001C6B4, symSize: 0x44 }
  - { offset: 0xCA705, size: 0x8, addend: 0x0, symName: __ZNSt3__114__split_bufferIN8MapSetup8TileDataERNS_9allocatorIS2_EEED1Ev, symObjAddr: 0x40BC, symBinAddr: 0x10001C808, symSize: 0x2C }
  - { offset: 0xCA731, size: 0x8, addend: 0x0, symName: __ZNKSt3__16vectorIN8MapSetup8TileDataENS_9allocatorIS2_EEE8max_sizeEv, symObjAddr: 0x40E8, symBinAddr: 0x10001C834, symSize: 0x60 }
  - { offset: 0xCA759, size: 0x8, addend: 0x0, symName: __ZNKSt3__16vectorIN8MapSetup8TileDataENS_9allocatorIS2_EEE20__throw_length_errorB8ue170006Ev, symObjAddr: 0x4148, symBinAddr: 0x10001C894, symSize: 0x1C }
  - { offset: 0xCA78A, size: 0x8, addend: 0x0, symName: __ZNSt3__116allocator_traitsINS_9allocatorIN8MapSetup8TileDataEEEE8max_sizeB8ue170006IS4_vEEmRKS4_, symObjAddr: 0x41BC, symBinAddr: 0x10001C8B0, symSize: 0x24 }
  - { offset: 0xCA7B8, size: 0x8, addend: 0x0, symName: __ZNKSt3__16vectorIN8MapSetup8TileDataENS_9allocatorIS2_EEE7__allocB8ue170006Ev, symObjAddr: 0x41E0, symBinAddr: 0x10001C8D4, symSize: 0x28 }
  - { offset: 0xCA7DE, size: 0x8, addend: 0x0, symName: __ZNKSt3__19allocatorIN8MapSetup8TileDataEE8max_sizeB8ue170006Ev, symObjAddr: 0x42A4, symBinAddr: 0x10001C8FC, symSize: 0x18 }
  - { offset: 0xCA804, size: 0x8, addend: 0x0, symName: __ZNKSt3__117__compressed_pairIPN8MapSetup8TileDataENS_9allocatorIS2_EEE6secondB8ue170006Ev, symObjAddr: 0x42BC, symBinAddr: 0x10001C914, symSize: 0x24 }
  - { offset: 0xCA82A, size: 0x8, addend: 0x0, symName: __ZNKSt3__122__compressed_pair_elemINS_9allocatorIN8MapSetup8TileDataEEELi1ELb1EE5__getB8ue170006Ev, symObjAddr: 0x42E0, symBinAddr: 0x10001C938, symSize: 0x14 }
  - { offset: 0xCA850, size: 0x8, addend: 0x0, symName: __ZNSt3__114__split_bufferIN8MapSetup8TileDataERNS_9allocatorIS2_EEEC2EmmS5_, symObjAddr: 0x442C, symBinAddr: 0x10001C94C, symSize: 0xE0 }
  - { offset: 0xCA8C3, size: 0x8, addend: 0x0, symName: __ZNSt3__117__compressed_pairIPN8MapSetup8TileDataERNS_9allocatorIS2_EEEC1B8ue170006IDnS6_EEOT_OT0_, symObjAddr: 0x450C, symBinAddr: 0x10001CA2C, symSize: 0x3C }
  - { offset: 0xCA91B, size: 0x8, addend: 0x0, symName: __ZNSt3__114__split_bufferIN8MapSetup8TileDataERNS_9allocatorIS2_EEE7__allocB8ue170006Ev, symObjAddr: 0x4588, symBinAddr: 0x10001CAA8, symSize: 0x28 }
  - { offset: 0xCA941, size: 0x8, addend: 0x0, symName: __ZNSt3__114__split_bufferIN8MapSetup8TileDataERNS_9allocatorIS2_EEE9__end_capB8ue170006Ev, symObjAddr: 0x45B0, symBinAddr: 0x10001CAD0, symSize: 0x28 }
  - { offset: 0xCA967, size: 0x8, addend: 0x0, symName: __ZNSt3__117__compressed_pairIPN8MapSetup8TileDataERNS_9allocatorIS2_EEEC2B8ue170006IDnS6_EEOT_OT0_, symObjAddr: 0x45D8, symBinAddr: 0x10001CAF8, symSize: 0x48 }
  - { offset: 0xCA9BF, size: 0x8, addend: 0x0, symName: __ZNSt3__122__compressed_pair_elemIRNS_9allocatorIN8MapSetup8TileDataEEELi1ELb0EEC2B8ue170006IS5_vEEOT_, symObjAddr: 0x4620, symBinAddr: 0x10001CB40, symSize: 0x20 }
  - { offset: 0xCAA01, size: 0x8, addend: 0x0, symName: __ZNSt3__19allocatorIN8MapSetup8TileDataEE8allocateB8ue170006Em, symObjAddr: 0x4640, symBinAddr: 0x10001CB60, symSize: 0x5C }
  - { offset: 0xCAA35, size: 0x8, addend: 0x0, symName: __ZNSt3__117__compressed_pairIPN8MapSetup8TileDataERNS_9allocatorIS2_EEE6secondB8ue170006Ev, symObjAddr: 0x4780, symBinAddr: 0x10001CBBC, symSize: 0x28 }
  - { offset: 0xCAA5B, size: 0x8, addend: 0x0, symName: __ZNSt3__122__compressed_pair_elemIRNS_9allocatorIN8MapSetup8TileDataEEELi1ELb0EE5__getB8ue170006Ev, symObjAddr: 0x47A8, symBinAddr: 0x10001CBE4, symSize: 0x18 }
  - { offset: 0xCAA81, size: 0x8, addend: 0x0, symName: __ZNSt3__117__compressed_pairIPN8MapSetup8TileDataERNS_9allocatorIS2_EEE5firstB8ue170006Ev, symObjAddr: 0x47C0, symBinAddr: 0x10001CBFC, symSize: 0x24 }
  - { offset: 0xCAAA7, size: 0x8, addend: 0x0, symName: __ZNSt3__116reverse_iteratorIPN8MapSetup8TileDataEEC1B8ue170006ES3_, symObjAddr: 0x485C, symBinAddr: 0x10001CC98, symSize: 0x34 }
  - { offset: 0xCAADF, size: 0x8, addend: 0x0, symName: __ZNKSt3__116reverse_iteratorIPN8MapSetup8TileDataEE4baseB8ue170006Ev, symObjAddr: 0x4890, symBinAddr: 0x10001CCCC, symSize: 0x18 }
  - { offset: 0xCAB05, size: 0x8, addend: 0x0, symName: __ZNKSt3__16vectorIN8MapSetup8TileDataENS_9allocatorIS2_EEE14__annotate_newB8ue170006Em, symObjAddr: 0x48E4, symBinAddr: 0x10001CD20, symSize: 0xC8 }
  - { offset: 0xCAB60, size: 0x8, addend: 0x0, symName: __ZNKSt3__111__move_loopINS_17_ClassicAlgPolicyEEclB8ue170006INS_16reverse_iteratorIPN8MapSetup8TileDataEEES8_S8_EENS_4pairIT_T1_EESA_T0_SB_, symObjAddr: 0x4C9C, symBinAddr: 0x10001D0D8, symSize: 0xA8 }
  - { offset: 0xCABD1, size: 0x8, addend: 0x0, symName: __ZNSt3__18_IterOpsINS_17_ClassicAlgPolicyEE11__iter_moveB8ue170006IRNS_16reverse_iteratorIPN8MapSetup8TileDataEEEEENS_9enable_ifIXsr12is_referenceIDTdeclsr3stdE7declvalIRT_EEEEE5valueEDTclsr3stdE4movedeclsr3stdE7declvalISC_EEEEE4typeEOSB_, symObjAddr: 0x4ED8, symBinAddr: 0x10001D314, symSize: 0x28 }
  - { offset: 0xCABFD, size: 0x8, addend: 0x0, symName: __ZNKSt3__116reverse_iteratorIPN8MapSetup8TileDataEEdeB8ue170006Ev, symObjAddr: 0x4F00, symBinAddr: 0x10001D33C, symSize: 0x28 }
  - { offset: 0xCAC31, size: 0x8, addend: 0x0, symName: __ZNSt3__116reverse_iteratorIPN8MapSetup8TileDataEEppB8ue170006Ev, symObjAddr: 0x4F28, symBinAddr: 0x10001D364, symSize: 0x20 }
  - { offset: 0xCAC57, size: 0x8, addend: 0x0, symName: __ZNSt3__18_IterOpsINS_17_ClassicAlgPolicyEE25__validate_iter_referenceB8ue170006IRNS_16reverse_iteratorIPN8MapSetup8TileDataEEEEEvv, symObjAddr: 0x4F48, symBinAddr: 0x10001D384, symSize: 0x4 }
  - { offset: 0xCAC75, size: 0x8, addend: 0x0, symName: __ZNSt3__118__unwrap_iter_implINS_16reverse_iteratorIPN8MapSetup8TileDataEEELb0EE8__unwrapB8ue170006ES5_, symObjAddr: 0x4F4C, symBinAddr: 0x10001D388, symSize: 0x24 }
  - { offset: 0xCAC9E, size: 0x8, addend: 0x0, symName: __ZNSt3__14pairINS_16reverse_iteratorIPN8MapSetup8TileDataEEES5_EC1B8ue170006IS5_S5_LPv0EEEOT_OT0_, symObjAddr: 0x4F70, symBinAddr: 0x10001D3AC, symSize: 0x3C }
  - { offset: 0xCACFC, size: 0x8, addend: 0x0, symName: __ZNSt3__14pairINS_16reverse_iteratorIPN8MapSetup8TileDataEEES5_EC2B8ue170006IS5_S5_LPv0EEEOT_OT0_, symObjAddr: 0x4FAC, symBinAddr: 0x10001D3E8, symSize: 0x34 }
  - { offset: 0xCAD5A, size: 0x8, addend: 0x0, symName: __ZNSt3__118__unwrap_iter_implINS_16reverse_iteratorIPN8MapSetup8TileDataEEELb0EE8__rewrapB8ue170006ES5_S5_, symObjAddr: 0x4FE0, symBinAddr: 0x10001D41C, symSize: 0x2C }
  - { offset: 0xCAD87, size: 0x8, addend: 0x0, symName: __ZNSt3__116reverse_iteratorIPN8MapSetup8TileDataEEC2B8ue170006ES3_, symObjAddr: 0x500C, symBinAddr: 0x10001D448, symSize: 0x28 }
  - { offset: 0xCADBF, size: 0x8, addend: 0x0, symName: __ZNSt3__114__split_bufferIN8MapSetup8TileDataERNS_9allocatorIS2_EEED2Ev, symObjAddr: 0x5034, symBinAddr: 0x10001D470, symSize: 0x8C }
  - { offset: 0xCADEB, size: 0x8, addend: 0x0, symName: __ZNSt3__114__split_bufferIN8MapSetup8TileDataERNS_9allocatorIS2_EEE5clearB8ue170006Ev, symObjAddr: 0x50C0, symBinAddr: 0x10001D4FC, symSize: 0x28 }
  - { offset: 0xCAE11, size: 0x8, addend: 0x0, symName: __ZNKSt3__114__split_bufferIN8MapSetup8TileDataERNS_9allocatorIS2_EEE8capacityB8ue170006Ev, symObjAddr: 0x50E8, symBinAddr: 0x10001D524, symSize: 0x40 }
  - { offset: 0xCAE37, size: 0x8, addend: 0x0, symName: __ZNSt3__114__split_bufferIN8MapSetup8TileDataERNS_9allocatorIS2_EEE17__destruct_at_endB8ue170006EPS2_, symObjAddr: 0x5128, symBinAddr: 0x10001D564, symSize: 0x2C }
  - { offset: 0xCAE6B, size: 0x8, addend: 0x0, symName: __ZNSt3__114__split_bufferIN8MapSetup8TileDataERNS_9allocatorIS2_EEE17__destruct_at_endB8ue170006EPS2_NS_17integral_constantIbLb0EEE, symObjAddr: 0x5154, symBinAddr: 0x10001D590, symSize: 0x80 }
  - { offset: 0xCAEAB, size: 0x8, addend: 0x0, symName: __ZNKSt3__114__split_bufferIN8MapSetup8TileDataERNS_9allocatorIS2_EEE9__end_capB8ue170006Ev, symObjAddr: 0x51D4, symBinAddr: 0x10001D610, symSize: 0x28 }
  - { offset: 0xCAED1, size: 0x8, addend: 0x0, symName: __ZNKSt3__117__compressed_pairIPN8MapSetup8TileDataERNS_9allocatorIS2_EEE5firstB8ue170006Ev, symObjAddr: 0x51FC, symBinAddr: 0x10001D638, symSize: 0x24 }
  - { offset: 0xCAEF7, size: 0x8, addend: 0x0, symName: __ZNSt3__16vectorINS0_IN8MapSetup8TileDataENS_9allocatorIS2_EEEENS3_IS5_EEE9__end_capB8ue170006Ev, symObjAddr: 0x5220, symBinAddr: 0x10001D65C, symSize: 0x28 }
  - { offset: 0xCAF1D, size: 0x8, addend: 0x0, symName: __ZNSt3__16vectorINS0_IN8MapSetup8TileDataENS_9allocatorIS2_EEEENS3_IS5_EEE22__construct_one_at_endB8ue170006IJRS5_EEEvDpOT_, symObjAddr: 0x5248, symBinAddr: 0x10001D684, symSize: 0x90 }
  - { offset: 0xCAF6C, size: 0x8, addend: 0x0, symName: __ZNSt3__16vectorINS0_IN8MapSetup8TileDataENS_9allocatorIS2_EEEENS3_IS5_EEE24__emplace_back_slow_pathIJRS5_EEEvDpOT_, symObjAddr: 0x52D8, symBinAddr: 0x10001D714, symSize: 0xD8 }
  - { offset: 0xCAFCC, size: 0x8, addend: 0x0, symName: __ZNSt3__16vectorINS0_IN8MapSetup8TileDataENS_9allocatorIS2_EEEENS3_IS5_EEE4backB8ue170006Ev, symObjAddr: 0x53B0, symBinAddr: 0x10001D7EC, symSize: 0x1C }
  - { offset: 0xCAFF2, size: 0x8, addend: 0x0, symName: __ZNSt3__117__compressed_pairIPNS_6vectorIN8MapSetup8TileDataENS_9allocatorIS3_EEEENS4_IS6_EEE5firstB8ue170006Ev, symObjAddr: 0x53CC, symBinAddr: 0x10001D808, symSize: 0x24 }
  - { offset: 0xCB018, size: 0x8, addend: 0x0, symName: __ZNSt3__122__compressed_pair_elemIPNS_6vectorIN8MapSetup8TileDataENS_9allocatorIS3_EEEELi0ELb0EE5__getB8ue170006Ev, symObjAddr: 0x53F0, symBinAddr: 0x10001D82C, symSize: 0x14 }
  - { offset: 0xCB059, size: 0x8, addend: 0x0, symName: __ZNSt3__16vectorINS0_IN8MapSetup8TileDataENS_9allocatorIS2_EEEENS3_IS5_EEE21_ConstructTransactionC1B8ue170006ERS7_m, symObjAddr: 0x5404, symBinAddr: 0x10001D840, symSize: 0x3C }
  - { offset: 0xCB0A1, size: 0x8, addend: 0x0, symName: __ZNSt3__116allocator_traitsINS_9allocatorINS_6vectorIN8MapSetup8TileDataENS1_IS4_EEEEEEE9constructB8ue170006IS6_JRS6_EvEEvRS7_PT_DpOT0_, symObjAddr: 0x5440, symBinAddr: 0x10001D87C, symSize: 0x34 }
  - { offset: 0xCB0F8, size: 0x8, addend: 0x0, symName: __ZNSt3__16vectorINS0_IN8MapSetup8TileDataENS_9allocatorIS2_EEEENS3_IS5_EEE21_ConstructTransactionD1B8ue170006Ev, symObjAddr: 0x5474, symBinAddr: 0x10001D8B0, symSize: 0x2C }
  - { offset: 0xCB122, size: 0x8, addend: 0x0, symName: __ZNSt3__16vectorINS0_IN8MapSetup8TileDataENS_9allocatorIS2_EEEENS3_IS5_EEE21_ConstructTransactionC2B8ue170006ERS7_m, symObjAddr: 0x54A0, symBinAddr: 0x10001D8DC, symSize: 0x4C }
  - { offset: 0xCB16A, size: 0x8, addend: 0x0, symName: __ZNSt3__19allocatorINS_6vectorIN8MapSetup8TileDataENS0_IS3_EEEEE9constructB8ue170006IS5_JRS5_EEEvPT_DpOT0_, symObjAddr: 0x54EC, symBinAddr: 0x10001D928, symSize: 0x30 }
  - { offset: 0xCB1C0, size: 0x8, addend: 0x0, symName: __ZNSt3__16vectorIN8MapSetup8TileDataENS_9allocatorIS2_EEEC1ERKS5_, symObjAddr: 0x551C, symBinAddr: 0x10001D958, symSize: 0x34 }
  - { offset: 0xCB1FB, size: 0x8, addend: 0x0, symName: __ZNSt3__16vectorIN8MapSetup8TileDataENS_9allocatorIS2_EEEC2ERKS5_, symObjAddr: 0x5550, symBinAddr: 0x10001D98C, symSize: 0x94 }
  - { offset: 0xCB236, size: 0x8, addend: 0x0, symName: __ZNSt3__116allocator_traitsINS_9allocatorIN8MapSetup8TileDataEEEE37select_on_container_copy_constructionB8ue170006IS4_vvEES4_RKS4_, symObjAddr: 0x55E4, symBinAddr: 0x10001DA20, symSize: 0x10 }
  - { offset: 0xCB26B, size: 0x8, addend: 0x0, symName: __ZNSt3__117__compressed_pairIPN8MapSetup8TileDataENS_9allocatorIS2_EEEC1B8ue170006IDnS5_EEOT_OT0_, symObjAddr: 0x55F4, symBinAddr: 0x10001DA30, symSize: 0x3C }
  - { offset: 0xCB2C3, size: 0x8, addend: 0x0, symName: __ZNSt3__16vectorIN8MapSetup8TileDataENS_9allocatorIS2_EEE16__init_with_sizeB8ue170006IPS2_S7_EEvT_T0_m, symObjAddr: 0x5630, symBinAddr: 0x10001DA6C, symSize: 0xB8 }
  - { offset: 0xCB337, size: 0x8, addend: 0x0, symName: __ZNSt3__117__compressed_pairIPN8MapSetup8TileDataENS_9allocatorIS2_EEEC2B8ue170006IDnS5_EEOT_OT0_, symObjAddr: 0x56E8, symBinAddr: 0x10001DB24, symSize: 0x44 }
  - { offset: 0xCB38F, size: 0x8, addend: 0x0, symName: __ZNSt3__122__compressed_pair_elemINS_9allocatorIN8MapSetup8TileDataEEELi1ELb1EEC2B8ue170006IS4_vEEOT_, symObjAddr: 0x572C, symBinAddr: 0x10001DB68, symSize: 0x18 }
  - { offset: 0xCB3D1, size: 0x8, addend: 0x0, symName: __ZNSt3__16vectorIN8MapSetup8TileDataENS_9allocatorIS2_EEE11__vallocateB8ue170006Em, symObjAddr: 0x5784, symBinAddr: 0x10001DBC0, symSize: 0xB4 }
  - { offset: 0xCB415, size: 0x8, addend: 0x0, symName: __ZNSt3__16vectorIN8MapSetup8TileDataENS_9allocatorIS2_EEE18__construct_at_endIPS2_S7_EEvT_T0_m, symObjAddr: 0x5838, symBinAddr: 0x10001DC74, symSize: 0x8C }
  - { offset: 0xCB48B, size: 0x8, addend: 0x0, symName: __ZNSt3__128__exception_guard_exceptionsINS_6vectorIN8MapSetup8TileDataENS_9allocatorIS3_EEE16__destroy_vectorEE10__completeB8ue170006Ev, symObjAddr: 0x58C4, symBinAddr: 0x10001DD00, symSize: 0x1C }
  - { offset: 0xCB4B1, size: 0x8, addend: 0x0, symName: __ZNSt3__128__exception_guard_exceptionsINS_6vectorIN8MapSetup8TileDataENS_9allocatorIS3_EEE16__destroy_vectorEED1B8ue170006Ev, symObjAddr: 0x58E0, symBinAddr: 0x10001DD1C, symSize: 0x2C }
  - { offset: 0xCB4DB, size: 0x8, addend: 0x0, symName: __ZNSt3__128__exception_guard_exceptionsINS_6vectorIN8MapSetup8TileDataENS_9allocatorIS3_EEE16__destroy_vectorEEC1B8ue170006ES7_, symObjAddr: 0x590C, symBinAddr: 0x10001DD48, symSize: 0x34 }
  - { offset: 0xCB513, size: 0x8, addend: 0x0, symName: __ZNSt3__128__exception_guard_exceptionsINS_6vectorIN8MapSetup8TileDataENS_9allocatorIS3_EEE16__destroy_vectorEEC2B8ue170006ES7_, symObjAddr: 0x5940, symBinAddr: 0x10001DD7C, symSize: 0x24 }
  - { offset: 0xCB56D, size: 0x8, addend: 0x0, symName: __ZNSt3__14pairIPN8MapSetup8TileDataES3_EC1B8ue170006IS3_S3_LPv0EEEOT_OT0_, symObjAddr: 0x5B14, symBinAddr: 0x10001DF50, symSize: 0x3C }
  - { offset: 0xCB5CB, size: 0x8, addend: 0x0, symName: __ZNSt3__14pairIPN8MapSetup8TileDataES3_EC2B8ue170006IS3_S3_LPv0EEEOT_OT0_, symObjAddr: 0x5B50, symBinAddr: 0x10001DF8C, symSize: 0x34 }
  - { offset: 0xCB633, size: 0x8, addend: 0x0, symName: __ZNKSt3__114__copy_trivialclB8ue170006IN8MapSetup8TileDataES3_Li0EEENS_4pairIPT_PT0_EES6_S6_S8_, symObjAddr: 0x5D00, symBinAddr: 0x10001E13C, symSize: 0x48 }
  - { offset: 0xCB69B, size: 0x8, addend: 0x0, symName: __ZNSt3__14pairIPN8MapSetup8TileDataES3_EC1B8ue170006IRS3_S3_LPv0EEEOT_OT0_, symObjAddr: 0x5E9C, symBinAddr: 0x10001E2D8, symSize: 0x3C }
  - { offset: 0xCB6F9, size: 0x8, addend: 0x0, symName: __ZNSt3__14pairIPN8MapSetup8TileDataES3_EC2B8ue170006IRS3_S3_LPv0EEEOT_OT0_, symObjAddr: 0x5ED8, symBinAddr: 0x10001E314, symSize: 0x34 }
  - { offset: 0xCB757, size: 0x8, addend: 0x0, symName: __ZNSt3__118__unwrap_iter_implIPN8MapSetup8TileDataELb1EE8__unwrapB8ue170006ES3_, symObjAddr: 0x5F0C, symBinAddr: 0x10001E348, symSize: 0x24 }
  - { offset: 0xCB77A, size: 0x8, addend: 0x0, symName: __ZNSt3__118__unwrap_iter_implIPN8MapSetup8TileDataELb1EE8__rewrapB8ue170006ES3_S3_, symObjAddr: 0x5F30, symBinAddr: 0x10001E36C, symSize: 0x58 }
  - { offset: 0xCB7AB, size: 0x8, addend: 0x0, symName: __ZNSt3__128__exception_guard_exceptionsINS_6vectorIN8MapSetup8TileDataENS_9allocatorIS3_EEE16__destroy_vectorEED2B8ue170006Ev, symObjAddr: 0x5F88, symBinAddr: 0x10001E3C4, symSize: 0x48 }
  - { offset: 0xCB7D5, size: 0x8, addend: 0x0, symName: __ZNSt3__16vectorINS0_IN8MapSetup8TileDataENS_9allocatorIS2_EEEENS3_IS5_EEE21_ConstructTransactionD2B8ue170006Ev, symObjAddr: 0x5FD0, symBinAddr: 0x10001E40C, symSize: 0x20 }
  - { offset: 0xCB7FF, size: 0x8, addend: 0x0, symName: __ZNKSt3__16vectorINS0_IN8MapSetup8TileDataENS_9allocatorIS2_EEEENS3_IS5_EEE11__recommendB8ue170006Em, symObjAddr: 0x5FF0, symBinAddr: 0x10001E42C, symSize: 0xB4 }
  - { offset: 0xCB854, size: 0x8, addend: 0x0, symName: __ZNSt3__114__split_bufferINS_6vectorIN8MapSetup8TileDataENS_9allocatorIS3_EEEERNS4_IS6_EEEC1EmmS8_, symObjAddr: 0x60A4, symBinAddr: 0x10001E4E0, symSize: 0x44 }
  - { offset: 0xCB8AA, size: 0x8, addend: 0x0, symName: __ZNSt3__114__split_bufferINS_6vectorIN8MapSetup8TileDataENS_9allocatorIS3_EEEERNS4_IS6_EEED1Ev, symObjAddr: 0x61F8, symBinAddr: 0x10001E634, symSize: 0x2C }
  - { offset: 0xCB8D6, size: 0x8, addend: 0x0, symName: __ZNKSt3__16vectorINS0_IN8MapSetup8TileDataENS_9allocatorIS2_EEEENS3_IS5_EEE8max_sizeEv, symObjAddr: 0x6224, symBinAddr: 0x10001E660, symSize: 0x60 }
  - { offset: 0xCB8FE, size: 0x8, addend: 0x0, symName: __ZNKSt3__16vectorINS0_IN8MapSetup8TileDataENS_9allocatorIS2_EEEENS3_IS5_EEE20__throw_length_errorB8ue170006Ev, symObjAddr: 0x6284, symBinAddr: 0x10001E6C0, symSize: 0x1C }
  - { offset: 0xCB92F, size: 0x8, addend: 0x0, symName: __ZNSt3__116allocator_traitsINS_9allocatorINS_6vectorIN8MapSetup8TileDataENS1_IS4_EEEEEEE8max_sizeB8ue170006IS7_vEEmRKS7_, symObjAddr: 0x62A0, symBinAddr: 0x10001E6DC, symSize: 0x24 }
  - { offset: 0xCB95D, size: 0x8, addend: 0x0, symName: __ZNKSt3__16vectorINS0_IN8MapSetup8TileDataENS_9allocatorIS2_EEEENS3_IS5_EEE7__allocB8ue170006Ev, symObjAddr: 0x62C4, symBinAddr: 0x10001E700, symSize: 0x28 }
  - { offset: 0xCB983, size: 0x8, addend: 0x0, symName: __ZNKSt3__19allocatorINS_6vectorIN8MapSetup8TileDataENS0_IS3_EEEEE8max_sizeB8ue170006Ev, symObjAddr: 0x62EC, symBinAddr: 0x10001E728, symSize: 0x18 }
  - { offset: 0xCB9A9, size: 0x8, addend: 0x0, symName: __ZNKSt3__117__compressed_pairIPNS_6vectorIN8MapSetup8TileDataENS_9allocatorIS3_EEEENS4_IS6_EEE6secondB8ue170006Ev, symObjAddr: 0x6304, symBinAddr: 0x10001E740, symSize: 0x24 }
  - { offset: 0xCB9CF, size: 0x8, addend: 0x0, symName: __ZNKSt3__122__compressed_pair_elemINS_9allocatorINS_6vectorIN8MapSetup8TileDataENS1_IS4_EEEEEELi1ELb1EE5__getB8ue170006Ev, symObjAddr: 0x6328, symBinAddr: 0x10001E764, symSize: 0x14 }
  - { offset: 0xCB9F5, size: 0x8, addend: 0x0, symName: __ZNSt3__114__split_bufferINS_6vectorIN8MapSetup8TileDataENS_9allocatorIS3_EEEERNS4_IS6_EEEC2EmmS8_, symObjAddr: 0x633C, symBinAddr: 0x10001E778, symSize: 0xE0 }
  - { offset: 0xCBA68, size: 0x8, addend: 0x0, symName: __ZNSt3__117__compressed_pairIPNS_6vectorIN8MapSetup8TileDataENS_9allocatorIS3_EEEERNS4_IS6_EEEC1B8ue170006IDnS9_EEOT_OT0_, symObjAddr: 0x641C, symBinAddr: 0x10001E858, symSize: 0x3C }
  - { offset: 0xCBAC0, size: 0x8, addend: 0x0, symName: __ZNSt3__114__split_bufferINS_6vectorIN8MapSetup8TileDataENS_9allocatorIS3_EEEERNS4_IS6_EEE7__allocB8ue170006Ev, symObjAddr: 0x6498, symBinAddr: 0x10001E8D4, symSize: 0x28 }
  - { offset: 0xCBAE6, size: 0x8, addend: 0x0, symName: __ZNSt3__114__split_bufferINS_6vectorIN8MapSetup8TileDataENS_9allocatorIS3_EEEERNS4_IS6_EEE9__end_capB8ue170006Ev, symObjAddr: 0x64C0, symBinAddr: 0x10001E8FC, symSize: 0x28 }
  - { offset: 0xCBB0C, size: 0x8, addend: 0x0, symName: __ZNSt3__117__compressed_pairIPNS_6vectorIN8MapSetup8TileDataENS_9allocatorIS3_EEEERNS4_IS6_EEEC2B8ue170006IDnS9_EEOT_OT0_, symObjAddr: 0x64E8, symBinAddr: 0x10001E924, symSize: 0x48 }
  - { offset: 0xCBB64, size: 0x8, addend: 0x0, symName: __ZNSt3__122__compressed_pair_elemIRNS_9allocatorINS_6vectorIN8MapSetup8TileDataENS1_IS4_EEEEEELi1ELb0EEC2B8ue170006IS8_vEEOT_, symObjAddr: 0x6530, symBinAddr: 0x10001E96C, symSize: 0x20 }
  - { offset: 0xCBBA6, size: 0x8, addend: 0x0, symName: __ZNSt3__19allocatorINS_6vectorIN8MapSetup8TileDataENS0_IS3_EEEEE8allocateB8ue170006Em, symObjAddr: 0x6550, symBinAddr: 0x10001E98C, symSize: 0x5C }
  - { offset: 0xCBBDA, size: 0x8, addend: 0x0, symName: __ZNSt3__117__compressed_pairIPNS_6vectorIN8MapSetup8TileDataENS_9allocatorIS3_EEEERNS4_IS6_EEE6secondB8ue170006Ev, symObjAddr: 0x65AC, symBinAddr: 0x10001E9E8, symSize: 0x28 }
  - { offset: 0xCBC00, size: 0x8, addend: 0x0, symName: __ZNSt3__122__compressed_pair_elemIRNS_9allocatorINS_6vectorIN8MapSetup8TileDataENS1_IS4_EEEEEELi1ELb0EE5__getB8ue170006Ev, symObjAddr: 0x65D4, symBinAddr: 0x10001EA10, symSize: 0x18 }
  - { offset: 0xCBC26, size: 0x8, addend: 0x0, symName: __ZNSt3__117__compressed_pairIPNS_6vectorIN8MapSetup8TileDataENS_9allocatorIS3_EEEERNS4_IS6_EEE5firstB8ue170006Ev, symObjAddr: 0x65EC, symBinAddr: 0x10001EA28, symSize: 0x24 }
  - { offset: 0xCBC4C, size: 0x8, addend: 0x0, symName: __ZNSt3__116reverse_iteratorIPNS_6vectorIN8MapSetup8TileDataENS_9allocatorIS3_EEEEEC1B8ue170006ES7_, symObjAddr: 0x673C, symBinAddr: 0x10001EB78, symSize: 0x34 }
  - { offset: 0xCBC84, size: 0x8, addend: 0x0, symName: __ZNKSt3__116reverse_iteratorIPNS_6vectorIN8MapSetup8TileDataENS_9allocatorIS3_EEEEE4baseB8ue170006Ev, symObjAddr: 0x6770, symBinAddr: 0x10001EBAC, symSize: 0x18 }
  - { offset: 0xCBCAA, size: 0x8, addend: 0x0, symName: __ZNKSt3__16vectorINS0_IN8MapSetup8TileDataENS_9allocatorIS2_EEEENS3_IS5_EEE14__annotate_newB8ue170006Em, symObjAddr: 0x67C4, symBinAddr: 0x10001EC00, symSize: 0xC8 }
  - { offset: 0xCBCDF, size: 0x8, addend: 0x0, symName: __ZNSt3__129_AllocatorDestroyRangeReverseINS_9allocatorINS_6vectorIN8MapSetup8TileDataENS1_IS4_EEEEEENS_16reverse_iteratorIPS6_EEEC1B8ue170006ERS7_RSA_SD_, symObjAddr: 0x68D8, symBinAddr: 0x10001ED14, symSize: 0x44 }
  - { offset: 0xCBD36, size: 0x8, addend: 0x0, symName: __ZNSt3__116allocator_traitsINS_9allocatorINS_6vectorIN8MapSetup8TileDataENS1_IS4_EEEEEEE9constructB8ue170006IS6_JS6_EvEEvRS7_PT_DpOT0_, symObjAddr: 0x6964, symBinAddr: 0x10001EDA0, symSize: 0x34 }
  - { offset: 0xCBD8D, size: 0x8, addend: 0x0, symName: __ZNKSt3__116reverse_iteratorIPNS_6vectorIN8MapSetup8TileDataENS_9allocatorIS3_EEEEEdeB8ue170006Ev, symObjAddr: 0x69BC, symBinAddr: 0x10001EDF8, symSize: 0x28 }
  - { offset: 0xCBDC1, size: 0x8, addend: 0x0, symName: __ZNSt3__116reverse_iteratorIPNS_6vectorIN8MapSetup8TileDataENS_9allocatorIS3_EEEEEppB8ue170006Ev, symObjAddr: 0x69E4, symBinAddr: 0x10001EE20, symSize: 0x20 }
  - { offset: 0xCBDE7, size: 0x8, addend: 0x0, symName: __ZNSt3__128__exception_guard_exceptionsINS_29_AllocatorDestroyRangeReverseINS_9allocatorINS_6vectorIN8MapSetup8TileDataENS2_IS5_EEEEEENS_16reverse_iteratorIPS7_EEEEE10__completeB8ue170006Ev, symObjAddr: 0x6A04, symBinAddr: 0x10001EE40, symSize: 0x1C }
  - { offset: 0xCBE0D, size: 0x8, addend: 0x0, symName: __ZNSt3__128__exception_guard_exceptionsINS_29_AllocatorDestroyRangeReverseINS_9allocatorINS_6vectorIN8MapSetup8TileDataENS2_IS5_EEEEEENS_16reverse_iteratorIPS7_EEEEED1B8ue170006Ev, symObjAddr: 0x6A20, symBinAddr: 0x10001EE5C, symSize: 0x2C }
  - { offset: 0xCBE37, size: 0x8, addend: 0x0, symName: __ZNSt3__128__exception_guard_exceptionsINS_29_AllocatorDestroyRangeReverseINS_9allocatorINS_6vectorIN8MapSetup8TileDataENS2_IS5_EEEEEENS_16reverse_iteratorIPS7_EEEEEC1B8ue170006ESC_, symObjAddr: 0x6A4C, symBinAddr: 0x10001EE88, symSize: 0x34 }
  - { offset: 0xCBE70, size: 0x8, addend: 0x0, symName: __ZNSt3__128__exception_guard_exceptionsINS_29_AllocatorDestroyRangeReverseINS_9allocatorINS_6vectorIN8MapSetup8TileDataENS2_IS5_EEEEEENS_16reverse_iteratorIPS7_EEEEEC2B8ue170006ESC_, symObjAddr: 0x6A80, symBinAddr: 0x10001EEBC, symSize: 0x30 }
  - { offset: 0xCBEA9, size: 0x8, addend: 0x0, symName: __ZNSt3__129_AllocatorDestroyRangeReverseINS_9allocatorINS_6vectorIN8MapSetup8TileDataENS1_IS4_EEEEEENS_16reverse_iteratorIPS6_EEEC2B8ue170006ERS7_RSA_SD_, symObjAddr: 0x6AB0, symBinAddr: 0x10001EEEC, symSize: 0x38 }
  - { offset: 0xCBF00, size: 0x8, addend: 0x0, symName: __ZNSt3__19allocatorINS_6vectorIN8MapSetup8TileDataENS0_IS3_EEEEE9constructB8ue170006IS5_JS5_EEEvPT_DpOT0_, symObjAddr: 0x6AE8, symBinAddr: 0x10001EF24, symSize: 0x30 }
  - { offset: 0xCBF56, size: 0x8, addend: 0x0, symName: __ZNSt3__16vectorIN8MapSetup8TileDataENS_9allocatorIS2_EEEC1B8ue170006EOS5_, symObjAddr: 0x6B18, symBinAddr: 0x10001EF54, symSize: 0x34 }
  - { offset: 0xCBF91, size: 0x8, addend: 0x0, symName: __ZNSt3__16vectorIN8MapSetup8TileDataENS_9allocatorIS2_EEEC2B8ue170006EOS5_, symObjAddr: 0x6B4C, symBinAddr: 0x10001EF88, symSize: 0xC4 }
  - { offset: 0xCBFD2, size: 0x8, addend: 0x0, symName: __ZNSt3__119__to_address_helperINS_16reverse_iteratorIPNS_6vectorIN8MapSetup8TileDataENS_9allocatorIS4_EEEEEEvE6__callB8ue170006ERKS9_, symObjAddr: 0x6C10, symBinAddr: 0x10001F04C, symSize: 0x38 }
  - { offset: 0xCBFF5, size: 0x8, addend: 0x0, symName: __ZNKSt3__116reverse_iteratorIPNS_6vectorIN8MapSetup8TileDataENS_9allocatorIS3_EEEEEptB8ue170006Ev, symObjAddr: 0x6C48, symBinAddr: 0x10001F084, symSize: 0x24 }
  - { offset: 0xCC01B, size: 0x8, addend: 0x0, symName: __ZNSt3__128__exception_guard_exceptionsINS_29_AllocatorDestroyRangeReverseINS_9allocatorINS_6vectorIN8MapSetup8TileDataENS2_IS5_EEEEEENS_16reverse_iteratorIPS7_EEEEED2B8ue170006Ev, symObjAddr: 0x6C6C, symBinAddr: 0x10001F0A8, symSize: 0x50 }
  - { offset: 0xCC045, size: 0x8, addend: 0x0, symName: __ZNKSt3__129_AllocatorDestroyRangeReverseINS_9allocatorINS_6vectorIN8MapSetup8TileDataENS1_IS4_EEEEEENS_16reverse_iteratorIPS6_EEEclB8ue170006Ev, symObjAddr: 0x6CBC, symBinAddr: 0x10001F0F8, symSize: 0xB4 }
  - { offset: 0xCC06C, size: 0x8, addend: 0x0, symName: __ZNSt3__116reverse_iteratorINS0_IPNS_6vectorIN8MapSetup8TileDataENS_9allocatorIS3_EEEEEEEC1B8ue170006ES8_, symObjAddr: 0x6DE0, symBinAddr: 0x10001F21C, symSize: 0x3C }
  - { offset: 0xCC0A4, size: 0x8, addend: 0x0, symName: __ZNSt3__116reverse_iteratorINS0_IPNS_6vectorIN8MapSetup8TileDataENS_9allocatorIS3_EEEEEEEppB8ue170006Ev, symObjAddr: 0x6EA0, symBinAddr: 0x10001F2DC, symSize: 0x30 }
  - { offset: 0xCC0CA, size: 0x8, addend: 0x0, symName: __ZNKSt3__116reverse_iteratorINS0_IPNS_6vectorIN8MapSetup8TileDataENS_9allocatorIS3_EEEEEEE4baseB8ue170006Ev, symObjAddr: 0x6ED0, symBinAddr: 0x10001F30C, symSize: 0x24 }
  - { offset: 0xCC0F6, size: 0x8, addend: 0x0, symName: __ZNSt3__119__to_address_helperINS_16reverse_iteratorINS1_IPNS_6vectorIN8MapSetup8TileDataENS_9allocatorIS4_EEEEEEEEvE6__callB8ue170006ERKSA_, symObjAddr: 0x6EF4, symBinAddr: 0x10001F330, symSize: 0x38 }
  - { offset: 0xCC119, size: 0x8, addend: 0x0, symName: __ZNKSt3__116reverse_iteratorINS0_IPNS_6vectorIN8MapSetup8TileDataENS_9allocatorIS3_EEEEEEEptB8ue170006Ev, symObjAddr: 0x6F2C, symBinAddr: 0x10001F368, symSize: 0x24 }
  - { offset: 0xCC13F, size: 0x8, addend: 0x0, symName: __ZNKSt3__116reverse_iteratorINS0_IPNS_6vectorIN8MapSetup8TileDataENS_9allocatorIS3_EEEEEEEdeB8ue170006Ev, symObjAddr: 0x6F50, symBinAddr: 0x10001F38C, symSize: 0x34 }
  - { offset: 0xCC173, size: 0x8, addend: 0x0, symName: __ZNSt3__116reverse_iteratorIPNS_6vectorIN8MapSetup8TileDataENS_9allocatorIS3_EEEEEmmB8ue170006Ev, symObjAddr: 0x6F84, symBinAddr: 0x10001F3C0, symSize: 0x20 }
  - { offset: 0xCC199, size: 0x8, addend: 0x0, symName: __ZNSt3__116reverse_iteratorINS0_IPNS_6vectorIN8MapSetup8TileDataENS_9allocatorIS3_EEEEEEEC2B8ue170006ES8_, symObjAddr: 0x6FA4, symBinAddr: 0x10001F3E0, symSize: 0x2C }
  - { offset: 0xCC1D1, size: 0x8, addend: 0x0, symName: __ZNSt3__116reverse_iteratorIPNS_6vectorIN8MapSetup8TileDataENS_9allocatorIS3_EEEEEC2B8ue170006ES7_, symObjAddr: 0x6FD0, symBinAddr: 0x10001F40C, symSize: 0x28 }
  - { offset: 0xCC209, size: 0x8, addend: 0x0, symName: __ZNSt3__114__split_bufferINS_6vectorIN8MapSetup8TileDataENS_9allocatorIS3_EEEERNS4_IS6_EEED2Ev, symObjAddr: 0x6FF8, symBinAddr: 0x10001F434, symSize: 0x8C }
  - { offset: 0xCC235, size: 0x8, addend: 0x0, symName: __ZNSt3__114__split_bufferINS_6vectorIN8MapSetup8TileDataENS_9allocatorIS3_EEEERNS4_IS6_EEE5clearB8ue170006Ev, symObjAddr: 0x7084, symBinAddr: 0x10001F4C0, symSize: 0x28 }
  - { offset: 0xCC25B, size: 0x8, addend: 0x0, symName: __ZNKSt3__114__split_bufferINS_6vectorIN8MapSetup8TileDataENS_9allocatorIS3_EEEERNS4_IS6_EEE8capacityB8ue170006Ev, symObjAddr: 0x70AC, symBinAddr: 0x10001F4E8, symSize: 0x40 }
  - { offset: 0xCC281, size: 0x8, addend: 0x0, symName: __ZNSt3__114__split_bufferINS_6vectorIN8MapSetup8TileDataENS_9allocatorIS3_EEEERNS4_IS6_EEE17__destruct_at_endB8ue170006EPS6_, symObjAddr: 0x70EC, symBinAddr: 0x10001F528, symSize: 0x2C }
  - { offset: 0xCC2B5, size: 0x8, addend: 0x0, symName: __ZNSt3__114__split_bufferINS_6vectorIN8MapSetup8TileDataENS_9allocatorIS3_EEEERNS4_IS6_EEE17__destruct_at_endB8ue170006EPS6_NS_17integral_constantIbLb0EEE, symObjAddr: 0x7118, symBinAddr: 0x10001F554, symSize: 0x80 }
  - { offset: 0xCC2F5, size: 0x8, addend: 0x0, symName: __ZNKSt3__114__split_bufferINS_6vectorIN8MapSetup8TileDataENS_9allocatorIS3_EEEERNS4_IS6_EEE9__end_capB8ue170006Ev, symObjAddr: 0x7198, symBinAddr: 0x10001F5D4, symSize: 0x28 }
  - { offset: 0xCC31B, size: 0x8, addend: 0x0, symName: __ZNKSt3__117__compressed_pairIPNS_6vectorIN8MapSetup8TileDataENS_9allocatorIS3_EEEERNS4_IS6_EEE5firstB8ue170006Ev, symObjAddr: 0x71C0, symBinAddr: 0x10001F5FC, symSize: 0x24 }
  - { offset: 0xCC341, size: 0x8, addend: 0x0, symName: __ZN8MapSetupD2Ev, symObjAddr: 0x71E4, symBinAddr: 0x10001F620, symSize: 0x6C }
  - { offset: 0xDC1E3, size: 0x8, addend: 0x0, symName: __ZNSt3__14__fs10filesystemlsB8ue170006IcNS_11char_traitsIcEEEENS_9enable_ifIXaasr7is_sameIT_cEE5valuesr7is_sameIT0_S4_EE5valueERNS_13basic_ostreamIS6_S7_EEE4typeESA_RKNS1_4pathE, symObjAddr: 0x6C0, symBinAddr: 0x10001FD4C, symSize: 0x54 }
  - { offset: 0xDC233, size: 0x8, addend: 0x0, symName: __ZNSt3__14__fs10filesystem12current_pathB8ue170006Ev, symObjAddr: 0x75C, symBinAddr: 0x10001FDA0, symSize: 0x28 }
  - { offset: 0xDC250, size: 0x8, addend: 0x0, symName: __ZNSt3__14__fs10filesystem6existsB8ue170006ERKNS1_4pathE, symObjAddr: 0x99C, symBinAddr: 0x10001FF28, symSize: 0x50 }
  - { offset: 0xDC27C, size: 0x8, addend: 0x0, symName: __ZNSt3__14__fs10filesystem6existsB8ue170006ENS1_11file_statusE, symObjAddr: 0x3068, symBinAddr: 0x100021124, symSize: 0x78 }
  - { offset: 0xDC3B5, size: 0x8, addend: 0x0, symName: __ZNSt3__14__fs10filesystem12status_knownB8ue170006ENS1_11file_statusE, symObjAddr: 0x310C, symBinAddr: 0x1000211C8, symSize: 0x30 }
  - { offset: 0xEAE84, size: 0x8, addend: 0x0, symName: __ZNSt3__1neB8ue170006IPKNS_12basic_stringIcNS_11char_traitsIcEENS_9allocatorIcEEEEEEbRKNS_11__wrap_iterIT_EESD_, symObjAddr: 0x904, symBinAddr: 0x10001FE90, symSize: 0x34 }
  - { offset: 0xEAEC7, size: 0x8, addend: 0x0, symName: __ZNSt3__1lsB8ue170006IcNS_11char_traitsIcEENS_9allocatorIcEEEERNS_13basic_ostreamIT_T0_EES9_RKNS_12basic_stringIS6_S7_T1_EE, symObjAddr: 0x950, symBinAddr: 0x10001FEDC, symSize: 0x4C }
  - { offset: 0xEAF1F, size: 0x8, addend: 0x0, symName: __ZNSt3__111make_uniqueB8ue170006I13GameSetupViewJRN2sf12RenderWindowERNS2_4FontEEEENS_11__unique_ifIT_E15__unique_singleEDpOT0_, symObjAddr: 0xA48, symBinAddr: 0x10001FFD4, symSize: 0x74 }
  - { offset: 0xEAF75, size: 0x8, addend: 0x0, symName: __ZNSt3__111make_uniqueB8ue170006I8MapSetupJRN2sf7Vector2IiEEEEENS_11__unique_ifIT_E15__unique_singleEDpOT0_, symObjAddr: 0x1088, symBinAddr: 0x100020614, symSize: 0x78 }
  - { offset: 0xEAFB7, size: 0x8, addend: 0x0, symName: __ZNSt3__111make_uniqueB8ue170006I12MapSetupViewJRN2sf12RenderWindowEEEENS_11__unique_ifIT_E15__unique_singleEDpOT0_, symObjAddr: 0x1150, symBinAddr: 0x1000206DC, symSize: 0x6C }
  - { offset: 0xEAFF9, size: 0x8, addend: 0x0, symName: __ZNSt3__111make_uniqueB8ue170006I6InfoUIJEEENS_11__unique_ifIT_E15__unique_singleEDpOT0_, symObjAddr: 0x1398, symBinAddr: 0x1000208FC, symSize: 0x64 }
  - { offset: 0xEB026, size: 0x8, addend: 0x0, symName: __ZNSt3__111make_uniqueB8ue170006I10InfoUIViewJRN2sf12RenderWindowERNS2_7Vector2IiEERNS2_4FontEEEENS_11__unique_ifIT_E15__unique_singleEDpOT0_, symObjAddr: 0x144C, symBinAddr: 0x1000209B0, symSize: 0x88 }
  - { offset: 0xEB090, size: 0x8, addend: 0x0, symName: __ZNSt3__1eqB8ue170006IPKNS_12basic_stringIcNS_11char_traitsIcEENS_9allocatorIcEEEEEEbRKNS_11__wrap_iterIT_EESD_, symObjAddr: 0x3008, symBinAddr: 0x1000210C4, symSize: 0x48 }
  - { offset: 0xEB149, size: 0x8, addend: 0x0, symName: __ZNSt3__1lsB8ue170006INS_11char_traitsIcEELPv0EEERNS_13basic_ostreamIcT_EES7_RKNS_21__quoted_output_proxyIcS2_EE, symObjAddr: 0x5F3C, symBinAddr: 0x100021AD4, symSize: 0x48 }
  - { offset: 0xEB195, size: 0x8, addend: 0x0, symName: __ZNSt3__18__quotedB8ue170006IcNS_11char_traitsIcEENS_9allocatorIcEEEENS_21__quoted_output_proxyIT_T0_EERKNS_12basic_stringIS6_S7_T1_EES6_S6_, symObjAddr: 0x5F84, symBinAddr: 0x100021B1C, symSize: 0x68 }
  - { offset: 0xEB1FC, size: 0x8, addend: 0x0, symName: __ZNSt3__115__quoted_outputB8ue170006IcNS_11char_traitsIcEEEERNS_13basic_ostreamIT_T0_EES7_PKS4_S9_S4_S4_, symObjAddr: 0x6000, symBinAddr: 0x100021B98, symSize: 0x148 }
  - { offset: 0xEB2FA, size: 0x8, addend: 0x0, symName: __ZNSt3__112__to_addressB8ue170006IKcEEPT_S3_, symObjAddr: 0x6294, symBinAddr: 0x100021E2C, symSize: 0x14 }
  - { offset: 0xEB362, size: 0x8, addend: 0x0, symName: __ZNSt3__122__make_exception_guardB8ue170006INS_6vectorINS_12basic_stringIcNS_11char_traitsIcEENS_9allocatorIcEEEENS5_IS7_EEE16__destroy_vectorEEENS_28__exception_guard_exceptionsIT_EESC_, symObjAddr: 0x6558, symBinAddr: 0x100022098, symSize: 0x40 }
  - { offset: 0xEB397, size: 0x8, addend: 0x0, symName: __ZNSt3__119__allocate_at_leastB8ue170006INS_9allocatorINS_12basic_stringIcNS_11char_traitsIcEENS1_IcEEEEEEEENS_19__allocation_resultINS_16allocator_traitsIT_E7pointerEEERSA_m, symObjAddr: 0x6968, symBinAddr: 0x1000224A8, symSize: 0x40 }
  - { offset: 0xEB3DA, size: 0x8, addend: 0x0, symName: __ZNSt3__112__to_addressB8ue170006INS_12basic_stringIcNS_11char_traitsIcEENS_9allocatorIcEEEEEEPT_S8_, symObjAddr: 0x6CB0, symBinAddr: 0x1000227F0, symSize: 0x14 }
  - { offset: 0xEB40F, size: 0x8, addend: 0x0, symName: __ZNSt3__130__uninitialized_allocator_copyB8ue170006INS_9allocatorINS_12basic_stringIcNS_11char_traitsIcEENS1_IcEEEEEEPKS6_S9_PS6_EET2_RT_T0_T1_SB_, symObjAddr: 0x6D60, symBinAddr: 0x1000228A0, symSize: 0x80 }
  - { offset: 0xEB4AC, size: 0x8, addend: 0x0, symName: __ZNSt3__114__unwrap_rangeB8ue170006IPKNS_12basic_stringIcNS_11char_traitsIcEENS_9allocatorIcEEEES8_EENS_4pairIT0_SA_EET_SC_, symObjAddr: 0x6E58, symBinAddr: 0x100022998, symSize: 0x60 }
  - { offset: 0xEB4F8, size: 0x8, addend: 0x0, symName: __ZNSt3__135__uninitialized_allocator_copy_implB8ue170006INS_9allocatorINS_12basic_stringIcNS_11char_traitsIcEENS1_IcEEEEEEPKS6_S9_PS6_EET2_RT_T0_T1_SB_, symObjAddr: 0x6EB8, symBinAddr: 0x1000229F8, symSize: 0xF4 }
  - { offset: 0xEB596, size: 0x8, addend: 0x0, symName: __ZNSt3__113__unwrap_iterB8ue170006IPNS_12basic_stringIcNS_11char_traitsIcEENS_9allocatorIcEEEENS_18__unwrap_iter_implIS7_Lb1EEELi0EEEDTclsrT0_8__unwrapclsr3stdE7declvalIT_EEEESB_, symObjAddr: 0x6FAC, symBinAddr: 0x100022AEC, symSize: 0x24 }
  - { offset: 0xEB5DA, size: 0x8, addend: 0x0, symName: __ZNSt3__113__rewrap_iterB8ue170006IPNS_12basic_stringIcNS_11char_traitsIcEENS_9allocatorIcEEEES7_NS_18__unwrap_iter_implIS7_Lb1EEEEET_SA_T0_, symObjAddr: 0x6FD0, symBinAddr: 0x100022B10, symSize: 0x3C }
  - { offset: 0xEB62F, size: 0x8, addend: 0x0, symName: __ZNSt3__19make_pairB8ue170006IPKNS_12basic_stringIcNS_11char_traitsIcEENS_9allocatorIcEEEES8_EENS_4pairINS_18__unwrap_ref_decayIT_E4typeENSA_IT0_E4typeEEEOSB_OSE_, symObjAddr: 0x700C, symBinAddr: 0x100022B4C, symSize: 0x38 }
  - { offset: 0xEB67E, size: 0x8, addend: 0x0, symName: __ZNSt3__113__unwrap_iterB8ue170006IPKNS_12basic_stringIcNS_11char_traitsIcEENS_9allocatorIcEEEENS_18__unwrap_iter_implIS8_Lb1EEELi0EEEDTclsrT0_8__unwrapclsr3stdE7declvalIT_EEEESC_, symObjAddr: 0x7044, symBinAddr: 0x100022B84, symSize: 0x24 }
  - { offset: 0xEB7E9, size: 0x8, addend: 0x0, symName: __ZNSt3__112__to_addressB8ue170006IKNS_12basic_stringIcNS_11char_traitsIcEENS_9allocatorIcEEEEEEPT_S9_, symObjAddr: 0x70FC, symBinAddr: 0x100022C3C, symSize: 0x14 }
  - { offset: 0xEB81E, size: 0x8, addend: 0x0, symName: __ZNSt3__122__make_exception_guardB8ue170006INS_29_AllocatorDestroyRangeReverseINS_9allocatorINS_12basic_stringIcNS_11char_traitsIcEENS2_IcEEEEEEPS7_EEEENS_28__exception_guard_exceptionsIT_EESC_, symObjAddr: 0x7110, symBinAddr: 0x100022C50, symSize: 0x4C }
  - { offset: 0xEB854, size: 0x8, addend: 0x0, symName: __ZNSt3__119__allocator_destroyB8ue170006INS_9allocatorINS_12basic_stringIcNS_11char_traitsIcEENS1_IcEEEEEENS_16reverse_iteratorIPS6_EESA_EEvRT_T0_T1_, symObjAddr: 0x73A0, symBinAddr: 0x100022EE0, symSize: 0x70 }
  - { offset: 0xEB8B7, size: 0x8, addend: 0x0, symName: __ZNSt3__1neB8ue170006IPNS_12basic_stringIcNS_11char_traitsIcEENS_9allocatorIcEEEES7_EEbRKNS_16reverse_iteratorIT_EERKNS8_IT0_EE, symObjAddr: 0x7444, symBinAddr: 0x100022F84, symSize: 0x48 }
  - { offset: 0xEB903, size: 0x8, addend: 0x0, symName: __ZNSt3__112__to_addressB8ue170006INS_16reverse_iteratorIPNS_12basic_stringIcNS_11char_traitsIcEENS_9allocatorIcEEEEEEvEEu7__decayIDTclsr19__to_address_helperIT_EE6__callclsr3stdE7declvalIRKSA_EEEEESC_, symObjAddr: 0x74B8, symBinAddr: 0x100022FF8, symSize: 0x24 }
  - { offset: 0xEB9B5, size: 0x8, addend: 0x0, symName: __ZNSt3__18distanceB8ue170006IPKcEENS_15iterator_traitsIT_E15difference_typeES4_S4_, symObjAddr: 0x7DD0, symBinAddr: 0x100023910, symSize: 0x2C }
  - { offset: 0xEB9F8, size: 0x8, addend: 0x0, symName: __ZNSt3__110__distanceB8ue170006IPKcEENS_15iterator_traitsIT_E15difference_typeES4_S4_NS_26random_access_iterator_tagE, symObjAddr: 0x7FEC, symBinAddr: 0x100023AB4, symSize: 0x20 }
  - { offset: 0xEBA45, size: 0x8, addend: 0x0, symName: __ZNSt3__121__is_pointer_in_rangeB8ue170006IccLi0EEEbPKT_S3_PKT0_, symObjAddr: 0x800C, symBinAddr: 0x100023AD4, symSize: 0x68 }
  - { offset: 0xEBAA5, size: 0x8, addend: 0x0, symName: __ZNSt3__119__allocate_at_leastB8ue170006INS_9allocatorIcEEEENS_19__allocation_resultINS_16allocator_traitsIT_E7pointerEEERS5_m, symObjAddr: 0x84F4, symBinAddr: 0x100023F0C, symSize: 0x40 }
  - { offset: 0xEFBB1, size: 0x8, addend: 0x0, symName: __ZN10GUIManagerC2ERN2sf12RenderWindowE, symObjAddr: 0x0, symBinAddr: 0x10001F68C, symSize: 0x5B8 }
  - { offset: 0xEFC56, size: 0x8, addend: 0x0, symName: __ZN9GameSetupC1Ev, symObjAddr: 0x5B8, symBinAddr: 0x10001FC44, symSize: 0x2C }
  - { offset: 0xEFC80, size: 0x8, addend: 0x0, symName: __ZNSt3__110unique_ptrI13GameSetupViewNS_14default_deleteIS1_EEEC1B8ue170006ILb1EvEEv, symObjAddr: 0x5E4, symBinAddr: 0x10001FC70, symSize: 0x2C }
  - { offset: 0xEFCB5, size: 0x8, addend: 0x0, symName: __ZNSt3__110unique_ptrI8MapSetupNS_14default_deleteIS1_EEEC1B8ue170006ILb1EvEEv, symObjAddr: 0x610, symBinAddr: 0x10001FC9C, symSize: 0x2C }
  - { offset: 0xEFCEA, size: 0x8, addend: 0x0, symName: __ZNSt3__110unique_ptrI12MapSetupViewNS_14default_deleteIS1_EEEC1B8ue170006ILb1EvEEv, symObjAddr: 0x63C, symBinAddr: 0x10001FCC8, symSize: 0x2C }
  - { offset: 0xEFD1F, size: 0x8, addend: 0x0, symName: __ZNSt3__110unique_ptrI6InfoUINS_14default_deleteIS1_EEEC1B8ue170006ILb1EvEEv, symObjAddr: 0x668, symBinAddr: 0x10001FCF4, symSize: 0x2C }
  - { offset: 0xEFD54, size: 0x8, addend: 0x0, symName: __ZNSt3__110unique_ptrI10InfoUIViewNS_14default_deleteIS1_EEEC1B8ue170006ILb1EvEEv, symObjAddr: 0x694, symBinAddr: 0x10001FD20, symSize: 0x2C }
  - { offset: 0xEFD89, size: 0x8, addend: 0x0, symName: __ZNSt3__14__fs10filesystem4pathD1B8ue170006Ev, symObjAddr: 0x808, symBinAddr: 0x10001FDC8, symSize: 0x2C }
  - { offset: 0xEFDB8, size: 0x8, addend: 0x0, symName: __ZNSt3__16vectorINS_12basic_stringIcNS_11char_traitsIcEENS_9allocatorIcEEEENS4_IS6_EEEC1B8ue170006ESt16initializer_listIS6_E, symObjAddr: 0x868, symBinAddr: 0x10001FDF4, symSize: 0x3C }
  - { offset: 0xEFDF3, size: 0x8, addend: 0x0, symName: __ZNKSt3__16vectorINS_12basic_stringIcNS_11char_traitsIcEENS_9allocatorIcEEEENS4_IS6_EEE5beginB8ue170006Ev, symObjAddr: 0x8A4, symBinAddr: 0x10001FE30, symSize: 0x30 }
  - { offset: 0xEFE1B, size: 0x8, addend: 0x0, symName: __ZNKSt3__16vectorINS_12basic_stringIcNS_11char_traitsIcEENS_9allocatorIcEEEENS4_IS6_EEE3endB8ue170006Ev, symObjAddr: 0x8D4, symBinAddr: 0x10001FE60, symSize: 0x30 }
  - { offset: 0xEFE43, size: 0x8, addend: 0x0, symName: __ZNKSt3__111__wrap_iterIPKNS_12basic_stringIcNS_11char_traitsIcEENS_9allocatorIcEEEEEdeB8ue170006Ev, symObjAddr: 0x938, symBinAddr: 0x10001FEC4, symSize: 0x18 }
  - { offset: 0xEFE69, size: 0x8, addend: 0x0, symName: __ZNSt3__14__fs10filesystem4pathC1B8ue170006INS_12basic_stringIcNS_11char_traitsIcEENS_9allocatorIcEEEEvEERKT_NS2_6formatE, symObjAddr: 0x9EC, symBinAddr: 0x10001FF78, symSize: 0x3C }
  - { offset: 0xEFEB7, size: 0x8, addend: 0x0, symName: __ZNSt3__111__wrap_iterIPKNS_12basic_stringIcNS_11char_traitsIcEENS_9allocatorIcEEEEEppB8ue170006Ev, symObjAddr: 0xA28, symBinAddr: 0x10001FFB4, symSize: 0x20 }
  - { offset: 0xEFEDD, size: 0x8, addend: 0x0, symName: __ZNSt3__110unique_ptrI13GameSetupViewNS_14default_deleteIS1_EEEaSB8ue170006EOS4_, symObjAddr: 0xABC, symBinAddr: 0x100020048, symSize: 0x50 }
  - { offset: 0xEFF11, size: 0x8, addend: 0x0, symName: __ZNSt3__110unique_ptrI13GameSetupViewNS_14default_deleteIS1_EEED1B8ue170006Ev, symObjAddr: 0xB0C, symBinAddr: 0x100020098, symSize: 0x2C }
  - { offset: 0xEFF3B, size: 0x8, addend: 0x0, symName: __ZN10GUIManager19InitializeGameSetupEv, symObjAddr: 0xB38, symBinAddr: 0x1000200C4, symSize: 0x1CC }
  - { offset: 0xEFF63, size: 0x8, addend: 0x0, symName: __ZNSt3__16vectorINS_12basic_stringIcNS_11char_traitsIcEENS_9allocatorIcEEEENS4_IS6_EEED1B8ue170006Ev, symObjAddr: 0xD04, symBinAddr: 0x100020290, symSize: 0x2C }
  - { offset: 0xEFF8D, size: 0x8, addend: 0x0, symName: __ZNSt3__110unique_ptrI10InfoUIViewNS_14default_deleteIS1_EEED1B8ue170006Ev, symObjAddr: 0xD30, symBinAddr: 0x1000202BC, symSize: 0x2C }
  - { offset: 0xEFFB7, size: 0x8, addend: 0x0, symName: __ZNSt3__110unique_ptrI6InfoUINS_14default_deleteIS1_EEED1B8ue170006Ev, symObjAddr: 0xD5C, symBinAddr: 0x1000202E8, symSize: 0x2C }
  - { offset: 0xEFFE1, size: 0x8, addend: 0x0, symName: __ZNSt3__110unique_ptrI12MapSetupViewNS_14default_deleteIS1_EEED1B8ue170006Ev, symObjAddr: 0xD88, symBinAddr: 0x100020314, symSize: 0x2C }
  - { offset: 0xF000B, size: 0x8, addend: 0x0, symName: __ZNSt3__110unique_ptrI8MapSetupNS_14default_deleteIS1_EEED1B8ue170006Ev, symObjAddr: 0xDB4, symBinAddr: 0x100020340, symSize: 0x2C }
  - { offset: 0xF0035, size: 0x8, addend: 0x0, symName: __ZN9GameSetupD1Ev, symObjAddr: 0xDE0, symBinAddr: 0x10002036C, symSize: 0x2C }
  - { offset: 0xF005F, size: 0x8, addend: 0x0, symName: __ZN10GUIManagerC1ERN2sf12RenderWindowE, symObjAddr: 0xE0C, symBinAddr: 0x100020398, symSize: 0x34 }
  - { offset: 0xF0099, size: 0x8, addend: 0x0, symName: __ZN9GameSetup11AddObserverEP13IGameObserver, symObjAddr: 0xE40, symBinAddr: 0x1000203CC, symSize: 0x34 }
  - { offset: 0xF00CD, size: 0x8, addend: 0x0, symName: __ZNKSt3__110unique_ptrI13GameSetupViewNS_14default_deleteIS1_EEE3getB8ue170006Ev, symObjAddr: 0xE74, symBinAddr: 0x100020400, symSize: 0x28 }
  - { offset: 0xF00F3, size: 0x8, addend: 0x0, symName: __ZN9GameSetup13SetIntroTitleENSt3__112basic_stringIcNS0_11char_traitsIcEENS0_9allocatorIcEEEE, symObjAddr: 0xE9C, symBinAddr: 0x100020428, symSize: 0x3C }
  - { offset: 0xF0128, size: 0x8, addend: 0x0, symName: __ZN9GameSetup16SetEnterSizeSignENSt3__112basic_stringIcNS0_11char_traitsIcEENS0_9allocatorIcEEEE, symObjAddr: 0xED8, symBinAddr: 0x100020464, symSize: 0x3C }
  - { offset: 0xF015D, size: 0x8, addend: 0x0, symName: __ZN9GameSetup24SetUserInputWindowHeightENSt3__112basic_stringIcNS0_11char_traitsIcEENS0_9allocatorIcEEEE, symObjAddr: 0xF14, symBinAddr: 0x1000204A0, symSize: 0x3C }
  - { offset: 0xF0192, size: 0x8, addend: 0x0, symName: __ZN9GameSetup23SetUserInputWindowWidthENSt3__112basic_stringIcNS0_11char_traitsIcEENS0_9allocatorIcEEEE, symObjAddr: 0xF50, symBinAddr: 0x1000204DC, symSize: 0x3C }
  - { offset: 0xF01C7, size: 0x8, addend: 0x0, symName: __ZN9GameSetup19SetSizeLimitWarningENSt3__112basic_stringIcNS0_11char_traitsIcEENS0_9allocatorIcEEEE, symObjAddr: 0xF8C, symBinAddr: 0x100020518, symSize: 0x3C }
  - { offset: 0xF01FC, size: 0x8, addend: 0x0, symName: __ZN10GUIManager18InitializeMapSetupEN2sf7Vector2IiEE, symObjAddr: 0xFC8, symBinAddr: 0x100020554, symSize: 0xC0 }
  - { offset: 0xF0232, size: 0x8, addend: 0x0, symName: __ZNSt3__110unique_ptrI8MapSetupNS_14default_deleteIS1_EEEaSB8ue170006EOS4_, symObjAddr: 0x1100, symBinAddr: 0x10002068C, symSize: 0x50 }
  - { offset: 0xF0266, size: 0x8, addend: 0x0, symName: __ZNSt3__110unique_ptrI12MapSetupViewNS_14default_deleteIS1_EEEaSB8ue170006EOS4_, symObjAddr: 0x11BC, symBinAddr: 0x100020748, symSize: 0x50 }
  - { offset: 0xF029A, size: 0x8, addend: 0x0, symName: __ZNKSt3__110unique_ptrI8MapSetupNS_14default_deleteIS1_EEEptB8ue170006Ev, symObjAddr: 0x120C, symBinAddr: 0x100020798, symSize: 0x28 }
  - { offset: 0xF02C0, size: 0x8, addend: 0x0, symName: __ZNKSt3__110unique_ptrI12MapSetupViewNS_14default_deleteIS1_EEE3getB8ue170006Ev, symObjAddr: 0x1234, symBinAddr: 0x1000207C0, symSize: 0x28 }
  - { offset: 0xF02E6, size: 0x8, addend: 0x0, symName: __ZN10GUIManager16InitializeInfoUIEv, symObjAddr: 0x125C, symBinAddr: 0x1000207E8, symSize: 0xD0 }
  - { offset: 0xF031C, size: 0x8, addend: 0x0, symName: __ZN8MapSetup10GetMapSizeEv, symObjAddr: 0x1354, symBinAddr: 0x1000208B8, symSize: 0x44 }
  - { offset: 0xF0342, size: 0x8, addend: 0x0, symName: __ZNSt3__110unique_ptrI6InfoUINS_14default_deleteIS1_EEEaSB8ue170006EOS4_, symObjAddr: 0x13FC, symBinAddr: 0x100020960, symSize: 0x50 }
  - { offset: 0xF0376, size: 0x8, addend: 0x0, symName: __ZNSt3__110unique_ptrI10InfoUIViewNS_14default_deleteIS1_EEEaSB8ue170006EOS4_, symObjAddr: 0x14D4, symBinAddr: 0x100020A38, symSize: 0x50 }
  - { offset: 0xF03AA, size: 0x8, addend: 0x0, symName: __ZNKSt3__110unique_ptrI6InfoUINS_14default_deleteIS1_EEEptB8ue170006Ev, symObjAddr: 0x1524, symBinAddr: 0x100020A88, symSize: 0x28 }
  - { offset: 0xF03D0, size: 0x8, addend: 0x0, symName: __ZNKSt3__110unique_ptrI10InfoUIViewNS_14default_deleteIS1_EEE3getB8ue170006Ev, symObjAddr: 0x154C, symBinAddr: 0x100020AB0, symSize: 0x28 }
  - { offset: 0xF03F6, size: 0x8, addend: 0x0, symName: __ZN9GameSetupC2Ev, symObjAddr: 0x1574, symBinAddr: 0x100020AD8, symSize: 0x84 }
  - { offset: 0xF0420, size: 0x8, addend: 0x0, symName: __ZN9GameSetupD0Ev, symObjAddr: 0x1674, symBinAddr: 0x100020B5C, symSize: 0x30 }
  - { offset: 0xF044A, size: 0x8, addend: 0x0, symName: __ZN9GameSetup14RemoveObserverEP13IGameObserver, symObjAddr: 0x16A4, symBinAddr: 0x100020B8C, symSize: 0xAC }
  - { offset: 0xF048A, size: 0x8, addend: 0x0, symName: __ZNSt3__110unique_ptrI13GameSetupViewNS_14default_deleteIS1_EEEC2B8ue170006ILb1EvEEv, symObjAddr: 0x2B7C, symBinAddr: 0x100020C38, symSize: 0x3C }
  - { offset: 0xF04C5, size: 0x8, addend: 0x0, symName: __ZNSt3__117__compressed_pairIP13GameSetupViewNS_14default_deleteIS1_EEEC1B8ue170006INS_16__value_init_tagES7_EEOT_OT0_, symObjAddr: 0x2BB8, symBinAddr: 0x100020C74, symSize: 0x3C }
  - { offset: 0xF051D, size: 0x8, addend: 0x0, symName: __ZNSt3__117__compressed_pairIP13GameSetupViewNS_14default_deleteIS1_EEEC2B8ue170006INS_16__value_init_tagES7_EEOT_OT0_, symObjAddr: 0x2BF4, symBinAddr: 0x100020CB0, symSize: 0x3C }
  - { offset: 0xF0575, size: 0x8, addend: 0x0, symName: __ZNSt3__122__compressed_pair_elemIP13GameSetupViewLi0ELb0EEC2B8ue170006ENS_16__value_init_tagE, symObjAddr: 0x2C30, symBinAddr: 0x100020CEC, symSize: 0x18 }
  - { offset: 0xF05A9, size: 0x8, addend: 0x0, symName: __ZNSt3__122__compressed_pair_elemINS_14default_deleteI13GameSetupViewEELi1ELb1EEC2B8ue170006ENS_16__value_init_tagE, symObjAddr: 0x2C48, symBinAddr: 0x100020D04, symSize: 0x14 }
  - { offset: 0xF05DD, size: 0x8, addend: 0x0, symName: __ZNSt3__110unique_ptrI8MapSetupNS_14default_deleteIS1_EEEC2B8ue170006ILb1EvEEv, symObjAddr: 0x2C5C, symBinAddr: 0x100020D18, symSize: 0x3C }
  - { offset: 0xF0612, size: 0x8, addend: 0x0, symName: __ZNSt3__117__compressed_pairIP8MapSetupNS_14default_deleteIS1_EEEC1B8ue170006INS_16__value_init_tagES7_EEOT_OT0_, symObjAddr: 0x2C98, symBinAddr: 0x100020D54, symSize: 0x3C }
  - { offset: 0xF066A, size: 0x8, addend: 0x0, symName: __ZNSt3__117__compressed_pairIP8MapSetupNS_14default_deleteIS1_EEEC2B8ue170006INS_16__value_init_tagES7_EEOT_OT0_, symObjAddr: 0x2CD4, symBinAddr: 0x100020D90, symSize: 0x3C }
  - { offset: 0xF06C2, size: 0x8, addend: 0x0, symName: __ZNSt3__122__compressed_pair_elemIP8MapSetupLi0ELb0EEC2B8ue170006ENS_16__value_init_tagE, symObjAddr: 0x2D10, symBinAddr: 0x100020DCC, symSize: 0x18 }
  - { offset: 0xF06F6, size: 0x8, addend: 0x0, symName: __ZNSt3__122__compressed_pair_elemINS_14default_deleteI8MapSetupEELi1ELb1EEC2B8ue170006ENS_16__value_init_tagE, symObjAddr: 0x2D28, symBinAddr: 0x100020DE4, symSize: 0x14 }
  - { offset: 0xF072A, size: 0x8, addend: 0x0, symName: __ZNSt3__110unique_ptrI12MapSetupViewNS_14default_deleteIS1_EEEC2B8ue170006ILb1EvEEv, symObjAddr: 0x2D3C, symBinAddr: 0x100020DF8, symSize: 0x3C }
  - { offset: 0xF075F, size: 0x8, addend: 0x0, symName: __ZNSt3__117__compressed_pairIP12MapSetupViewNS_14default_deleteIS1_EEEC1B8ue170006INS_16__value_init_tagES7_EEOT_OT0_, symObjAddr: 0x2D78, symBinAddr: 0x100020E34, symSize: 0x3C }
  - { offset: 0xF07B7, size: 0x8, addend: 0x0, symName: __ZNSt3__117__compressed_pairIP12MapSetupViewNS_14default_deleteIS1_EEEC2B8ue170006INS_16__value_init_tagES7_EEOT_OT0_, symObjAddr: 0x2DB4, symBinAddr: 0x100020E70, symSize: 0x3C }
  - { offset: 0xF080F, size: 0x8, addend: 0x0, symName: __ZNSt3__122__compressed_pair_elemIP12MapSetupViewLi0ELb0EEC2B8ue170006ENS_16__value_init_tagE, symObjAddr: 0x2DF0, symBinAddr: 0x100020EAC, symSize: 0x18 }
  - { offset: 0xF0843, size: 0x8, addend: 0x0, symName: __ZNSt3__122__compressed_pair_elemINS_14default_deleteI12MapSetupViewEELi1ELb1EEC2B8ue170006ENS_16__value_init_tagE, symObjAddr: 0x2E08, symBinAddr: 0x100020EC4, symSize: 0x14 }
  - { offset: 0xF0877, size: 0x8, addend: 0x0, symName: __ZNSt3__110unique_ptrI6InfoUINS_14default_deleteIS1_EEEC2B8ue170006ILb1EvEEv, symObjAddr: 0x2E1C, symBinAddr: 0x100020ED8, symSize: 0x3C }
  - { offset: 0xF08AC, size: 0x8, addend: 0x0, symName: __ZNSt3__117__compressed_pairIP6InfoUINS_14default_deleteIS1_EEEC1B8ue170006INS_16__value_init_tagES7_EEOT_OT0_, symObjAddr: 0x2E58, symBinAddr: 0x100020F14, symSize: 0x3C }
  - { offset: 0xF0904, size: 0x8, addend: 0x0, symName: __ZNSt3__117__compressed_pairIP6InfoUINS_14default_deleteIS1_EEEC2B8ue170006INS_16__value_init_tagES7_EEOT_OT0_, symObjAddr: 0x2E94, symBinAddr: 0x100020F50, symSize: 0x3C }
  - { offset: 0xF095C, size: 0x8, addend: 0x0, symName: __ZNSt3__122__compressed_pair_elemIP6InfoUILi0ELb0EEC2B8ue170006ENS_16__value_init_tagE, symObjAddr: 0x2ED0, symBinAddr: 0x100020F8C, symSize: 0x18 }
  - { offset: 0xF0990, size: 0x8, addend: 0x0, symName: __ZNSt3__122__compressed_pair_elemINS_14default_deleteI6InfoUIEELi1ELb1EEC2B8ue170006ENS_16__value_init_tagE, symObjAddr: 0x2EE8, symBinAddr: 0x100020FA4, symSize: 0x14 }
  - { offset: 0xF09C4, size: 0x8, addend: 0x0, symName: __ZNSt3__110unique_ptrI10InfoUIViewNS_14default_deleteIS1_EEEC2B8ue170006ILb1EvEEv, symObjAddr: 0x2EFC, symBinAddr: 0x100020FB8, symSize: 0x3C }
  - { offset: 0xF09F9, size: 0x8, addend: 0x0, symName: __ZNSt3__117__compressed_pairIP10InfoUIViewNS_14default_deleteIS1_EEEC1B8ue170006INS_16__value_init_tagES7_EEOT_OT0_, symObjAddr: 0x2F38, symBinAddr: 0x100020FF4, symSize: 0x3C }
  - { offset: 0xF0A51, size: 0x8, addend: 0x0, symName: __ZNSt3__117__compressed_pairIP10InfoUIViewNS_14default_deleteIS1_EEEC2B8ue170006INS_16__value_init_tagES7_EEOT_OT0_, symObjAddr: 0x2F74, symBinAddr: 0x100021030, symSize: 0x3C }
  - { offset: 0xF0AA9, size: 0x8, addend: 0x0, symName: __ZNSt3__122__compressed_pair_elemIP10InfoUIViewLi0ELb0EEC2B8ue170006ENS_16__value_init_tagE, symObjAddr: 0x2FB0, symBinAddr: 0x10002106C, symSize: 0x18 }
  - { offset: 0xF0ADD, size: 0x8, addend: 0x0, symName: __ZNSt3__122__compressed_pair_elemINS_14default_deleteI10InfoUIViewEELi1ELb1EEC2B8ue170006ENS_16__value_init_tagE, symObjAddr: 0x2FC8, symBinAddr: 0x100021084, symSize: 0x14 }
  - { offset: 0xF0B11, size: 0x8, addend: 0x0, symName: __ZNSt3__14__fs10filesystem4pathD2B8ue170006Ev, symObjAddr: 0x2FDC, symBinAddr: 0x100021098, symSize: 0x2C }
  - { offset: 0xF0B3B, size: 0x8, addend: 0x0, symName: __ZNKSt3__111__wrap_iterIPKNS_12basic_stringIcNS_11char_traitsIcEENS_9allocatorIcEEEEE4baseB8ue170006Ev, symObjAddr: 0x3050, symBinAddr: 0x10002110C, symSize: 0x18 }
  - { offset: 0xF0B82, size: 0x8, addend: 0x0, symName: __ZNSt3__14__fs10filesystem11file_statusD1B8ue170006Ev, symObjAddr: 0x30E0, symBinAddr: 0x10002119C, symSize: 0x2C }
  - { offset: 0xF0BAC, size: 0x8, addend: 0x0, symName: __ZNKSt3__14__fs10filesystem11file_status4typeB8ue170006Ev, symObjAddr: 0x313C, symBinAddr: 0x1000211F8, symSize: 0x18 }
  - { offset: 0xF0BD2, size: 0x8, addend: 0x0, symName: __ZNSt3__14__fs10filesystem11file_statusD2B8ue170006Ev, symObjAddr: 0x3154, symBinAddr: 0x100021210, symSize: 0x14 }
  - { offset: 0xF0BFC, size: 0x8, addend: 0x0, symName: __ZN9GameSetupD2Ev, symObjAddr: 0x3168, symBinAddr: 0x100021224, symSize: 0x84 }
  - { offset: 0xF0C4B, size: 0x8, addend: 0x0, symName: __ZN9GameSetup15notifyObserversEv, symObjAddr: 0x4C60, symBinAddr: 0x1000212A8, symSize: 0x90 }
  - { offset: 0xF0CE3, size: 0x8, addend: 0x0, symName: __ZNKSt3__117__compressed_pairIP13GameSetupViewNS_14default_deleteIS1_EEE5firstB8ue170006Ev, symObjAddr: 0x57A0, symBinAddr: 0x100021338, symSize: 0x24 }
  - { offset: 0xF0D09, size: 0x8, addend: 0x0, symName: __ZNKSt3__122__compressed_pair_elemIP13GameSetupViewLi0ELb0EE5__getB8ue170006Ev, symObjAddr: 0x57C4, symBinAddr: 0x10002135C, symSize: 0x14 }
  - { offset: 0xF0D2F, size: 0x8, addend: 0x0, symName: __ZNKSt3__117__compressed_pairIP12MapSetupViewNS_14default_deleteIS1_EEE5firstB8ue170006Ev, symObjAddr: 0x57D8, symBinAddr: 0x100021370, symSize: 0x24 }
  - { offset: 0xF0D55, size: 0x8, addend: 0x0, symName: __ZNKSt3__122__compressed_pair_elemIP12MapSetupViewLi0ELb0EE5__getB8ue170006Ev, symObjAddr: 0x57FC, symBinAddr: 0x100021394, symSize: 0x14 }
  - { offset: 0xF0D7B, size: 0x8, addend: 0x0, symName: __ZNKSt3__117__compressed_pairIP10InfoUIViewNS_14default_deleteIS1_EEE5firstB8ue170006Ev, symObjAddr: 0x5810, symBinAddr: 0x1000213A8, symSize: 0x24 }
  - { offset: 0xF0DA1, size: 0x8, addend: 0x0, symName: __ZNKSt3__122__compressed_pair_elemIP10InfoUIViewLi0ELb0EE5__getB8ue170006Ev, symObjAddr: 0x5834, symBinAddr: 0x1000213CC, symSize: 0x14 }
  - { offset: 0xF0DC7, size: 0x8, addend: 0x0, symName: __ZNSt3__110unique_ptrI13GameSetupViewNS_14default_deleteIS1_EEED2B8ue170006Ev, symObjAddr: 0x5848, symBinAddr: 0x1000213E0, symSize: 0x30 }
  - { offset: 0xF0DF1, size: 0x8, addend: 0x0, symName: __ZNSt3__110unique_ptrI13GameSetupViewNS_14default_deleteIS1_EEE5resetB8ue170006EPS1_, symObjAddr: 0x5878, symBinAddr: 0x100021410, symSize: 0x78 }
  - { offset: 0xF0E35, size: 0x8, addend: 0x0, symName: __ZNSt3__117__compressed_pairIP13GameSetupViewNS_14default_deleteIS1_EEE5firstB8ue170006Ev, symObjAddr: 0x58F0, symBinAddr: 0x100021488, symSize: 0x24 }
  - { offset: 0xF0E5B, size: 0x8, addend: 0x0, symName: __ZNSt3__117__compressed_pairIP13GameSetupViewNS_14default_deleteIS1_EEE6secondB8ue170006Ev, symObjAddr: 0x5914, symBinAddr: 0x1000214AC, symSize: 0x24 }
  - { offset: 0xF0E81, size: 0x8, addend: 0x0, symName: __ZNKSt3__114default_deleteI13GameSetupViewEclB8ue170006EPS1_, symObjAddr: 0x5938, symBinAddr: 0x1000214D0, symSize: 0x4C }
  - { offset: 0xF0EB5, size: 0x8, addend: 0x0, symName: __ZNSt3__122__compressed_pair_elemIP13GameSetupViewLi0ELb0EE5__getB8ue170006Ev, symObjAddr: 0x5984, symBinAddr: 0x10002151C, symSize: 0x14 }
  - { offset: 0xF0EDB, size: 0x8, addend: 0x0, symName: __ZNSt3__122__compressed_pair_elemINS_14default_deleteI13GameSetupViewEELi1ELb1EE5__getB8ue170006Ev, symObjAddr: 0x5998, symBinAddr: 0x100021530, symSize: 0x14 }
  - { offset: 0xF0F01, size: 0x8, addend: 0x0, symName: __ZNSt3__110unique_ptrI8MapSetupNS_14default_deleteIS1_EEED2B8ue170006Ev, symObjAddr: 0x59AC, symBinAddr: 0x100021544, symSize: 0x30 }
  - { offset: 0xF0F2B, size: 0x8, addend: 0x0, symName: __ZNSt3__110unique_ptrI8MapSetupNS_14default_deleteIS1_EEE5resetB8ue170006EPS1_, symObjAddr: 0x59DC, symBinAddr: 0x100021574, symSize: 0x78 }
  - { offset: 0xF0F6F, size: 0x8, addend: 0x0, symName: __ZNSt3__117__compressed_pairIP8MapSetupNS_14default_deleteIS1_EEE5firstB8ue170006Ev, symObjAddr: 0x5A54, symBinAddr: 0x1000215EC, symSize: 0x24 }
  - { offset: 0xF0F95, size: 0x8, addend: 0x0, symName: __ZNSt3__117__compressed_pairIP8MapSetupNS_14default_deleteIS1_EEE6secondB8ue170006Ev, symObjAddr: 0x5A78, symBinAddr: 0x100021610, symSize: 0x24 }
  - { offset: 0xF0FBB, size: 0x8, addend: 0x0, symName: __ZNKSt3__114default_deleteI8MapSetupEclB8ue170006EPS1_, symObjAddr: 0x5A9C, symBinAddr: 0x100021634, symSize: 0x4C }
  - { offset: 0xF0FEF, size: 0x8, addend: 0x0, symName: __ZNSt3__122__compressed_pair_elemIP8MapSetupLi0ELb0EE5__getB8ue170006Ev, symObjAddr: 0x5AE8, symBinAddr: 0x100021680, symSize: 0x14 }
  - { offset: 0xF1015, size: 0x8, addend: 0x0, symName: __ZNSt3__122__compressed_pair_elemINS_14default_deleteI8MapSetupEELi1ELb1EE5__getB8ue170006Ev, symObjAddr: 0x5AFC, symBinAddr: 0x100021694, symSize: 0x14 }
  - { offset: 0xF103B, size: 0x8, addend: 0x0, symName: __ZNSt3__110unique_ptrI12MapSetupViewNS_14default_deleteIS1_EEED2B8ue170006Ev, symObjAddr: 0x5B10, symBinAddr: 0x1000216A8, symSize: 0x30 }
  - { offset: 0xF1065, size: 0x8, addend: 0x0, symName: __ZNSt3__110unique_ptrI12MapSetupViewNS_14default_deleteIS1_EEE5resetB8ue170006EPS1_, symObjAddr: 0x5B40, symBinAddr: 0x1000216D8, symSize: 0x78 }
  - { offset: 0xF10A9, size: 0x8, addend: 0x0, symName: __ZNSt3__117__compressed_pairIP12MapSetupViewNS_14default_deleteIS1_EEE5firstB8ue170006Ev, symObjAddr: 0x5BB8, symBinAddr: 0x100021750, symSize: 0x24 }
  - { offset: 0xF10CF, size: 0x8, addend: 0x0, symName: __ZNSt3__117__compressed_pairIP12MapSetupViewNS_14default_deleteIS1_EEE6secondB8ue170006Ev, symObjAddr: 0x5BDC, symBinAddr: 0x100021774, symSize: 0x24 }
  - { offset: 0xF10F5, size: 0x8, addend: 0x0, symName: __ZNKSt3__114default_deleteI12MapSetupViewEclB8ue170006EPS1_, symObjAddr: 0x5C00, symBinAddr: 0x100021798, symSize: 0x4C }
  - { offset: 0xF1129, size: 0x8, addend: 0x0, symName: __ZNSt3__122__compressed_pair_elemIP12MapSetupViewLi0ELb0EE5__getB8ue170006Ev, symObjAddr: 0x5C4C, symBinAddr: 0x1000217E4, symSize: 0x14 }
  - { offset: 0xF114F, size: 0x8, addend: 0x0, symName: __ZNSt3__122__compressed_pair_elemINS_14default_deleteI12MapSetupViewEELi1ELb1EE5__getB8ue170006Ev, symObjAddr: 0x5C60, symBinAddr: 0x1000217F8, symSize: 0x14 }
  - { offset: 0xF1175, size: 0x8, addend: 0x0, symName: __ZNSt3__110unique_ptrI6InfoUINS_14default_deleteIS1_EEED2B8ue170006Ev, symObjAddr: 0x5C74, symBinAddr: 0x10002180C, symSize: 0x30 }
  - { offset: 0xF119F, size: 0x8, addend: 0x0, symName: __ZNSt3__110unique_ptrI6InfoUINS_14default_deleteIS1_EEE5resetB8ue170006EPS1_, symObjAddr: 0x5CA4, symBinAddr: 0x10002183C, symSize: 0x78 }
  - { offset: 0xF11E3, size: 0x8, addend: 0x0, symName: __ZNSt3__117__compressed_pairIP6InfoUINS_14default_deleteIS1_EEE5firstB8ue170006Ev, symObjAddr: 0x5D1C, symBinAddr: 0x1000218B4, symSize: 0x24 }
  - { offset: 0xF1209, size: 0x8, addend: 0x0, symName: __ZNSt3__117__compressed_pairIP6InfoUINS_14default_deleteIS1_EEE6secondB8ue170006Ev, symObjAddr: 0x5D40, symBinAddr: 0x1000218D8, symSize: 0x24 }
  - { offset: 0xF122F, size: 0x8, addend: 0x0, symName: __ZNKSt3__114default_deleteI6InfoUIEclB8ue170006EPS1_, symObjAddr: 0x5D64, symBinAddr: 0x1000218FC, symSize: 0x4C }
  - { offset: 0xF1263, size: 0x8, addend: 0x0, symName: __ZNSt3__122__compressed_pair_elemIP6InfoUILi0ELb0EE5__getB8ue170006Ev, symObjAddr: 0x5DB0, symBinAddr: 0x100021948, symSize: 0x14 }
  - { offset: 0xF1289, size: 0x8, addend: 0x0, symName: __ZNSt3__122__compressed_pair_elemINS_14default_deleteI6InfoUIEELi1ELb1EE5__getB8ue170006Ev, symObjAddr: 0x5DC4, symBinAddr: 0x10002195C, symSize: 0x14 }
  - { offset: 0xF12AF, size: 0x8, addend: 0x0, symName: __ZNSt3__110unique_ptrI10InfoUIViewNS_14default_deleteIS1_EEED2B8ue170006Ev, symObjAddr: 0x5DD8, symBinAddr: 0x100021970, symSize: 0x30 }
  - { offset: 0xF12D9, size: 0x8, addend: 0x0, symName: __ZNSt3__110unique_ptrI10InfoUIViewNS_14default_deleteIS1_EEE5resetB8ue170006EPS1_, symObjAddr: 0x5E08, symBinAddr: 0x1000219A0, symSize: 0x78 }
  - { offset: 0xF131D, size: 0x8, addend: 0x0, symName: __ZNSt3__117__compressed_pairIP10InfoUIViewNS_14default_deleteIS1_EEE5firstB8ue170006Ev, symObjAddr: 0x5E80, symBinAddr: 0x100021A18, symSize: 0x24 }
  - { offset: 0xF1343, size: 0x8, addend: 0x0, symName: __ZNSt3__117__compressed_pairIP10InfoUIViewNS_14default_deleteIS1_EEE6secondB8ue170006Ev, symObjAddr: 0x5EA4, symBinAddr: 0x100021A3C, symSize: 0x24 }
  - { offset: 0xF1369, size: 0x8, addend: 0x0, symName: __ZNKSt3__114default_deleteI10InfoUIViewEclB8ue170006EPS1_, symObjAddr: 0x5EC8, symBinAddr: 0x100021A60, symSize: 0x4C }
  - { offset: 0xF139D, size: 0x8, addend: 0x0, symName: __ZNSt3__122__compressed_pair_elemIP10InfoUIViewLi0ELb0EE5__getB8ue170006Ev, symObjAddr: 0x5F14, symBinAddr: 0x100021AAC, symSize: 0x14 }
  - { offset: 0xF13C3, size: 0x8, addend: 0x0, symName: __ZNSt3__122__compressed_pair_elemINS_14default_deleteI10InfoUIViewEELi1ELb1EE5__getB8ue170006Ev, symObjAddr: 0x5F28, symBinAddr: 0x100021AC0, symSize: 0x14 }
  - { offset: 0xF13E9, size: 0x8, addend: 0x0, symName: __ZNKSt3__14__fs10filesystem4path6nativeB8ue170006Ev, symObjAddr: 0x5FEC, symBinAddr: 0x100021B84, symSize: 0x14 }
  - { offset: 0xF140F, size: 0x8, addend: 0x0, symName: __ZNSt3__111char_traitsIcE2eqEcc, symObjAddr: 0x6148, symBinAddr: 0x100021CE0, symSize: 0x28 }
  - { offset: 0xF1440, size: 0x8, addend: 0x0, symName: __ZNKSt3__112basic_stringIcNS_11char_traitsIcEENS_9allocatorIcEEE4sizeB8ue170006Ev, symObjAddr: 0x6170, symBinAddr: 0x100021D08, symSize: 0x54 }
  - { offset: 0xF1466, size: 0x8, addend: 0x0, symName: __ZNKSt3__112basic_stringIcNS_11char_traitsIcEENS_9allocatorIcEEE15__get_long_sizeB8ue170006Ev, symObjAddr: 0x61C4, symBinAddr: 0x100021D5C, symSize: 0x28 }
  - { offset: 0xF148C, size: 0x8, addend: 0x0, symName: __ZNKSt3__112basic_stringIcNS_11char_traitsIcEENS_9allocatorIcEEE16__get_short_sizeB8ue170006Ev, symObjAddr: 0x61EC, symBinAddr: 0x100021D84, symSize: 0x34 }
  - { offset: 0xF14B2, size: 0x8, addend: 0x0, symName: __ZNKSt3__112basic_stringIcNS_11char_traitsIcEENS_9allocatorIcEEE4dataB8ue170006Ev, symObjAddr: 0x6220, symBinAddr: 0x100021DB8, symSize: 0x28 }
  - { offset: 0xF14DD, size: 0x8, addend: 0x0, symName: __ZNSt3__121__quoted_output_proxyIcNS_11char_traitsIcEEEC1B8ue170006EPKcS5_cc, symObjAddr: 0x6248, symBinAddr: 0x100021DE0, symSize: 0x4C }
  - { offset: 0xF1543, size: 0x8, addend: 0x0, symName: __ZNKSt3__112basic_stringIcNS_11char_traitsIcEENS_9allocatorIcEEE13__get_pointerB8ue170006Ev, symObjAddr: 0x62A8, symBinAddr: 0x100021E40, symSize: 0x54 }
  - { offset: 0xF1569, size: 0x8, addend: 0x0, symName: __ZNKSt3__112basic_stringIcNS_11char_traitsIcEENS_9allocatorIcEEE18__get_long_pointerB8ue170006Ev, symObjAddr: 0x62FC, symBinAddr: 0x100021E94, symSize: 0x28 }
  - { offset: 0xF158F, size: 0x8, addend: 0x0, symName: __ZNKSt3__112basic_stringIcNS_11char_traitsIcEENS_9allocatorIcEEE19__get_short_pointerB8ue170006Ev, symObjAddr: 0x6324, symBinAddr: 0x100021EBC, symSize: 0x28 }
  - { offset: 0xF15B5, size: 0x8, addend: 0x0, symName: __ZNSt3__114pointer_traitsIPKcE10pointer_toB8ue170006ERS1_, symObjAddr: 0x634C, symBinAddr: 0x100021EE4, symSize: 0x14 }
  - { offset: 0xF15D8, size: 0x8, addend: 0x0, symName: __ZNSt3__121__quoted_output_proxyIcNS_11char_traitsIcEEEC2B8ue170006EPKcS5_cc, symObjAddr: 0x6360, symBinAddr: 0x100021EF8, symSize: 0x44 }
  - { offset: 0xF163E, size: 0x8, addend: 0x0, symName: __ZNSt3__16vectorINS_12basic_stringIcNS_11char_traitsIcEENS_9allocatorIcEEEENS4_IS6_EEEC2B8ue170006ESt16initializer_listIS6_E, symObjAddr: 0x63FC, symBinAddr: 0x100021F3C, symSize: 0x120 }
  - { offset: 0xF168E, size: 0x8, addend: 0x0, symName: __ZNSt3__117__compressed_pairIPNS_12basic_stringIcNS_11char_traitsIcEENS_9allocatorIcEEEENS4_IS6_EEEC1B8ue170006IDnNS_18__default_init_tagEEEOT_OT0_, symObjAddr: 0x651C, symBinAddr: 0x10002205C, symSize: 0x3C }
  - { offset: 0xF16E6, size: 0x8, addend: 0x0, symName: __ZNSt3__16vectorINS_12basic_stringIcNS_11char_traitsIcEENS_9allocatorIcEEEENS4_IS6_EEE16__destroy_vectorC1B8ue170006ERS8_, symObjAddr: 0x6598, symBinAddr: 0x1000220D8, symSize: 0x34 }
  - { offset: 0xF171F, size: 0x8, addend: 0x0, symName: __ZNKSt16initializer_listINSt3__112basic_stringIcNS0_11char_traitsIcEENS0_9allocatorIcEEEEE4sizeB8ue170006Ev, symObjAddr: 0x65CC, symBinAddr: 0x10002210C, symSize: 0x18 }
  - { offset: 0xF1745, size: 0x8, addend: 0x0, symName: __ZNSt3__16vectorINS_12basic_stringIcNS_11char_traitsIcEENS_9allocatorIcEEEENS4_IS6_EEE11__vallocateB8ue170006Em, symObjAddr: 0x65E4, symBinAddr: 0x100022124, symSize: 0xB4 }
  - { offset: 0xF1789, size: 0x8, addend: 0x0, symName: __ZNSt3__16vectorINS_12basic_stringIcNS_11char_traitsIcEENS_9allocatorIcEEEENS4_IS6_EEE18__construct_at_endIPKS6_SB_EEvT_T0_m, symObjAddr: 0x6698, symBinAddr: 0x1000221D8, symSize: 0x8C }
  - { offset: 0xF17FF, size: 0x8, addend: 0x0, symName: __ZNKSt16initializer_listINSt3__112basic_stringIcNS0_11char_traitsIcEENS0_9allocatorIcEEEEE5beginB8ue170006Ev, symObjAddr: 0x6724, symBinAddr: 0x100022264, symSize: 0x18 }
  - { offset: 0xF1825, size: 0x8, addend: 0x0, symName: __ZNKSt16initializer_listINSt3__112basic_stringIcNS0_11char_traitsIcEENS0_9allocatorIcEEEEE3endB8ue170006Ev, symObjAddr: 0x673C, symBinAddr: 0x10002227C, symSize: 0x28 }
  - { offset: 0xF184B, size: 0x8, addend: 0x0, symName: __ZNSt3__128__exception_guard_exceptionsINS_6vectorINS_12basic_stringIcNS_11char_traitsIcEENS_9allocatorIcEEEENS5_IS7_EEE16__destroy_vectorEE10__completeB8ue170006Ev, symObjAddr: 0x6764, symBinAddr: 0x1000222A4, symSize: 0x1C }
  - { offset: 0xF1871, size: 0x8, addend: 0x0, symName: __ZNSt3__128__exception_guard_exceptionsINS_6vectorINS_12basic_stringIcNS_11char_traitsIcEENS_9allocatorIcEEEENS5_IS7_EEE16__destroy_vectorEED1B8ue170006Ev, symObjAddr: 0x6780, symBinAddr: 0x1000222C0, symSize: 0x2C }
  - { offset: 0xF189B, size: 0x8, addend: 0x0, symName: __ZNSt3__117__compressed_pairIPNS_12basic_stringIcNS_11char_traitsIcEENS_9allocatorIcEEEENS4_IS6_EEEC2B8ue170006IDnNS_18__default_init_tagEEEOT_OT0_, symObjAddr: 0x67AC, symBinAddr: 0x1000222EC, symSize: 0x40 }
  - { offset: 0xF18F3, size: 0x8, addend: 0x0, symName: __ZNSt3__122__compressed_pair_elemIPNS_12basic_stringIcNS_11char_traitsIcEENS_9allocatorIcEEEELi0ELb0EEC2B8ue170006IDnvEEOT_, symObjAddr: 0x67EC, symBinAddr: 0x10002232C, symSize: 0x1C }
  - { offset: 0xF1935, size: 0x8, addend: 0x0, symName: __ZNSt3__122__compressed_pair_elemINS_9allocatorINS_12basic_stringIcNS_11char_traitsIcEENS1_IcEEEEEELi1ELb1EEC2B8ue170006ENS_18__default_init_tagE, symObjAddr: 0x6808, symBinAddr: 0x100022348, symSize: 0x2C }
  - { offset: 0xF1969, size: 0x8, addend: 0x0, symName: __ZNSt3__19allocatorINS_12basic_stringIcNS_11char_traitsIcEENS0_IcEEEEEC2B8ue170006Ev, symObjAddr: 0x6834, symBinAddr: 0x100022374, symSize: 0x2C }
  - { offset: 0xF1993, size: 0x8, addend: 0x0, symName: __ZNSt3__116__non_trivial_ifILb1ENS_9allocatorINS_12basic_stringIcNS_11char_traitsIcEENS1_IcEEEEEEEC2B8ue170006Ev, symObjAddr: 0x6860, symBinAddr: 0x1000223A0, symSize: 0x14 }
  - { offset: 0xF19BD, size: 0x8, addend: 0x0, symName: __ZNSt3__128__exception_guard_exceptionsINS_6vectorINS_12basic_stringIcNS_11char_traitsIcEENS_9allocatorIcEEEENS5_IS7_EEE16__destroy_vectorEEC1B8ue170006ESA_, symObjAddr: 0x6874, symBinAddr: 0x1000223B4, symSize: 0x34 }
  - { offset: 0xF19F5, size: 0x8, addend: 0x0, symName: __ZNSt3__128__exception_guard_exceptionsINS_6vectorINS_12basic_stringIcNS_11char_traitsIcEENS_9allocatorIcEEEENS5_IS7_EEE16__destroy_vectorEEC2B8ue170006ESA_, symObjAddr: 0x68A8, symBinAddr: 0x1000223E8, symSize: 0x24 }
  - { offset: 0xF1A2D, size: 0x8, addend: 0x0, symName: __ZNSt3__16vectorINS_12basic_stringIcNS_11char_traitsIcEENS_9allocatorIcEEEENS4_IS6_EEE16__destroy_vectorC2B8ue170006ERS8_, symObjAddr: 0x68CC, symBinAddr: 0x10002240C, symSize: 0x20 }
  - { offset: 0xF1A66, size: 0x8, addend: 0x0, symName: __ZNKSt3__16vectorINS_12basic_stringIcNS_11char_traitsIcEENS_9allocatorIcEEEENS4_IS6_EEE8max_sizeEv, symObjAddr: 0x68EC, symBinAddr: 0x10002242C, symSize: 0x60 }
  - { offset: 0xF1A8E, size: 0x8, addend: 0x0, symName: __ZNKSt3__16vectorINS_12basic_stringIcNS_11char_traitsIcEENS_9allocatorIcEEEENS4_IS6_EEE20__throw_length_errorB8ue170006Ev, symObjAddr: 0x694C, symBinAddr: 0x10002248C, symSize: 0x1C }
  - { offset: 0xF1AB4, size: 0x8, addend: 0x0, symName: __ZNSt3__16vectorINS_12basic_stringIcNS_11char_traitsIcEENS_9allocatorIcEEEENS4_IS6_EEE7__allocB8ue170006Ev, symObjAddr: 0x69A8, symBinAddr: 0x1000224E8, symSize: 0x28 }
  - { offset: 0xF1ADA, size: 0x8, addend: 0x0, symName: __ZNSt3__16vectorINS_12basic_stringIcNS_11char_traitsIcEENS_9allocatorIcEEEENS4_IS6_EEE9__end_capB8ue170006Ev, symObjAddr: 0x69D0, symBinAddr: 0x100022510, symSize: 0x28 }
  - { offset: 0xF1B00, size: 0x8, addend: 0x0, symName: __ZNKSt3__16vectorINS_12basic_stringIcNS_11char_traitsIcEENS_9allocatorIcEEEENS4_IS6_EEE14__annotate_newB8ue170006Em, symObjAddr: 0x69F8, symBinAddr: 0x100022538, symSize: 0xC8 }
  - { offset: 0xF1B40, size: 0x8, addend: 0x0, symName: __ZNSt3__116allocator_traitsINS_9allocatorINS_12basic_stringIcNS_11char_traitsIcEENS1_IcEEEEEEE8max_sizeB8ue170006IS7_vEEmRKS7_, symObjAddr: 0x6AC0, symBinAddr: 0x100022600, symSize: 0x24 }
  - { offset: 0xF1B6E, size: 0x8, addend: 0x0, symName: __ZNKSt3__16vectorINS_12basic_stringIcNS_11char_traitsIcEENS_9allocatorIcEEEENS4_IS6_EEE7__allocB8ue170006Ev, symObjAddr: 0x6AE4, symBinAddr: 0x100022624, symSize: 0x28 }
  - { offset: 0xF1B94, size: 0x8, addend: 0x0, symName: __ZNKSt3__19allocatorINS_12basic_stringIcNS_11char_traitsIcEENS0_IcEEEEE8max_sizeB8ue170006Ev, symObjAddr: 0x6B0C, symBinAddr: 0x10002264C, symSize: 0x18 }
  - { offset: 0xF1BBA, size: 0x8, addend: 0x0, symName: __ZNKSt3__117__compressed_pairIPNS_12basic_stringIcNS_11char_traitsIcEENS_9allocatorIcEEEENS4_IS6_EEE6secondB8ue170006Ev, symObjAddr: 0x6B24, symBinAddr: 0x100022664, symSize: 0x24 }
  - { offset: 0xF1BE0, size: 0x8, addend: 0x0, symName: __ZNKSt3__122__compressed_pair_elemINS_9allocatorINS_12basic_stringIcNS_11char_traitsIcEENS1_IcEEEEEELi1ELb1EE5__getB8ue170006Ev, symObjAddr: 0x6B48, symBinAddr: 0x100022688, symSize: 0x14 }
  - { offset: 0xF1C06, size: 0x8, addend: 0x0, symName: __ZNSt3__19allocatorINS_12basic_stringIcNS_11char_traitsIcEENS0_IcEEEEE8allocateB8ue170006Em, symObjAddr: 0x6B5C, symBinAddr: 0x10002269C, symSize: 0x5C }
  - { offset: 0xF1C3A, size: 0x8, addend: 0x0, symName: __ZNSt3__117__compressed_pairIPNS_12basic_stringIcNS_11char_traitsIcEENS_9allocatorIcEEEENS4_IS6_EEE6secondB8ue170006Ev, symObjAddr: 0x6BB8, symBinAddr: 0x1000226F8, symSize: 0x24 }
  - { offset: 0xF1C60, size: 0x8, addend: 0x0, symName: __ZNSt3__122__compressed_pair_elemINS_9allocatorINS_12basic_stringIcNS_11char_traitsIcEENS1_IcEEEEEELi1ELb1EE5__getB8ue170006Ev, symObjAddr: 0x6BDC, symBinAddr: 0x10002271C, symSize: 0x14 }
  - { offset: 0xF1C86, size: 0x8, addend: 0x0, symName: __ZNSt3__117__compressed_pairIPNS_12basic_stringIcNS_11char_traitsIcEENS_9allocatorIcEEEENS4_IS6_EEE5firstB8ue170006Ev, symObjAddr: 0x6BF0, symBinAddr: 0x100022730, symSize: 0x24 }
  - { offset: 0xF1CAC, size: 0x8, addend: 0x0, symName: __ZNSt3__122__compressed_pair_elemIPNS_12basic_stringIcNS_11char_traitsIcEENS_9allocatorIcEEEELi0ELb0EE5__getB8ue170006Ev, symObjAddr: 0x6C14, symBinAddr: 0x100022754, symSize: 0x14 }
  - { offset: 0xF1CD2, size: 0x8, addend: 0x0, symName: __ZNKSt3__16vectorINS_12basic_stringIcNS_11char_traitsIcEENS_9allocatorIcEEEENS4_IS6_EEE31__annotate_contiguous_containerB8ue170006EPKvSA_SA_SA_, symObjAddr: 0x6C28, symBinAddr: 0x100022768, symSize: 0x20 }
  - { offset: 0xF1D24, size: 0x8, addend: 0x0, symName: __ZNKSt3__16vectorINS_12basic_stringIcNS_11char_traitsIcEENS_9allocatorIcEEEENS4_IS6_EEE4dataB8ue170006Ev, symObjAddr: 0x6C48, symBinAddr: 0x100022788, symSize: 0x28 }
  - { offset: 0xF1D4A, size: 0x8, addend: 0x0, symName: __ZNKSt3__16vectorINS_12basic_stringIcNS_11char_traitsIcEENS_9allocatorIcEEEENS4_IS6_EEE8capacityB8ue170006Ev, symObjAddr: 0x6C70, symBinAddr: 0x1000227B0, symSize: 0x40 }
  - { offset: 0xF1D70, size: 0x8, addend: 0x0, symName: __ZNKSt3__16vectorINS_12basic_stringIcNS_11char_traitsIcEENS_9allocatorIcEEEENS4_IS6_EEE9__end_capB8ue170006Ev, symObjAddr: 0x6CC4, symBinAddr: 0x100022804, symSize: 0x28 }
  - { offset: 0xF1D96, size: 0x8, addend: 0x0, symName: __ZNKSt3__117__compressed_pairIPNS_12basic_stringIcNS_11char_traitsIcEENS_9allocatorIcEEEENS4_IS6_EEE5firstB8ue170006Ev, symObjAddr: 0x6CEC, symBinAddr: 0x10002282C, symSize: 0x24 }
  - { offset: 0xF1DBC, size: 0x8, addend: 0x0, symName: __ZNKSt3__122__compressed_pair_elemIPNS_12basic_stringIcNS_11char_traitsIcEENS_9allocatorIcEEEELi0ELb0EE5__getB8ue170006Ev, symObjAddr: 0x6D10, symBinAddr: 0x100022850, symSize: 0x14 }
  - { offset: 0xF1DFD, size: 0x8, addend: 0x0, symName: __ZNSt3__16vectorINS_12basic_stringIcNS_11char_traitsIcEENS_9allocatorIcEEEENS4_IS6_EEE21_ConstructTransactionC1B8ue170006ERS8_m, symObjAddr: 0x6D24, symBinAddr: 0x100022864, symSize: 0x3C }
  - { offset: 0xF1E45, size: 0x8, addend: 0x0, symName: __ZNSt3__16vectorINS_12basic_stringIcNS_11char_traitsIcEENS_9allocatorIcEEEENS4_IS6_EEE21_ConstructTransactionD1B8ue170006Ev, symObjAddr: 0x6DE0, symBinAddr: 0x100022920, symSize: 0x2C }
  - { offset: 0xF1E6F, size: 0x8, addend: 0x0, symName: __ZNSt3__16vectorINS_12basic_stringIcNS_11char_traitsIcEENS_9allocatorIcEEEENS4_IS6_EEE21_ConstructTransactionC2B8ue170006ERS8_m, symObjAddr: 0x6E0C, symBinAddr: 0x10002294C, symSize: 0x4C }
  - { offset: 0xF1ED9, size: 0x8, addend: 0x0, symName: __ZNSt3__14pairIPKNS_12basic_stringIcNS_11char_traitsIcEENS_9allocatorIcEEEES8_EC1B8ue170006IS8_S8_LPv0EEEOT_OT0_, symObjAddr: 0x7068, symBinAddr: 0x100022BA8, symSize: 0x3C }
  - { offset: 0xF1F37, size: 0x8, addend: 0x0, symName: __ZNSt3__14pairIPKNS_12basic_stringIcNS_11char_traitsIcEENS_9allocatorIcEEEES8_EC2B8ue170006IS8_S8_LPv0EEEOT_OT0_, symObjAddr: 0x70A4, symBinAddr: 0x100022BE4, symSize: 0x34 }
  - { offset: 0xF1F95, size: 0x8, addend: 0x0, symName: __ZNSt3__118__unwrap_iter_implIPKNS_12basic_stringIcNS_11char_traitsIcEENS_9allocatorIcEEEELb1EE8__unwrapB8ue170006ES8_, symObjAddr: 0x70D8, symBinAddr: 0x100022C18, symSize: 0x24 }
  - { offset: 0xF1FB8, size: 0x8, addend: 0x0, symName: __ZNSt3__129_AllocatorDestroyRangeReverseINS_9allocatorINS_12basic_stringIcNS_11char_traitsIcEENS1_IcEEEEEEPS6_EC1B8ue170006ERS7_RS8_SB_, symObjAddr: 0x715C, symBinAddr: 0x100022C9C, symSize: 0x44 }
  - { offset: 0xF200F, size: 0x8, addend: 0x0, symName: __ZNSt3__116allocator_traitsINS_9allocatorINS_12basic_stringIcNS_11char_traitsIcEENS1_IcEEEEEEE9constructB8ue170006IS6_JRKS6_EvEEvRS7_PT_DpOT0_, symObjAddr: 0x71A0, symBinAddr: 0x100022CE0, symSize: 0x34 }
  - { offset: 0xF2066, size: 0x8, addend: 0x0, symName: __ZNSt3__128__exception_guard_exceptionsINS_29_AllocatorDestroyRangeReverseINS_9allocatorINS_12basic_stringIcNS_11char_traitsIcEENS2_IcEEEEEEPS7_EEE10__completeB8ue170006Ev, symObjAddr: 0x71D4, symBinAddr: 0x100022D14, symSize: 0x1C }
  - { offset: 0xF208C, size: 0x8, addend: 0x0, symName: __ZNSt3__128__exception_guard_exceptionsINS_29_AllocatorDestroyRangeReverseINS_9allocatorINS_12basic_stringIcNS_11char_traitsIcEENS2_IcEEEEEEPS7_EEED1B8ue170006Ev, symObjAddr: 0x71F0, symBinAddr: 0x100022D30, symSize: 0x2C }
  - { offset: 0xF20B6, size: 0x8, addend: 0x0, symName: __ZNSt3__128__exception_guard_exceptionsINS_29_AllocatorDestroyRangeReverseINS_9allocatorINS_12basic_stringIcNS_11char_traitsIcEENS2_IcEEEEEEPS7_EEEC1B8ue170006ESA_, symObjAddr: 0x721C, symBinAddr: 0x100022D5C, symSize: 0x34 }
  - { offset: 0xF20EF, size: 0x8, addend: 0x0, symName: __ZNSt3__128__exception_guard_exceptionsINS_29_AllocatorDestroyRangeReverseINS_9allocatorINS_12basic_stringIcNS_11char_traitsIcEENS2_IcEEEEEEPS7_EEEC2B8ue170006ESA_, symObjAddr: 0x7250, symBinAddr: 0x100022D90, symSize: 0x30 }
  - { offset: 0xF2128, size: 0x8, addend: 0x0, symName: __ZNSt3__129_AllocatorDestroyRangeReverseINS_9allocatorINS_12basic_stringIcNS_11char_traitsIcEENS1_IcEEEEEEPS6_EC2B8ue170006ERS7_RS8_SB_, symObjAddr: 0x7280, symBinAddr: 0x100022DC0, symSize: 0x38 }
  - { offset: 0xF217F, size: 0x8, addend: 0x0, symName: __ZNSt3__19allocatorINS_12basic_stringIcNS_11char_traitsIcEENS0_IcEEEEE9constructB8ue170006IS5_JRKS5_EEEvPT_DpOT0_, symObjAddr: 0x72B8, symBinAddr: 0x100022DF8, symSize: 0x30 }
  - { offset: 0xF21D5, size: 0x8, addend: 0x0, symName: __ZNSt3__128__exception_guard_exceptionsINS_29_AllocatorDestroyRangeReverseINS_9allocatorINS_12basic_stringIcNS_11char_traitsIcEENS2_IcEEEEEEPS7_EEED2B8ue170006Ev, symObjAddr: 0x72E8, symBinAddr: 0x100022E28, symSize: 0x50 }
  - { offset: 0xF21FF, size: 0x8, addend: 0x0, symName: __ZNKSt3__129_AllocatorDestroyRangeReverseINS_9allocatorINS_12basic_stringIcNS_11char_traitsIcEENS1_IcEEEEEEPS6_EclB8ue170006Ev, symObjAddr: 0x7338, symBinAddr: 0x100022E78, symSize: 0x68 }
  - { offset: 0xF2225, size: 0x8, addend: 0x0, symName: __ZNSt3__116reverse_iteratorIPNS_12basic_stringIcNS_11char_traitsIcEENS_9allocatorIcEEEEEC1B8ue170006ES7_, symObjAddr: 0x7410, symBinAddr: 0x100022F50, symSize: 0x34 }
  - { offset: 0xF225D, size: 0x8, addend: 0x0, symName: __ZNSt3__116allocator_traitsINS_9allocatorINS_12basic_stringIcNS_11char_traitsIcEENS1_IcEEEEEEE7destroyB8ue170006IS6_vEEvRS7_PT_, symObjAddr: 0x748C, symBinAddr: 0x100022FCC, symSize: 0x2C }
  - { offset: 0xF229A, size: 0x8, addend: 0x0, symName: __ZNSt3__116reverse_iteratorIPNS_12basic_stringIcNS_11char_traitsIcEENS_9allocatorIcEEEEEppB8ue170006Ev, symObjAddr: 0x74DC, symBinAddr: 0x10002301C, symSize: 0x20 }
  - { offset: 0xF22C0, size: 0x8, addend: 0x0, symName: __ZNKSt3__116reverse_iteratorIPNS_12basic_stringIcNS_11char_traitsIcEENS_9allocatorIcEEEEE4baseB8ue170006Ev, symObjAddr: 0x74FC, symBinAddr: 0x10002303C, symSize: 0x18 }
  - { offset: 0xF22E6, size: 0x8, addend: 0x0, symName: __ZNSt3__19allocatorINS_12basic_stringIcNS_11char_traitsIcEENS0_IcEEEEE7destroyB8ue170006EPS5_, symObjAddr: 0x7514, symBinAddr: 0x100023054, symSize: 0x28 }
  - { offset: 0xF2320, size: 0x8, addend: 0x0, symName: __ZNSt3__119__to_address_helperINS_16reverse_iteratorIPNS_12basic_stringIcNS_11char_traitsIcEENS_9allocatorIcEEEEEEvE6__callB8ue170006ERKS9_, symObjAddr: 0x753C, symBinAddr: 0x10002307C, symSize: 0x38 }
  - { offset: 0xF2343, size: 0x8, addend: 0x0, symName: __ZNKSt3__116reverse_iteratorIPNS_12basic_stringIcNS_11char_traitsIcEENS_9allocatorIcEEEEEptB8ue170006Ev, symObjAddr: 0x7574, symBinAddr: 0x1000230B4, symSize: 0x24 }
  - { offset: 0xF2369, size: 0x8, addend: 0x0, symName: __ZNKSt3__116reverse_iteratorIPNS_12basic_stringIcNS_11char_traitsIcEENS_9allocatorIcEEEEEdeB8ue170006Ev, symObjAddr: 0x7598, symBinAddr: 0x1000230D8, symSize: 0x28 }
  - { offset: 0xF239D, size: 0x8, addend: 0x0, symName: __ZNSt3__116reverse_iteratorIPNS_12basic_stringIcNS_11char_traitsIcEENS_9allocatorIcEEEEEC2B8ue170006ES7_, symObjAddr: 0x75C0, symBinAddr: 0x100023100, symSize: 0x28 }
  - { offset: 0xF23D5, size: 0x8, addend: 0x0, symName: __ZNSt3__118__unwrap_iter_implIPNS_12basic_stringIcNS_11char_traitsIcEENS_9allocatorIcEEEELb1EE8__unwrapB8ue170006ES7_, symObjAddr: 0x75E8, symBinAddr: 0x100023128, symSize: 0x24 }
  - { offset: 0xF23F8, size: 0x8, addend: 0x0, symName: __ZNSt3__118__unwrap_iter_implIPNS_12basic_stringIcNS_11char_traitsIcEENS_9allocatorIcEEEELb1EE8__rewrapB8ue170006ES7_S7_, symObjAddr: 0x760C, symBinAddr: 0x10002314C, symSize: 0x58 }
  - { offset: 0xF2429, size: 0x8, addend: 0x0, symName: __ZNSt3__16vectorINS_12basic_stringIcNS_11char_traitsIcEENS_9allocatorIcEEEENS4_IS6_EEE21_ConstructTransactionD2B8ue170006Ev, symObjAddr: 0x7664, symBinAddr: 0x1000231A4, symSize: 0x20 }
  - { offset: 0xF2453, size: 0x8, addend: 0x0, symName: __ZNSt3__128__exception_guard_exceptionsINS_6vectorINS_12basic_stringIcNS_11char_traitsIcEENS_9allocatorIcEEEENS5_IS7_EEE16__destroy_vectorEED2B8ue170006Ev, symObjAddr: 0x7684, symBinAddr: 0x1000231C4, symSize: 0x50 }
  - { offset: 0xF247D, size: 0x8, addend: 0x0, symName: __ZNSt3__16vectorINS_12basic_stringIcNS_11char_traitsIcEENS_9allocatorIcEEEENS4_IS6_EEE16__destroy_vectorclB8ue170006Ev, symObjAddr: 0x76D4, symBinAddr: 0x100023214, symSize: 0x90 }
  - { offset: 0xF24A3, size: 0x8, addend: 0x0, symName: __ZNSt3__16vectorINS_12basic_stringIcNS_11char_traitsIcEENS_9allocatorIcEEEENS4_IS6_EEE7__clearB8ue170006Ev, symObjAddr: 0x7764, symBinAddr: 0x1000232A4, symSize: 0x28 }
  - { offset: 0xF24C9, size: 0x8, addend: 0x0, symName: __ZNKSt3__16vectorINS_12basic_stringIcNS_11char_traitsIcEENS_9allocatorIcEEEENS4_IS6_EEE17__annotate_deleteB8ue170006Ev, symObjAddr: 0x778C, symBinAddr: 0x1000232CC, symSize: 0xD4 }
  - { offset: 0xF24EF, size: 0x8, addend: 0x0, symName: __ZNSt3__116allocator_traitsINS_9allocatorINS_12basic_stringIcNS_11char_traitsIcEENS1_IcEEEEEEE10deallocateB8ue170006ERS7_PS6_m, symObjAddr: 0x7860, symBinAddr: 0x1000233A0, symSize: 0x34 }
  - { offset: 0xF2531, size: 0x8, addend: 0x0, symName: __ZNSt3__16vectorINS_12basic_stringIcNS_11char_traitsIcEENS_9allocatorIcEEEENS4_IS6_EEE22__base_destruct_at_endB8ue170006EPS6_, symObjAddr: 0x7894, symBinAddr: 0x1000233D4, symSize: 0x8C }
  - { offset: 0xF2575, size: 0x8, addend: 0x0, symName: __ZNKSt3__16vectorINS_12basic_stringIcNS_11char_traitsIcEENS_9allocatorIcEEEENS4_IS6_EEE4sizeB8ue170006Ev, symObjAddr: 0x7920, symBinAddr: 0x100023460, symSize: 0x28 }
  - { offset: 0xF259B, size: 0x8, addend: 0x0, symName: __ZNSt3__19allocatorINS_12basic_stringIcNS_11char_traitsIcEENS0_IcEEEEE10deallocateB8ue170006EPS5_m, symObjAddr: 0x7948, symBinAddr: 0x100023488, symSize: 0x44 }
  - { offset: 0xF25DD, size: 0x8, addend: 0x0, symName: __ZNSt3__16vectorINS_12basic_stringIcNS_11char_traitsIcEENS_9allocatorIcEEEENS4_IS6_EEED2B8ue170006Ev, symObjAddr: 0x798C, symBinAddr: 0x1000234CC, symSize: 0x40 }
  - { offset: 0xF2607, size: 0x8, addend: 0x0, symName: __ZNKSt3__16vectorINS_12basic_stringIcNS_11char_traitsIcEENS_9allocatorIcEEEENS4_IS6_EEE11__make_iterB8ue170006EPKS6_, symObjAddr: 0x79CC, symBinAddr: 0x10002350C, symSize: 0x30 }
  - { offset: 0xF263C, size: 0x8, addend: 0x0, symName: __ZNSt3__111__wrap_iterIPKNS_12basic_stringIcNS_11char_traitsIcEENS_9allocatorIcEEEEEC1B8ue170006ES8_, symObjAddr: 0x79FC, symBinAddr: 0x10002353C, symSize: 0x34 }
  - { offset: 0xF2674, size: 0x8, addend: 0x0, symName: __ZNSt3__111__wrap_iterIPKNS_12basic_stringIcNS_11char_traitsIcEENS_9allocatorIcEEEEEC2B8ue170006ES8_, symObjAddr: 0x7A30, symBinAddr: 0x100023570, symSize: 0x20 }
  - { offset: 0xF26AC, size: 0x8, addend: 0x0, symName: __ZNSt3__14__fs10filesystem4pathC2B8ue170006INS_12basic_stringIcNS_11char_traitsIcEENS_9allocatorIcEEEEvEERKT_NS2_6formatE, symObjAddr: 0x7A50, symBinAddr: 0x100023590, symSize: 0x68 }
  - { offset: 0xF2700, size: 0x8, addend: 0x0, symName: __ZNSt3__14__fs10filesystem8_PathCVTIcE15__append_sourceB8ue170006INS_12basic_stringIcNS_11char_traitsIcEENS_9allocatorIcEEEEEEvRSA_RKT_, symObjAddr: 0x7AB8, symBinAddr: 0x1000235F8, symSize: 0x4C }
  - { offset: 0xF273C, size: 0x8, addend: 0x0, symName: __ZNSt3__14__fs10filesystem8_PathCVTIcE14__append_rangeB8ue170006IPKcEENS_9enable_ifIXsr31__has_forward_iterator_categoryIT_EE5valueEvE4typeERNS_12basic_stringIcNS_11char_traitsIcEENS_9allocatorIcEEEES8_S8_, symObjAddr: 0x7B04, symBinAddr: 0x100023644, symSize: 0x34 }
  - { offset: 0xF2792, size: 0x8, addend: 0x0, symName: __ZNSt3__14__fs10filesystem20__is_pathable_stringINS_12basic_stringIcNS_11char_traitsIcEENS_9allocatorIcEEEEvE13__range_beginB8ue170006ERKS8_, symObjAddr: 0x7B38, symBinAddr: 0x100023678, symSize: 0x24 }
  - { offset: 0xF27B5, size: 0x8, addend: 0x0, symName: __ZNSt3__14__fs10filesystem20__is_pathable_stringINS_12basic_stringIcNS_11char_traitsIcEENS_9allocatorIcEEEEvE11__range_endB8ue170006ERKS8_, symObjAddr: 0x7B5C, symBinAddr: 0x10002369C, symSize: 0x3C }
  - { offset: 0xF27D8, size: 0x8, addend: 0x0, symName: __ZNSt3__112basic_stringIcNS_11char_traitsIcEENS_9allocatorIcEEE6appendB8ue170006IPKcLi0EEERS5_T_SA_, symObjAddr: 0x7B98, symBinAddr: 0x1000236D8, symSize: 0x1E4 }
  - { offset: 0xF288C, size: 0x8, addend: 0x0, symName: __ZNKSt3__112basic_stringIcNS_11char_traitsIcEENS_9allocatorIcEEE8capacityB8ue170006Ev, symObjAddr: 0x7D7C, symBinAddr: 0x1000238BC, symSize: 0x54 }
  - { offset: 0xF28B2, size: 0x8, addend: 0x0, symName: __ZNKSt3__112basic_stringIcNS_11char_traitsIcEENS_9allocatorIcEEE15__addr_in_rangeB8ue170006IcEEbRKT_, symObjAddr: 0x7DFC, symBinAddr: 0x10002393C, symSize: 0x6C }
  - { offset: 0xF28F0, size: 0x8, addend: 0x0, symName: __ZNSt3__112basic_stringIcNS_11char_traitsIcEENS_9allocatorIcEEE25__grow_by_without_replaceB8ue170006Emmmmmm, symObjAddr: 0x7E68, symBinAddr: 0x1000239A8, symSize: 0x74 }
  - { offset: 0xF2972, size: 0x8, addend: 0x0, symName: __ZNSt3__112basic_stringIcNS_11char_traitsIcEENS_9allocatorIcEEE10__set_sizeB8ue170006Em, symObjAddr: 0x7F00, symBinAddr: 0x100023A1C, symSize: 0x54 }
  - { offset: 0xF29A7, size: 0x8, addend: 0x0, symName: __ZNSt3__112basic_stringIcNS_11char_traitsIcEENS_9allocatorIcEEEC1B8ue170006IPKcLi0EEET_S9_RKS4_, symObjAddr: 0x7F78, symBinAddr: 0x100023A70, symSize: 0x44 }
  - { offset: 0xF2A18, size: 0x8, addend: 0x0, symName: __ZNKSt3__16__lessIvvEclB8ue170006IPKcS4_EEbRKT_RKT0_, symObjAddr: 0x8074, symBinAddr: 0x100023B3C, symSize: 0x34 }
  - { offset: 0xF2A6C, size: 0x8, addend: 0x0, symName: __ZNSt3__112basic_stringIcNS_11char_traitsIcEENS_9allocatorIcEEE15__set_long_sizeB8ue170006Em, symObjAddr: 0x80A8, symBinAddr: 0x100023B70, symSize: 0x38 }
  - { offset: 0xF2AA1, size: 0x8, addend: 0x0, symName: __ZNSt3__112basic_stringIcNS_11char_traitsIcEENS_9allocatorIcEEEC2B8ue170006IPKcLi0EEET_S9_RKS4_, symObjAddr: 0x8190, symBinAddr: 0x100023BA8, symSize: 0x50 }
  - { offset: 0xF2B07, size: 0x8, addend: 0x0, symName: __ZNSt3__117__compressed_pairINS_12basic_stringIcNS_11char_traitsIcEENS_9allocatorIcEEE5__repES5_EC1B8ue170006INS_18__default_init_tagERKS5_EEOT_OT0_, symObjAddr: 0x81E0, symBinAddr: 0x100023BF8, symSize: 0x3C }
  - { offset: 0xF2B5F, size: 0x8, addend: 0x0, symName: __ZNSt3__112basic_stringIcNS_11char_traitsIcEENS_9allocatorIcEEE6__initIPKcLi0EEEvT_S9_, symObjAddr: 0x821C, symBinAddr: 0x100023C34, symSize: 0x54 }
  - { offset: 0xF2BC3, size: 0x8, addend: 0x0, symName: __ZNSt3__117__compressed_pairINS_12basic_stringIcNS_11char_traitsIcEENS_9allocatorIcEEE5__repES5_EC2B8ue170006INS_18__default_init_tagERKS5_EEOT_OT0_, symObjAddr: 0x8270, symBinAddr: 0x100023C88, symSize: 0x40 }
  - { offset: 0xF2C1B, size: 0x8, addend: 0x0, symName: __ZNSt3__122__compressed_pair_elemINS_9allocatorIcEELi1ELb1EEC2B8ue170006IRKS2_vEEOT_, symObjAddr: 0x82B0, symBinAddr: 0x100023CC8, symSize: 0x18 }
  - { offset: 0xF2C5D, size: 0x8, addend: 0x0, symName: __ZNSt3__112basic_stringIcNS_11char_traitsIcEENS_9allocatorIcEEE16__init_with_sizeB8ue170006IPKcS8_EEvT_T0_m, symObjAddr: 0x82C8, symBinAddr: 0x100023CE0, symSize: 0x144 }
  - { offset: 0xF2CF0, size: 0x8, addend: 0x0, symName: __ZNKSt3__112basic_stringIcNS_11char_traitsIcEENS_9allocatorIcEEE8max_sizeB8ue170006Ev, symObjAddr: 0x840C, symBinAddr: 0x100023E24, symSize: 0xAC }
  - { offset: 0xF2D42, size: 0x8, addend: 0x0, symName: __ZNKSt3__112basic_stringIcNS_11char_traitsIcEENS_9allocatorIcEEE20__throw_length_errorB8ue170006Ev, symObjAddr: 0x84B8, symBinAddr: 0x100023ED0, symSize: 0x1C }
  - { offset: 0xF2D68, size: 0x8, addend: 0x0, symName: __ZNSt3__112basic_stringIcNS_11char_traitsIcEENS_9allocatorIcEEE13__fits_in_ssoB8ue170006Em, symObjAddr: 0x84D4, symBinAddr: 0x100023EEC, symSize: 0x20 }
  - { offset: 0xF2D8C, size: 0x8, addend: 0x0, symName: __ZNSt3__112basic_stringIcNS_11char_traitsIcEENS_9allocatorIcEEE11__recommendB8ue170006Em, symObjAddr: 0x8534, symBinAddr: 0x100023F4C, symSize: 0x84 }
  - { offset: 0xF2DBF, size: 0x8, addend: 0x0, symName: __ZNSt3__112basic_stringIcNS_11char_traitsIcEENS_9allocatorIcEEE16__begin_lifetimeB8ue170006EPcm, symObjAddr: 0x85B8, symBinAddr: 0x100023FD0, symSize: 0x14 }
  - { offset: 0xF2DF2, size: 0x8, addend: 0x0, symName: __ZNSt3__112basic_stringIcNS_11char_traitsIcEENS_9allocatorIcEEE18__set_long_pointerB8ue170006EPc, symObjAddr: 0x85CC, symBinAddr: 0x100023FE4, symSize: 0x38 }
  - { offset: 0xF2E27, size: 0x8, addend: 0x0, symName: __ZNSt3__112basic_stringIcNS_11char_traitsIcEENS_9allocatorIcEEE14__set_long_capB8ue170006Em, symObjAddr: 0x8604, symBinAddr: 0x10002401C, symSize: 0x70 }
  - { offset: 0xF2E67, size: 0x8, addend: 0x0, symName: __ZNSt3__116allocator_traitsINS_9allocatorIcEEE8max_sizeB8ue170006IS2_vEEmRKS2_, symObjAddr: 0x8674, symBinAddr: 0x10002408C, symSize: 0x24 }
  - { offset: 0xF2E95, size: 0x8, addend: 0x0, symName: __ZNKSt3__112basic_stringIcNS_11char_traitsIcEENS_9allocatorIcEEE7__allocB8ue170006Ev, symObjAddr: 0x8698, symBinAddr: 0x1000240B0, symSize: 0x24 }
  - { offset: 0xF2EBB, size: 0x8, addend: 0x0, symName: __ZNKSt3__19allocatorIcE8max_sizeB8ue170006Ev, symObjAddr: 0x86D0, symBinAddr: 0x1000240D4, symSize: 0x14 }
  - { offset: 0xF2EE1, size: 0x8, addend: 0x0, symName: __ZNKSt3__117__compressed_pairINS_12basic_stringIcNS_11char_traitsIcEENS_9allocatorIcEEE5__repES5_E6secondB8ue170006Ev, symObjAddr: 0x86E4, symBinAddr: 0x1000240E8, symSize: 0x24 }
  - { offset: 0xF2F07, size: 0x8, addend: 0x0, symName: __ZNKSt3__122__compressed_pair_elemINS_9allocatorIcEELi1ELb1EE5__getB8ue170006Ev, symObjAddr: 0x8708, symBinAddr: 0x10002410C, symSize: 0x14 }
  - { offset: 0xF2F2D, size: 0x8, addend: 0x0, symName: __ZNSt3__19allocatorIcE8allocateB8ue170006Em, symObjAddr: 0x8724, symBinAddr: 0x100024120, symSize: 0x58 }
  - { offset: 0xF2F61, size: 0x8, addend: 0x0, symName: __ZNSt3__112basic_stringIcNS_11char_traitsIcEENS_9allocatorIcEEE10__align_itB8ue170006ILm16EEEmm, symObjAddr: 0x877C, symBinAddr: 0x100024178, symSize: 0x1C }
  - { offset: 0xF2F8F, size: 0x8, addend: 0x0, symName: __ZNKSt3__112basic_stringIcNS_11char_traitsIcEENS_9allocatorIcEEE6lengthB8ue170006Ev, symObjAddr: 0x8798, symBinAddr: 0x100024194, symSize: 0x24 }
  - { offset: 0xF2FB5, size: 0x8, addend: 0x0, symName: __ZNSt3__110unique_ptrI13GameSetupViewNS_14default_deleteIS1_EEEC1B8ue170006ILb1EvEEPS1_, symObjAddr: 0x87BC, symBinAddr: 0x1000241B8, symSize: 0x34 }
  - { offset: 0xF2FF8, size: 0x8, addend: 0x0, symName: __ZNSt3__110unique_ptrI13GameSetupViewNS_14default_deleteIS1_EEEC2B8ue170006ILb1EvEEPS1_, symObjAddr: 0x87F0, symBinAddr: 0x1000241EC, symSize: 0x44 }
  - { offset: 0xF303B, size: 0x8, addend: 0x0, symName: __ZNSt3__117__compressed_pairIP13GameSetupViewNS_14default_deleteIS1_EEEC1B8ue170006IRS2_NS_16__value_init_tagEEEOT_OT0_, symObjAddr: 0x8834, symBinAddr: 0x100024230, symSize: 0x3C }
  - { offset: 0xF3093, size: 0x8, addend: 0x0, symName: __ZNSt3__117__compressed_pairIP13GameSetupViewNS_14default_deleteIS1_EEEC2B8ue170006IRS2_NS_16__value_init_tagEEEOT_OT0_, symObjAddr: 0x8870, symBinAddr: 0x10002426C, symSize: 0x40 }
  - { offset: 0xF30EB, size: 0x8, addend: 0x0, symName: __ZNSt3__122__compressed_pair_elemIP13GameSetupViewLi0ELb0EEC2B8ue170006IRS2_vEEOT_, symObjAddr: 0x88B0, symBinAddr: 0x1000242AC, symSize: 0x24 }
  - { offset: 0xF312D, size: 0x8, addend: 0x0, symName: __ZNSt3__110unique_ptrI13GameSetupViewNS_14default_deleteIS1_EEE7releaseB8ue170006Ev, symObjAddr: 0x88D4, symBinAddr: 0x1000242D0, symSize: 0x44 }
  - { offset: 0xF3162, size: 0x8, addend: 0x0, symName: __ZNSt3__110unique_ptrI13GameSetupViewNS_14default_deleteIS1_EEE11get_deleterB8ue170006Ev, symObjAddr: 0x8918, symBinAddr: 0x100024314, symSize: 0x24 }
  - { offset: 0xF3188, size: 0x8, addend: 0x0, symName: __ZNSt3__110unique_ptrI8MapSetupNS_14default_deleteIS1_EEEC1B8ue170006ILb1EvEEPS1_, symObjAddr: 0x893C, symBinAddr: 0x100024338, symSize: 0x34 }
  - { offset: 0xF31CB, size: 0x8, addend: 0x0, symName: __ZNSt3__110unique_ptrI8MapSetupNS_14default_deleteIS1_EEEC2B8ue170006ILb1EvEEPS1_, symObjAddr: 0x8970, symBinAddr: 0x10002436C, symSize: 0x44 }
  - { offset: 0xF320E, size: 0x8, addend: 0x0, symName: __ZNSt3__117__compressed_pairIP8MapSetupNS_14default_deleteIS1_EEEC1B8ue170006IRS2_NS_16__value_init_tagEEEOT_OT0_, symObjAddr: 0x89B4, symBinAddr: 0x1000243B0, symSize: 0x3C }
  - { offset: 0xF3266, size: 0x8, addend: 0x0, symName: __ZNSt3__117__compressed_pairIP8MapSetupNS_14default_deleteIS1_EEEC2B8ue170006IRS2_NS_16__value_init_tagEEEOT_OT0_, symObjAddr: 0x89F0, symBinAddr: 0x1000243EC, symSize: 0x40 }
  - { offset: 0xF32BE, size: 0x8, addend: 0x0, symName: __ZNSt3__122__compressed_pair_elemIP8MapSetupLi0ELb0EEC2B8ue170006IRS2_vEEOT_, symObjAddr: 0x8A30, symBinAddr: 0x10002442C, symSize: 0x24 }
  - { offset: 0xF3300, size: 0x8, addend: 0x0, symName: __ZNSt3__110unique_ptrI8MapSetupNS_14default_deleteIS1_EEE7releaseB8ue170006Ev, symObjAddr: 0x8A54, symBinAddr: 0x100024450, symSize: 0x44 }
  - { offset: 0xF3335, size: 0x8, addend: 0x0, symName: __ZNSt3__110unique_ptrI8MapSetupNS_14default_deleteIS1_EEE11get_deleterB8ue170006Ev, symObjAddr: 0x8A98, symBinAddr: 0x100024494, symSize: 0x24 }
  - { offset: 0xF335B, size: 0x8, addend: 0x0, symName: __ZNSt3__110unique_ptrI12MapSetupViewNS_14default_deleteIS1_EEEC1B8ue170006ILb1EvEEPS1_, symObjAddr: 0x8ABC, symBinAddr: 0x1000244B8, symSize: 0x34 }
  - { offset: 0xF339E, size: 0x8, addend: 0x0, symName: __ZNSt3__110unique_ptrI12MapSetupViewNS_14default_deleteIS1_EEEC2B8ue170006ILb1EvEEPS1_, symObjAddr: 0x8AF0, symBinAddr: 0x1000244EC, symSize: 0x44 }
  - { offset: 0xF33E1, size: 0x8, addend: 0x0, symName: __ZNSt3__117__compressed_pairIP12MapSetupViewNS_14default_deleteIS1_EEEC1B8ue170006IRS2_NS_16__value_init_tagEEEOT_OT0_, symObjAddr: 0x8B34, symBinAddr: 0x100024530, symSize: 0x3C }
  - { offset: 0xF3439, size: 0x8, addend: 0x0, symName: __ZNSt3__117__compressed_pairIP12MapSetupViewNS_14default_deleteIS1_EEEC2B8ue170006IRS2_NS_16__value_init_tagEEEOT_OT0_, symObjAddr: 0x8B70, symBinAddr: 0x10002456C, symSize: 0x40 }
  - { offset: 0xF3491, size: 0x8, addend: 0x0, symName: __ZNSt3__122__compressed_pair_elemIP12MapSetupViewLi0ELb0EEC2B8ue170006IRS2_vEEOT_, symObjAddr: 0x8BB0, symBinAddr: 0x1000245AC, symSize: 0x24 }
  - { offset: 0xF34D3, size: 0x8, addend: 0x0, symName: __ZNSt3__110unique_ptrI12MapSetupViewNS_14default_deleteIS1_EEE7releaseB8ue170006Ev, symObjAddr: 0x8BD4, symBinAddr: 0x1000245D0, symSize: 0x44 }
  - { offset: 0xF3508, size: 0x8, addend: 0x0, symName: __ZNSt3__110unique_ptrI12MapSetupViewNS_14default_deleteIS1_EEE11get_deleterB8ue170006Ev, symObjAddr: 0x8C18, symBinAddr: 0x100024614, symSize: 0x24 }
  - { offset: 0xF352E, size: 0x8, addend: 0x0, symName: __ZNSt3__110unique_ptrI6InfoUINS_14default_deleteIS1_EEEC1B8ue170006ILb1EvEEPS1_, symObjAddr: 0x8C3C, symBinAddr: 0x100024638, symSize: 0x34 }
  - { offset: 0xF3571, size: 0x8, addend: 0x0, symName: __ZNSt3__110unique_ptrI6InfoUINS_14default_deleteIS1_EEEC2B8ue170006ILb1EvEEPS1_, symObjAddr: 0x8C70, symBinAddr: 0x10002466C, symSize: 0x44 }
  - { offset: 0xF35B4, size: 0x8, addend: 0x0, symName: __ZNSt3__117__compressed_pairIP6InfoUINS_14default_deleteIS1_EEEC1B8ue170006IRS2_NS_16__value_init_tagEEEOT_OT0_, symObjAddr: 0x8CB4, symBinAddr: 0x1000246B0, symSize: 0x3C }
  - { offset: 0xF360C, size: 0x8, addend: 0x0, symName: __ZNSt3__117__compressed_pairIP6InfoUINS_14default_deleteIS1_EEEC2B8ue170006IRS2_NS_16__value_init_tagEEEOT_OT0_, symObjAddr: 0x8CF0, symBinAddr: 0x1000246EC, symSize: 0x40 }
  - { offset: 0xF3664, size: 0x8, addend: 0x0, symName: __ZNSt3__122__compressed_pair_elemIP6InfoUILi0ELb0EEC2B8ue170006IRS2_vEEOT_, symObjAddr: 0x8D30, symBinAddr: 0x10002472C, symSize: 0x24 }
  - { offset: 0xF36A6, size: 0x8, addend: 0x0, symName: __ZNSt3__110unique_ptrI6InfoUINS_14default_deleteIS1_EEE7releaseB8ue170006Ev, symObjAddr: 0x8D54, symBinAddr: 0x100024750, symSize: 0x44 }
  - { offset: 0xF36DB, size: 0x8, addend: 0x0, symName: __ZNSt3__110unique_ptrI6InfoUINS_14default_deleteIS1_EEE11get_deleterB8ue170006Ev, symObjAddr: 0x8D98, symBinAddr: 0x100024794, symSize: 0x24 }
  - { offset: 0xF3701, size: 0x8, addend: 0x0, symName: __ZNSt3__110unique_ptrI10InfoUIViewNS_14default_deleteIS1_EEEC1B8ue170006ILb1EvEEPS1_, symObjAddr: 0x8DBC, symBinAddr: 0x1000247B8, symSize: 0x34 }
  - { offset: 0xF3744, size: 0x8, addend: 0x0, symName: __ZNSt3__110unique_ptrI10InfoUIViewNS_14default_deleteIS1_EEEC2B8ue170006ILb1EvEEPS1_, symObjAddr: 0x8DF0, symBinAddr: 0x1000247EC, symSize: 0x44 }
  - { offset: 0xF3787, size: 0x8, addend: 0x0, symName: __ZNSt3__117__compressed_pairIP10InfoUIViewNS_14default_deleteIS1_EEEC1B8ue170006IRS2_NS_16__value_init_tagEEEOT_OT0_, symObjAddr: 0x8E34, symBinAddr: 0x100024830, symSize: 0x3C }
  - { offset: 0xF37DF, size: 0x8, addend: 0x0, symName: __ZNSt3__117__compressed_pairIP10InfoUIViewNS_14default_deleteIS1_EEEC2B8ue170006IRS2_NS_16__value_init_tagEEEOT_OT0_, symObjAddr: 0x8E70, symBinAddr: 0x10002486C, symSize: 0x40 }
  - { offset: 0xF3837, size: 0x8, addend: 0x0, symName: __ZNSt3__122__compressed_pair_elemIP10InfoUIViewLi0ELb0EEC2B8ue170006IRS2_vEEOT_, symObjAddr: 0x8EB0, symBinAddr: 0x1000248AC, symSize: 0x24 }
  - { offset: 0xF3879, size: 0x8, addend: 0x0, symName: __ZNSt3__110unique_ptrI10InfoUIViewNS_14default_deleteIS1_EEE7releaseB8ue170006Ev, symObjAddr: 0x8ED4, symBinAddr: 0x1000248D0, symSize: 0x44 }
  - { offset: 0xF38AE, size: 0x8, addend: 0x0, symName: __ZNSt3__110unique_ptrI10InfoUIViewNS_14default_deleteIS1_EEE11get_deleterB8ue170006Ev, symObjAddr: 0x8F18, symBinAddr: 0x100024914, symSize: 0x24 }
  - { offset: 0xF38D4, size: 0x8, addend: 0x0, symName: __ZNKSt3__117__compressed_pairIP6InfoUINS_14default_deleteIS1_EEE5firstB8ue170006Ev, symObjAddr: 0x8F3C, symBinAddr: 0x100024938, symSize: 0x24 }
  - { offset: 0xF38FA, size: 0x8, addend: 0x0, symName: __ZNKSt3__122__compressed_pair_elemIP6InfoUILi0ELb0EE5__getB8ue170006Ev, symObjAddr: 0x8F60, symBinAddr: 0x10002495C, symSize: 0x14 }
  - { offset: 0xF58DE, size: 0x8, addend: 0x0, symName: __ZN4TileC2Ev, symObjAddr: 0x0, symBinAddr: 0x100024970, symSize: 0x3C }
  - { offset: 0x103182, size: 0x8, addend: 0x0, symName: __ZN4TileC2Ev, symObjAddr: 0x0, symBinAddr: 0x100024970, symSize: 0x3C }
  - { offset: 0x1031AE, size: 0x8, addend: 0x0, symName: __ZN4TileC1Ev, symObjAddr: 0x3C, symBinAddr: 0x1000249AC, symSize: 0x2C }
  - { offset: 0x1031DA, size: 0x8, addend: 0x0, symName: __ZN4TileD2Ev, symObjAddr: 0x68, symBinAddr: 0x1000249D8, symSize: 0x2C }
  - { offset: 0x103206, size: 0x8, addend: 0x0, symName: __ZN4TileD1Ev, symObjAddr: 0x94, symBinAddr: 0x100024A04, symSize: 0x2C }
  - { offset: 0x103232, size: 0x8, addend: 0x0, symName: __ZN4TileD0Ev, symObjAddr: 0xC0, symBinAddr: 0x100024A30, symSize: 0x30 }
  - { offset: 0x10325E, size: 0x8, addend: 0x0, symName: __ZN4Tile7getTypeEv, symObjAddr: 0x158, symBinAddr: 0x100024A60, symSize: 0x18 }
  - { offset: 0x103284, size: 0x8, addend: 0x0, symName: __ZN4Tile7setTypeENS_4TypeE, symObjAddr: 0x170, symBinAddr: 0x100024A78, symSize: 0x20 }
  - { offset: 0x105169, size: 0x8, addend: 0x0, symName: __ZN14TowerGeneratorC2Ev, symObjAddr: 0x0, symBinAddr: 0x100024A98, symSize: 0x14 }
  - { offset: 0x11295F, size: 0x8, addend: 0x0, symName: __ZN14TowerGeneratorC2Ev, symObjAddr: 0x0, symBinAddr: 0x100024A98, symSize: 0x14 }
  - { offset: 0x11298B, size: 0x8, addend: 0x0, symName: __ZN14TowerGeneratorC1Ev, symObjAddr: 0x14, symBinAddr: 0x100024AAC, symSize: 0x2C }
  - { offset: 0x1129B7, size: 0x8, addend: 0x0, symName: __ZN14TowerGenerator26GenerateRapidTowerTemplateEv, symObjAddr: 0x40, symBinAddr: 0x100024AD8, symSize: 0x38 }
  - { offset: 0x1129DF, size: 0x8, addend: 0x0, symName: __ZN14TowerGenerator27GenerateSniperTowerTemplateEv, symObjAddr: 0x78, symBinAddr: 0x100024B10, symSize: 0x38 }
  - { offset: 0x112A07, size: 0x8, addend: 0x0, symName: __ZN14TowerGenerator13GenerateTowerENS_9TowerTypeE, symObjAddr: 0xB0, symBinAddr: 0x100024B48, symSize: 0x3C }
  - { offset: 0x114924, size: 0x8, addend: 0x0, symName: __ZNSt3__119piecewise_constructE, symObjAddr: 0x56E3, symBinAddr: 0x10005D2ED, symSize: 0x0 }
  - { offset: 0x121E85, size: 0x8, addend: 0x0, symName: __ZNSt3__1neB8ue170006ERKNS_19__hash_map_iteratorINS_15__hash_iteratorIPNS_11__hash_nodeINS_17__hash_value_typeIPK7MonsterN11MonsterView12MonsterStatsEEEPvEEEEEESG_, symObjAddr: 0x3FC, symBinAddr: 0x100024DE8, symSize: 0x30 }
  - { offset: 0x121EC2, size: 0x8, addend: 0x0, symName: __ZNSt3__1neB8ue170006ERKNS_25__hash_map_const_iteratorINS_21__hash_const_iteratorIPNS_11__hash_nodeINS_17__hash_value_typeIPK7MonsterN11MonsterView12MonsterStatsEEEPvEEEEEESG_, symObjAddr: 0x7A4, symBinAddr: 0x100025130, symSize: 0x30 }
  - { offset: 0x121F32, size: 0x8, addend: 0x0, symName: __ZNSt3__17launderB8ue170006INS_4pairIKPK7MonsterN11MonsterView12MonsterStatsEEEEEPT_SA_, symObjAddr: 0xC84, symBinAddr: 0x10002558C, symSize: 0x24 }
  - { offset: 0x121F69, size: 0x8, addend: 0x0, symName: __ZNSt3__19__launderB8ue170006INS_4pairIKPK7MonsterN11MonsterView12MonsterStatsEEEEEPT_SA_, symObjAddr: 0xCA8, symBinAddr: 0x1000255B0, symSize: 0x14 }
  - { offset: 0x121FA0, size: 0x8, addend: 0x0, symName: __ZNSt3__116__constrain_hashB8ue170006Emm, symObjAddr: 0x243C, symBinAddr: 0x100025CB4, symSize: 0x98 }
  - { offset: 0x121FDA, size: 0x8, addend: 0x0, symName: __ZNSt3__110__loadwordB8ue170006ImEET_PKv, symObjAddr: 0x3030, symBinAddr: 0x1000268A8, symSize: 0x20 }
  - { offset: 0x12201D, size: 0x8, addend: 0x0, symName: __ZNSt3__14swapB8ue170006ImEENS_9enable_ifIXaasr21is_move_constructibleIT_EE5valuesr18is_move_assignableIS2_EE5valueEvE4typeERS2_S5_, symObjAddr: 0x31EC, symBinAddr: 0x100026A64, symSize: 0x3C }
  - { offset: 0x12206E, size: 0x8, addend: 0x0, symName: __ZNSt3__110__loadwordB8ue170006IjEET_PKv, symObjAddr: 0x327C, symBinAddr: 0x100026AF4, symSize: 0x20 }
  - { offset: 0x1220B1, size: 0x8, addend: 0x0, symName: __ZNSt3__17launderB8ue170006IKNS_4pairIKPK7MonsterN11MonsterView12MonsterStatsEEEEEPT_SB_, symObjAddr: 0x3558, symBinAddr: 0x100026DD0, symSize: 0x24 }
  - { offset: 0x1220E8, size: 0x8, addend: 0x0, symName: __ZNSt3__19__launderB8ue170006IKNS_4pairIKPK7MonsterN11MonsterView12MonsterStatsEEEEEPT_SB_, symObjAddr: 0x357C, symBinAddr: 0x100026DF4, symSize: 0x14 }
  - { offset: 0x12211F, size: 0x8, addend: 0x0, symName: __ZNSt3__1neB8ue170006ERKNS_15__hash_iteratorIPNS_11__hash_nodeINS_17__hash_value_typeIPK7MonsterN11MonsterView12MonsterStatsEEEPvEEEESE_, symObjAddr: 0x35D0, symBinAddr: 0x100026E48, symSize: 0x34 }
  - { offset: 0x12215C, size: 0x8, addend: 0x0, symName: __ZNSt3__1eqB8ue170006ERKNS_15__hash_iteratorIPNS_11__hash_nodeINS_17__hash_value_typeIPK7MonsterN11MonsterView12MonsterStatsEEEPvEEEESE_, symObjAddr: 0x3604, symBinAddr: 0x100026E7C, symSize: 0x30 }
  - { offset: 0x1221EE, size: 0x8, addend: 0x0, symName: __ZNSt3__116forward_as_tupleB8ue170006IJRKPK7MonsterEEENS_5tupleIJDpOT_EEES9_, symObjAddr: 0x4210, symBinAddr: 0x100027A88, symSize: 0x2C }
  - { offset: 0x122227, size: 0x8, addend: 0x0, symName: __ZNSt3__116forward_as_tupleB8ue170006IJEEENS_5tupleIJDpOT_EEES4_, symObjAddr: 0x423C, symBinAddr: 0x100027AB4, symSize: 0x4 }
  - { offset: 0x12224B, size: 0x8, addend: 0x0, symName: __ZNSt3__116__is_hash_power2B8ue170006Em, symObjAddr: 0x4440, symBinAddr: 0x100027C8C, symSize: 0x50 }
  - { offset: 0x122283, size: 0x8, addend: 0x0, symName: __ZNSt3__13getB8ue170006ILm0EJRKPK7MonsterEEERNS_13tuple_elementIXT_ENS_5tupleIJDpT0_EEEE4typeERSA_, symObjAddr: 0x489C, symBinAddr: 0x100028004, symSize: 0x24 }
  - { offset: 0x1222C6, size: 0x8, addend: 0x0, symName: __ZNSt3__116__next_hash_pow2B8ue170006Em, symObjAddr: 0x4D40, symBinAddr: 0x1000284A8, symSize: 0x6C }
  - { offset: 0x122349, size: 0x8, addend: 0x0, symName: __ZNSt3__1neB8ue170006ERKNS_21__hash_const_iteratorIPNS_11__hash_nodeINS_17__hash_value_typeIPK7MonsterN11MonsterView12MonsterStatsEEEPvEEEESE_, symObjAddr: 0x5468, symBinAddr: 0x100028B2C, symSize: 0x34 }
  - { offset: 0x122386, size: 0x8, addend: 0x0, symName: __ZNSt3__1eqB8ue170006ERKNS_21__hash_const_iteratorIPNS_11__hash_nodeINS_17__hash_value_typeIPK7MonsterN11MonsterView12MonsterStatsEEEPvEEEESE_, symObjAddr: 0x549C, symBinAddr: 0x100028B60, symSize: 0x30 }
  - { offset: 0x128CE9, size: 0x8, addend: 0x0, symName: __ZN11MonsterView4DrawERN2sf12RenderWindowENSt3__16vectorI7MonsterNS3_9allocatorIS5_EEEEi, symObjAddr: 0x0, symBinAddr: 0x100024B84, symSize: 0xB8 }
  - { offset: 0x128D8D, size: 0x8, addend: 0x0, symName: __ZNK7Monster19GetCurrentPathIndexEv, symObjAddr: 0x164, symBinAddr: 0x100024C3C, symSize: 0x18 }
  - { offset: 0x128DB3, size: 0x8, addend: 0x0, symName: __ZN11MonsterView13RemoveMonsterERK7Monster, symObjAddr: 0x19C, symBinAddr: 0x100024C54, symSize: 0x130 }
  - { offset: 0x128DF7, size: 0x8, addend: 0x0, symName: __ZNKSt3__113unordered_mapIPK7MonsterN11MonsterView12MonsterStatsENS_4hashIS3_EENS_8equal_toIS3_EENS_9allocatorINS_4pairIKS3_S5_EEEEE4sizeB8ue170006Ev, symObjAddr: 0x314, symBinAddr: 0x100024D84, symSize: 0x24 }
  - { offset: 0x128E1D, size: 0x8, addend: 0x0, symName: __ZNSt3__113unordered_mapIPK7MonsterN11MonsterView12MonsterStatsENS_4hashIS3_EENS_8equal_toIS3_EENS_9allocatorINS_4pairIKS3_S5_EEEEE4findB8ue170006ERSC_, symObjAddr: 0x3BC, symBinAddr: 0x100024DA8, symSize: 0x40 }
  - { offset: 0x128E52, size: 0x8, addend: 0x0, symName: __ZNSt3__113unordered_mapIPK7MonsterN11MonsterView12MonsterStatsENS_4hashIS3_EENS_8equal_toIS3_EENS_9allocatorINS_4pairIKS3_S5_EEEEE3endB8ue170006Ev, symObjAddr: 0x42C, symBinAddr: 0x100024E18, symSize: 0x38 }
  - { offset: 0x128E78, size: 0x8, addend: 0x0, symName: __ZNSt3__113unordered_mapIPK7MonsterN11MonsterView12MonsterStatsENS_4hashIS3_EENS_8equal_toIS3_EENS_9allocatorINS_4pairIKS3_S5_EEEEE5eraseB8ue170006ENS_19__hash_map_iteratorINS_15__hash_iteratorIPNS_11__hash_nodeINS_17__hash_value_typeIS3_S5_EEPvEEEEEE, symObjAddr: 0x464, symBinAddr: 0x100024E50, symSize: 0x58 }
  - { offset: 0x128EAD, size: 0x8, addend: 0x0, symName: __ZN11MonsterView6UpdateERK12IGameSubject, symObjAddr: 0x4BC, symBinAddr: 0x100024EA8, symSize: 0x10C }
  - { offset: 0x128F0D, size: 0x8, addend: 0x0, symName: __ZNSt3__113unordered_mapIPK7MonsterN11MonsterView12MonsterStatsENS_4hashIS3_EENS_8equal_toIS3_EENS_9allocatorINS_4pairIKS3_S5_EEEEEixERSC_, symObjAddr: 0x5C8, symBinAddr: 0x100024FB4, symSize: 0x80 }
  - { offset: 0x128F44, size: 0x8, addend: 0x0, symName: __ZNK7Monster8GetLevelEv, symObjAddr: 0x6A8, symBinAddr: 0x100025034, symSize: 0x18 }
  - { offset: 0x128F6A, size: 0x8, addend: 0x0, symName: __ZNK7Monster12GetMaxHealthEv, symObjAddr: 0x6C0, symBinAddr: 0x10002504C, symSize: 0x18 }
  - { offset: 0x128F90, size: 0x8, addend: 0x0, symName: __ZNK11MonsterView15GetMonsterStatsEPK7Monster, symObjAddr: 0x6D8, symBinAddr: 0x100025064, symSize: 0x8C }
  - { offset: 0x128FD4, size: 0x8, addend: 0x0, symName: __ZNKSt3__113unordered_mapIPK7MonsterN11MonsterView12MonsterStatsENS_4hashIS3_EENS_8equal_toIS3_EENS_9allocatorINS_4pairIKS3_S5_EEEEE4findB8ue170006ERSC_, symObjAddr: 0x764, symBinAddr: 0x1000250F0, symSize: 0x40 }
  - { offset: 0x129009, size: 0x8, addend: 0x0, symName: __ZNKSt3__113unordered_mapIPK7MonsterN11MonsterView12MonsterStatsENS_4hashIS3_EENS_8equal_toIS3_EENS_9allocatorINS_4pairIKS3_S5_EEEEE3endB8ue170006Ev, symObjAddr: 0x7D4, symBinAddr: 0x100025160, symSize: 0x38 }
  - { offset: 0x12902F, size: 0x8, addend: 0x0, symName: __ZNKSt3__125__hash_map_const_iteratorINS_21__hash_const_iteratorIPNS_11__hash_nodeINS_17__hash_value_typeIPK7MonsterN11MonsterView12MonsterStatsEEEPvEEEEEptB8ue170006Ev, symObjAddr: 0x80C, symBinAddr: 0x100025198, symSize: 0x2C }
  - { offset: 0x129055, size: 0x8, addend: 0x0, symName: __ZN11MonsterViewD1Ev, symObjAddr: 0x838, symBinAddr: 0x1000251C4, symSize: 0x2C }
  - { offset: 0x12907F, size: 0x8, addend: 0x0, symName: __ZN11MonsterViewD0Ev, symObjAddr: 0x864, symBinAddr: 0x1000251F0, symSize: 0x30 }
  - { offset: 0x1290A9, size: 0x8, addend: 0x0, symName: __ZN11MonsterViewD2Ev, symObjAddr: 0x8F4, symBinAddr: 0x100025220, symSize: 0x54 }
  - { offset: 0x1290D3, size: 0x8, addend: 0x0, symName: __ZNSt3__113unordered_mapIPK7MonsterN11MonsterView12MonsterStatsENS_4hashIS3_EENS_8equal_toIS3_EENS_9allocatorINS_4pairIKS3_S5_EEEEED1B8ue170006Ev, symObjAddr: 0x948, symBinAddr: 0x100025274, symSize: 0x2C }
  - { offset: 0x1290FD, size: 0x8, addend: 0x0, symName: __ZNSt3__16vectorI7MonsterNS_9allocatorIS1_EEED1B8ue170006Ev, symObjAddr: 0x974, symBinAddr: 0x1000252A0, symSize: 0x2C }
  - { offset: 0x129127, size: 0x8, addend: 0x0, symName: __ZNSt3__113unordered_mapIPK7MonsterN11MonsterView12MonsterStatsENS_4hashIS3_EENS_8equal_toIS3_EENS_9allocatorINS_4pairIKS3_S5_EEEEED2B8ue170006Ev, symObjAddr: 0x9B4, symBinAddr: 0x1000252CC, symSize: 0x2C }
  - { offset: 0x129151, size: 0x8, addend: 0x0, symName: __ZNSt3__112__hash_tableINS_17__hash_value_typeIPK7MonsterN11MonsterView12MonsterStatsEEENS_22__unordered_map_hasherIS4_S7_NS_4hashIS4_EENS_8equal_toIS4_EELb1EEENS_21__unordered_map_equalIS4_S7_SC_SA_Lb1EEENS_9allocatorIS7_EEED1Ev, symObjAddr: 0x9E0, symBinAddr: 0x1000252F8, symSize: 0x2C }
  - { offset: 0x12917D, size: 0x8, addend: 0x0, symName: __ZNSt3__112__hash_tableINS_17__hash_value_typeIPK7MonsterN11MonsterView12MonsterStatsEEENS_22__unordered_map_hasherIS4_S7_NS_4hashIS4_EENS_8equal_toIS4_EELb1EEENS_21__unordered_map_equalIS4_S7_SC_SA_Lb1EEENS_9allocatorIS7_EEED2Ev, symObjAddr: 0xA0C, symBinAddr: 0x100025324, symSize: 0x48 }
  - { offset: 0x1291A9, size: 0x8, addend: 0x0, symName: __ZNSt3__112__hash_tableINS_17__hash_value_typeIPK7MonsterN11MonsterView12MonsterStatsEEENS_22__unordered_map_hasherIS4_S7_NS_4hashIS4_EENS_8equal_toIS4_EELb1EEENS_21__unordered_map_equalIS4_S7_SC_SA_Lb1EEENS_9allocatorIS7_EEE17__deallocate_nodeEPNS_16__hash_node_baseIPNS_11__hash_nodeIS7_PvEEEE, symObjAddr: 0xA54, symBinAddr: 0x10002536C, symSize: 0xA8 }
  - { offset: 0x129213, size: 0x8, addend: 0x0, symName: __ZNSt3__117__compressed_pairINS_16__hash_node_baseIPNS_11__hash_nodeINS_17__hash_value_typeIPK7MonsterN11MonsterView12MonsterStatsEEEPvEEEENS_9allocatorISB_EEE5firstB8ue170006Ev, symObjAddr: 0xAFC, symBinAddr: 0x100025414, symSize: 0x24 }
  - { offset: 0x129239, size: 0x8, addend: 0x0, symName: __ZNSt3__110unique_ptrIA_PNS_16__hash_node_baseIPNS_11__hash_nodeINS_17__hash_value_typeIPK7MonsterN11MonsterView12MonsterStatsEEEPvEEEENS_25__bucket_list_deallocatorINS_9allocatorISE_EEEEED1B8ue170006Ev, symObjAddr: 0xB20, symBinAddr: 0x100025438, symSize: 0x2C }
  - { offset: 0x129263, size: 0x8, addend: 0x0, symName: __ZNSt3__112__hash_tableINS_17__hash_value_typeIPK7MonsterN11MonsterView12MonsterStatsEEENS_22__unordered_map_hasherIS4_S7_NS_4hashIS4_EENS_8equal_toIS4_EELb1EEENS_21__unordered_map_equalIS4_S7_SC_SA_Lb1EEENS_9allocatorIS7_EEE12__node_allocB8ue170006Ev, symObjAddr: 0xB4C, symBinAddr: 0x100025464, symSize: 0x28 }
  - { offset: 0x129289, size: 0x8, addend: 0x0, symName: __ZNSt3__116__hash_node_baseIPNS_11__hash_nodeINS_17__hash_value_typeIPK7MonsterN11MonsterView12MonsterStatsEEEPvEEE8__upcastB8ue170006Ev, symObjAddr: 0xB74, symBinAddr: 0x10002548C, symSize: 0x24 }
  - { offset: 0x1292AF, size: 0x8, addend: 0x0, symName: __ZNSt3__116allocator_traitsINS_9allocatorINS_11__hash_nodeINS_17__hash_value_typeIPK7MonsterN11MonsterView12MonsterStatsEEEPvEEEEE7destroyB8ue170006INS_4pairIKS6_S8_EEvvEEvRSC_PT_, symObjAddr: 0xB98, symBinAddr: 0x1000254B0, symSize: 0x14 }
  - { offset: 0x1292E9, size: 0x8, addend: 0x0, symName: __ZNSt3__122__hash_key_value_typesINS_17__hash_value_typeIPK7MonsterN11MonsterView12MonsterStatsEEEE9__get_ptrB8ue170006ERS7_, symObjAddr: 0xBAC, symBinAddr: 0x1000254C4, symSize: 0x24 }
  - { offset: 0x12930C, size: 0x8, addend: 0x0, symName: __ZNSt3__116allocator_traitsINS_9allocatorINS_11__hash_nodeINS_17__hash_value_typeIPK7MonsterN11MonsterView12MonsterStatsEEEPvEEEEE10deallocateB8ue170006ERSC_PSB_m, symObjAddr: 0xBE0, symBinAddr: 0x1000254E8, symSize: 0x34 }
  - { offset: 0x12934E, size: 0x8, addend: 0x0, symName: __ZNSt3__117__compressed_pairINS_16__hash_node_baseIPNS_11__hash_nodeINS_17__hash_value_typeIPK7MonsterN11MonsterView12MonsterStatsEEEPvEEEENS_9allocatorISB_EEE6secondB8ue170006Ev, symObjAddr: 0xC14, symBinAddr: 0x10002551C, symSize: 0x24 }
  - { offset: 0x129374, size: 0x8, addend: 0x0, symName: __ZNSt3__122__compressed_pair_elemINS_9allocatorINS_11__hash_nodeINS_17__hash_value_typeIPK7MonsterN11MonsterView12MonsterStatsEEEPvEEEELi1ELb1EE5__getB8ue170006Ev, symObjAddr: 0xC38, symBinAddr: 0x100025540, symSize: 0x14 }
  - { offset: 0x12939A, size: 0x8, addend: 0x0, symName: __ZNSt3__114pointer_traitsIPNS_16__hash_node_baseIPNS_11__hash_nodeINS_17__hash_value_typeIPK7MonsterN11MonsterView12MonsterStatsEEEPvEEEEE10pointer_toB8ue170006ERSD_, symObjAddr: 0xC4C, symBinAddr: 0x100025554, symSize: 0x14 }
  - { offset: 0x1293BD, size: 0x8, addend: 0x0, symName: __ZNSt3__117__hash_value_typeIPK7MonsterN11MonsterView12MonsterStatsEE11__get_valueB8ue170006Ev, symObjAddr: 0xC60, symBinAddr: 0x100025568, symSize: 0x24 }
  - { offset: 0x1293E3, size: 0x8, addend: 0x0, symName: __ZNSt3__19allocatorINS_11__hash_nodeINS_17__hash_value_typeIPK7MonsterN11MonsterView12MonsterStatsEEEPvEEE10deallocateB8ue170006EPSA_m, symObjAddr: 0xCBC, symBinAddr: 0x1000255C4, symSize: 0x44 }
  - { offset: 0x129425, size: 0x8, addend: 0x0, symName: __ZNSt3__122__compressed_pair_elemINS_16__hash_node_baseIPNS_11__hash_nodeINS_17__hash_value_typeIPK7MonsterN11MonsterView12MonsterStatsEEEPvEEEELi0ELb0EE5__getB8ue170006Ev, symObjAddr: 0xE28, symBinAddr: 0x100025608, symSize: 0x14 }
  - { offset: 0x12944B, size: 0x8, addend: 0x0, symName: __ZNSt3__110unique_ptrIA_PNS_16__hash_node_baseIPNS_11__hash_nodeINS_17__hash_value_typeIPK7MonsterN11MonsterView12MonsterStatsEEEPvEEEENS_25__bucket_list_deallocatorINS_9allocatorISE_EEEEED2B8ue170006Ev, symObjAddr: 0xE3C, symBinAddr: 0x10002561C, symSize: 0x30 }
  - { offset: 0x129475, size: 0x8, addend: 0x0, symName: __ZNSt3__110unique_ptrIA_PNS_16__hash_node_baseIPNS_11__hash_nodeINS_17__hash_value_typeIPK7MonsterN11MonsterView12MonsterStatsEEEPvEEEENS_25__bucket_list_deallocatorINS_9allocatorISE_EEEEE5resetB8ue170006EDn, symObjAddr: 0xE6C, symBinAddr: 0x10002564C, symSize: 0x6C }
  - { offset: 0x1294B5, size: 0x8, addend: 0x0, symName: __ZNSt3__117__compressed_pairIPPNS_16__hash_node_baseIPNS_11__hash_nodeINS_17__hash_value_typeIPK7MonsterN11MonsterView12MonsterStatsEEEPvEEEENS_25__bucket_list_deallocatorINS_9allocatorISE_EEEEE5firstB8ue170006Ev, symObjAddr: 0xED8, symBinAddr: 0x1000256B8, symSize: 0x24 }
  - { offset: 0x1294DB, size: 0x8, addend: 0x0, symName: __ZNSt3__117__compressed_pairIPPNS_16__hash_node_baseIPNS_11__hash_nodeINS_17__hash_value_typeIPK7MonsterN11MonsterView12MonsterStatsEEEPvEEEENS_25__bucket_list_deallocatorINS_9allocatorISE_EEEEE6secondB8ue170006Ev, symObjAddr: 0xEFC, symBinAddr: 0x1000256DC, symSize: 0x28 }
  - { offset: 0x129501, size: 0x8, addend: 0x0, symName: __ZNSt3__125__bucket_list_deallocatorINS_9allocatorIPNS_16__hash_node_baseIPNS_11__hash_nodeINS_17__hash_value_typeIPK7MonsterN11MonsterView12MonsterStatsEEEPvEEEEEEEclB8ue170006EPSF_, symObjAddr: 0xF24, symBinAddr: 0x100025704, symSize: 0x58 }
  - { offset: 0x129536, size: 0x8, addend: 0x0, symName: __ZNSt3__122__compressed_pair_elemIPPNS_16__hash_node_baseIPNS_11__hash_nodeINS_17__hash_value_typeIPK7MonsterN11MonsterView12MonsterStatsEEEPvEEEELi0ELb0EE5__getB8ue170006Ev, symObjAddr: 0xF7C, symBinAddr: 0x10002575C, symSize: 0x14 }
  - { offset: 0x12955C, size: 0x8, addend: 0x0, symName: __ZNSt3__122__compressed_pair_elemINS_25__bucket_list_deallocatorINS_9allocatorIPNS_16__hash_node_baseIPNS_11__hash_nodeINS_17__hash_value_typeIPK7MonsterN11MonsterView12MonsterStatsEEEPvEEEEEEEELi1ELb0EE5__getB8ue170006Ev, symObjAddr: 0xF90, symBinAddr: 0x100025770, symSize: 0x14 }
  - { offset: 0x129582, size: 0x8, addend: 0x0, symName: __ZNSt3__116allocator_traitsINS_9allocatorIPNS_16__hash_node_baseIPNS_11__hash_nodeINS_17__hash_value_typeIPK7MonsterN11MonsterView12MonsterStatsEEEPvEEEEEEE10deallocateB8ue170006ERSG_PSF_m, symObjAddr: 0xFA4, symBinAddr: 0x100025784, symSize: 0x34 }
  - { offset: 0x1295C4, size: 0x8, addend: 0x0, symName: __ZNSt3__125__bucket_list_deallocatorINS_9allocatorIPNS_16__hash_node_baseIPNS_11__hash_nodeINS_17__hash_value_typeIPK7MonsterN11MonsterView12MonsterStatsEEEPvEEEEEEE7__allocB8ue170006Ev, symObjAddr: 0xFD8, symBinAddr: 0x1000257B8, symSize: 0x24 }
  - { offset: 0x1295EA, size: 0x8, addend: 0x0, symName: __ZNSt3__125__bucket_list_deallocatorINS_9allocatorIPNS_16__hash_node_baseIPNS_11__hash_nodeINS_17__hash_value_typeIPK7MonsterN11MonsterView12MonsterStatsEEEPvEEEEEEE4sizeB8ue170006Ev, symObjAddr: 0xFFC, symBinAddr: 0x1000257DC, symSize: 0x24 }
  - { offset: 0x129610, size: 0x8, addend: 0x0, symName: __ZNSt3__19allocatorIPNS_16__hash_node_baseIPNS_11__hash_nodeINS_17__hash_value_typeIPK7MonsterN11MonsterView12MonsterStatsEEEPvEEEEE10deallocateB8ue170006EPSE_m, symObjAddr: 0x1020, symBinAddr: 0x100025800, symSize: 0x40 }
  - { offset: 0x129652, size: 0x8, addend: 0x0, symName: __ZNSt3__117__compressed_pairImNS_9allocatorIPNS_16__hash_node_baseIPNS_11__hash_nodeINS_17__hash_value_typeIPK7MonsterN11MonsterView12MonsterStatsEEEPvEEEEEEE6secondB8ue170006Ev, symObjAddr: 0x1060, symBinAddr: 0x100025840, symSize: 0x24 }
  - { offset: 0x129678, size: 0x8, addend: 0x0, symName: __ZNSt3__122__compressed_pair_elemINS_9allocatorIPNS_16__hash_node_baseIPNS_11__hash_nodeINS_17__hash_value_typeIPK7MonsterN11MonsterView12MonsterStatsEEEPvEEEEEELi1ELb1EE5__getB8ue170006Ev, symObjAddr: 0x1084, symBinAddr: 0x100025864, symSize: 0x14 }
  - { offset: 0x12969E, size: 0x8, addend: 0x0, symName: __ZNSt3__117__compressed_pairImNS_9allocatorIPNS_16__hash_node_baseIPNS_11__hash_nodeINS_17__hash_value_typeIPK7MonsterN11MonsterView12MonsterStatsEEEPvEEEEEEE5firstB8ue170006Ev, symObjAddr: 0x1098, symBinAddr: 0x100025878, symSize: 0x24 }
  - { offset: 0x1296C4, size: 0x8, addend: 0x0, symName: __ZNSt3__16vectorI7MonsterNS_9allocatorIS1_EEED2B8ue170006Ev, symObjAddr: 0x10D0, symBinAddr: 0x10002589C, symSize: 0x44 }
  - { offset: 0x1296EE, size: 0x8, addend: 0x0, symName: __ZNSt3__16vectorI7MonsterNS_9allocatorIS1_EEE16__destroy_vectorC1B8ue170006ERS4_, symObjAddr: 0x1114, symBinAddr: 0x1000258E0, symSize: 0x34 }
  - { offset: 0x129727, size: 0x8, addend: 0x0, symName: __ZNSt3__16vectorI7MonsterNS_9allocatorIS1_EEE16__destroy_vectorclB8ue170006Ev, symObjAddr: 0x1148, symBinAddr: 0x100025914, symSize: 0x90 }
  - { offset: 0x12974D, size: 0x8, addend: 0x0, symName: __ZNSt3__16vectorI7MonsterNS_9allocatorIS1_EEE16__destroy_vectorC2B8ue170006ERS4_, symObjAddr: 0x11D8, symBinAddr: 0x1000259A4, symSize: 0x20 }
  - { offset: 0x129786, size: 0x8, addend: 0x0, symName: __ZNSt3__16vectorI7MonsterNS_9allocatorIS1_EEE7__clearB8ue170006Ev, symObjAddr: 0x11F8, symBinAddr: 0x1000259C4, symSize: 0x28 }
  - { offset: 0x1297AC, size: 0x8, addend: 0x0, symName: __ZNKSt3__112__hash_tableINS_17__hash_value_typeIPK7MonsterN11MonsterView12MonsterStatsEEENS_22__unordered_map_hasherIS4_S7_NS_4hashIS4_EENS_8equal_toIS4_EELb1EEENS_21__unordered_map_equalIS4_S7_SC_SA_Lb1EEENS_9allocatorIS7_EEE4sizeB8ue170006Ev, symObjAddr: 0x2174, symBinAddr: 0x1000259EC, symSize: 0x2C }
  - { offset: 0x1297D2, size: 0x8, addend: 0x0, symName: __ZNKSt3__117__compressed_pairImNS_22__unordered_map_hasherIPK7MonsterNS_17__hash_value_typeIS4_N11MonsterView12MonsterStatsEEENS_4hashIS4_EENS_8equal_toIS4_EELb1EEEE5firstB8ue170006Ev, symObjAddr: 0x21A0, symBinAddr: 0x100025A18, symSize: 0x24 }
  - { offset: 0x1297F8, size: 0x8, addend: 0x0, symName: __ZNKSt3__122__compressed_pair_elemImLi0ELb0EE5__getB8ue170006Ev, symObjAddr: 0x21C4, symBinAddr: 0x100025A3C, symSize: 0x14 }
  - { offset: 0x12981E, size: 0x8, addend: 0x0, symName: __ZNSt3__112__hash_tableINS_17__hash_value_typeIPK7MonsterN11MonsterView12MonsterStatsEEENS_22__unordered_map_hasherIS4_S7_NS_4hashIS4_EENS_8equal_toIS4_EELb1EEENS_21__unordered_map_equalIS4_S7_SC_SA_Lb1EEENS_9allocatorIS7_EEE4findIS4_EENS_15__hash_iteratorIPNS_11__hash_nodeIS7_PvEEEERKT_, symObjAddr: 0x21D8, symBinAddr: 0x100025A50, symSize: 0x1B0 }
  - { offset: 0x1298A8, size: 0x8, addend: 0x0, symName: __ZNSt3__119__hash_map_iteratorINS_15__hash_iteratorIPNS_11__hash_nodeINS_17__hash_value_typeIPK7MonsterN11MonsterView12MonsterStatsEEEPvEEEEEC1B8ue170006ESD_, symObjAddr: 0x2388, symBinAddr: 0x100025C00, symSize: 0x34 }
  - { offset: 0x1298E1, size: 0x8, addend: 0x0, symName: __ZNSt3__112__hash_tableINS_17__hash_value_typeIPK7MonsterN11MonsterView12MonsterStatsEEENS_22__unordered_map_hasherIS4_S7_NS_4hashIS4_EENS_8equal_toIS4_EELb1EEENS_21__unordered_map_equalIS4_S7_SC_SA_Lb1EEENS_9allocatorIS7_EEE13hash_functionB8ue170006Ev, symObjAddr: 0x23BC, symBinAddr: 0x100025C34, symSize: 0x28 }
  - { offset: 0x129907, size: 0x8, addend: 0x0, symName: __ZNKSt3__122__unordered_map_hasherIPK7MonsterNS_17__hash_value_typeIS3_N11MonsterView12MonsterStatsEEENS_4hashIS3_EENS_8equal_toIS3_EELb1EEclB8ue170006ERKS3_, symObjAddr: 0x23E4, symBinAddr: 0x100025C5C, symSize: 0x30 }
  - { offset: 0x12993C, size: 0x8, addend: 0x0, symName: __ZNKSt3__112__hash_tableINS_17__hash_value_typeIPK7MonsterN11MonsterView12MonsterStatsEEENS_22__unordered_map_hasherIS4_S7_NS_4hashIS4_EENS_8equal_toIS4_EELb1EEENS_21__unordered_map_equalIS4_S7_SC_SA_Lb1EEENS_9allocatorIS7_EEE12bucket_countB8ue170006Ev, symObjAddr: 0x2414, symBinAddr: 0x100025C8C, symSize: 0x28 }
  - { offset: 0x129962, size: 0x8, addend: 0x0, symName: __ZNKSt3__110unique_ptrIA_PNS_16__hash_node_baseIPNS_11__hash_nodeINS_17__hash_value_typeIPK7MonsterN11MonsterView12MonsterStatsEEEPvEEEENS_25__bucket_list_deallocatorINS_9allocatorISE_EEEEEixB8ue170006Em, symObjAddr: 0x24D4, symBinAddr: 0x100025D4C, symSize: 0x34 }
  - { offset: 0x129997, size: 0x8, addend: 0x0, symName: __ZNKSt3__116__hash_node_baseIPNS_11__hash_nodeINS_17__hash_value_typeIPK7MonsterN11MonsterView12MonsterStatsEEEPvEEE6__hashB8ue170006Ev, symObjAddr: 0x2508, symBinAddr: 0x100025D80, symSize: 0x18 }
  - { offset: 0x1299BD, size: 0x8, addend: 0x0, symName: __ZNSt3__112__hash_tableINS_17__hash_value_typeIPK7MonsterN11MonsterView12MonsterStatsEEENS_22__unordered_map_hasherIS4_S7_NS_4hashIS4_EENS_8equal_toIS4_EELb1EEENS_21__unordered_map_equalIS4_S7_SC_SA_Lb1EEENS_9allocatorIS7_EEE6key_eqB8ue170006Ev, symObjAddr: 0x2520, symBinAddr: 0x100025D98, symSize: 0x28 }
  - { offset: 0x1299E3, size: 0x8, addend: 0x0, symName: __ZNKSt3__121__unordered_map_equalIPK7MonsterNS_17__hash_value_typeIS3_N11MonsterView12MonsterStatsEEENS_8equal_toIS3_EENS_4hashIS3_EELb1EEclB8ue170006ERKS7_RKS3_, symObjAddr: 0x2548, symBinAddr: 0x100025DC0, symSize: 0x48 }
  - { offset: 0x129A27, size: 0x8, addend: 0x0, symName: __ZNSt3__115__hash_iteratorIPNS_11__hash_nodeINS_17__hash_value_typeIPK7MonsterN11MonsterView12MonsterStatsEEEPvEEEC1B8ue170006EPNS_16__hash_node_baseISB_EE, symObjAddr: 0x2590, symBinAddr: 0x100025E08, symSize: 0x34 }
  - { offset: 0x129A60, size: 0x8, addend: 0x0, symName: __ZNSt3__112__hash_tableINS_17__hash_value_typeIPK7MonsterN11MonsterView12MonsterStatsEEENS_22__unordered_map_hasherIS4_S7_NS_4hashIS4_EENS_8equal_toIS4_EELb1EEENS_21__unordered_map_equalIS4_S7_SC_SA_Lb1EEENS_9allocatorIS7_EEE3endEv, symObjAddr: 0x25C4, symBinAddr: 0x100025E3C, symSize: 0x2C }
  - { offset: 0x129A88, size: 0x8, addend: 0x0, symName: __ZNSt3__117__compressed_pairImNS_22__unordered_map_hasherIPK7MonsterNS_17__hash_value_typeIS4_N11MonsterView12MonsterStatsEEENS_4hashIS4_EENS_8equal_toIS4_EELb1EEEE6secondB8ue170006Ev, symObjAddr: 0x25F0, symBinAddr: 0x100025E68, symSize: 0x24 }
  - { offset: 0x129AAE, size: 0x8, addend: 0x0, symName: __ZNSt3__122__compressed_pair_elemINS_22__unordered_map_hasherIPK7MonsterNS_17__hash_value_typeIS4_N11MonsterView12MonsterStatsEEENS_4hashIS4_EENS_8equal_toIS4_EELb1EEELi1ELb1EE5__getB8ue170006Ev, symObjAddr: 0x2614, symBinAddr: 0x100025E8C, symSize: 0x14 }
  - { offset: 0x129AD4, size: 0x8, addend: 0x0, symName: __ZNKSt3__14hashIPK7MonsterEclB8ue170006ES3_, symObjAddr: 0x2628, symBinAddr: 0x100025EA0, symSize: 0x48 }
  - { offset: 0x129B3A, size: 0x8, addend: 0x0, symName: __ZNKSt3__121__murmur2_or_cityhashImLm64EEclB8ue170006EPKvm, symObjAddr: 0x2670, symBinAddr: 0x100025EE8, symSize: 0x410 }
  - { offset: 0x129BD4, size: 0x8, addend: 0x0, symName: __ZNSt3__121__murmur2_or_cityhashImLm64EE18__hash_len_0_to_16B8ue170006EPKcm, symObjAddr: 0x2A80, symBinAddr: 0x1000262F8, symSize: 0x1C8 }
  - { offset: 0x129CAD, size: 0x8, addend: 0x0, symName: __ZNSt3__121__murmur2_or_cityhashImLm64EE19__hash_len_17_to_32B8ue170006EPKcm, symObjAddr: 0x2C48, symBinAddr: 0x1000264C0, symSize: 0x130 }
  - { offset: 0x129D16, size: 0x8, addend: 0x0, symName: __ZNSt3__121__murmur2_or_cityhashImLm64EE19__hash_len_33_to_64B8ue170006EPKcm, symObjAddr: 0x2D78, symBinAddr: 0x1000265F0, symSize: 0x2B8 }
  - { offset: 0x129DCB, size: 0x8, addend: 0x0, symName: __ZNSt3__121__murmur2_or_cityhashImLm64EE13__hash_len_16B8ue170006Emm, symObjAddr: 0x3050, symBinAddr: 0x1000268C8, symSize: 0x80 }
  - { offset: 0x129E26, size: 0x8, addend: 0x0, symName: __ZNSt3__121__murmur2_or_cityhashImLm64EE29__weak_hash_len_32_with_seedsB8ue170006EPKcmm, symObjAddr: 0x30D0, symBinAddr: 0x100026948, symSize: 0x88 }
  - { offset: 0x129E65, size: 0x8, addend: 0x0, symName: __ZNSt3__121__murmur2_or_cityhashImLm64EE8__rotateB8ue170006Emi, symObjAddr: 0x3158, symBinAddr: 0x1000269D0, symSize: 0x64 }
  - { offset: 0x129E96, size: 0x8, addend: 0x0, symName: __ZNSt3__14pairImmEaSB8ue170006EOS1_, symObjAddr: 0x31BC, symBinAddr: 0x100026A34, symSize: 0x30 }
  - { offset: 0x129ECB, size: 0x8, addend: 0x0, symName: __ZNSt3__121__murmur2_or_cityhashImLm64EE11__shift_mixB8ue170006Em, symObjAddr: 0x3228, symBinAddr: 0x100026AA0, symSize: 0x1C }
  - { offset: 0x129EEE, size: 0x8, addend: 0x0, symName: __ZNSt3__121__murmur2_or_cityhashImLm64EE22__rotate_by_at_least_1B8ue170006Emi, symObjAddr: 0x3244, symBinAddr: 0x100026ABC, symSize: 0x38 }
  - { offset: 0x129F1F, size: 0x8, addend: 0x0, symName: __ZNSt3__121__murmur2_or_cityhashImLm64EE29__weak_hash_len_32_with_seedsB8ue170006Emmmmmm, symObjAddr: 0x329C, symBinAddr: 0x100026B14, symSize: 0xD8 }
  - { offset: 0x129F9C, size: 0x8, addend: 0x0, symName: __ZNSt3__14pairImmEC1B8ue170006ImmLPv0EEEOT_OT0_, symObjAddr: 0x3374, symBinAddr: 0x100026BEC, symSize: 0x3C }
  - { offset: 0x129FFA, size: 0x8, addend: 0x0, symName: __ZNSt3__14pairImmEC2B8ue170006ImmLPv0EEEOT_OT0_, symObjAddr: 0x33B0, symBinAddr: 0x100026C28, symSize: 0x34 }
  - { offset: 0x12A058, size: 0x8, addend: 0x0, symName: __ZNKSt3__110unique_ptrIA_PNS_16__hash_node_baseIPNS_11__hash_nodeINS_17__hash_value_typeIPK7MonsterN11MonsterView12MonsterStatsEEEPvEEEENS_25__bucket_list_deallocatorINS_9allocatorISE_EEEEE11get_deleterB8ue170006Ev, symObjAddr: 0x33E4, symBinAddr: 0x100026C5C, symSize: 0x24 }
  - { offset: 0x12A07E, size: 0x8, addend: 0x0, symName: __ZNKSt3__125__bucket_list_deallocatorINS_9allocatorIPNS_16__hash_node_baseIPNS_11__hash_nodeINS_17__hash_value_typeIPK7MonsterN11MonsterView12MonsterStatsEEEPvEEEEEEE4sizeB8ue170006Ev, symObjAddr: 0x3408, symBinAddr: 0x100026C80, symSize: 0x28 }
  - { offset: 0x12A0A4, size: 0x8, addend: 0x0, symName: __ZNKSt3__117__compressed_pairIPPNS_16__hash_node_baseIPNS_11__hash_nodeINS_17__hash_value_typeIPK7MonsterN11MonsterView12MonsterStatsEEEPvEEEENS_25__bucket_list_deallocatorINS_9allocatorISE_EEEEE6secondB8ue170006Ev, symObjAddr: 0x3430, symBinAddr: 0x100026CA8, symSize: 0x28 }
  - { offset: 0x12A0CA, size: 0x8, addend: 0x0, symName: __ZNKSt3__122__compressed_pair_elemINS_25__bucket_list_deallocatorINS_9allocatorIPNS_16__hash_node_baseIPNS_11__hash_nodeINS_17__hash_value_typeIPK7MonsterN11MonsterView12MonsterStatsEEEPvEEEEEEEELi1ELb0EE5__getB8ue170006Ev, symObjAddr: 0x3458, symBinAddr: 0x100026CD0, symSize: 0x14 }
  - { offset: 0x12A0F0, size: 0x8, addend: 0x0, symName: __ZNKSt3__117__compressed_pairImNS_9allocatorIPNS_16__hash_node_baseIPNS_11__hash_nodeINS_17__hash_value_typeIPK7MonsterN11MonsterView12MonsterStatsEEEPvEEEEEEE5firstB8ue170006Ev, symObjAddr: 0x346C, symBinAddr: 0x100026CE4, symSize: 0x24 }
  - { offset: 0x12A116, size: 0x8, addend: 0x0, symName: __ZNKSt3__117__compressed_pairIPPNS_16__hash_node_baseIPNS_11__hash_nodeINS_17__hash_value_typeIPK7MonsterN11MonsterView12MonsterStatsEEEPvEEEENS_25__bucket_list_deallocatorINS_9allocatorISE_EEEEE5firstB8ue170006Ev, symObjAddr: 0x3490, symBinAddr: 0x100026D08, symSize: 0x24 }
  - { offset: 0x12A13C, size: 0x8, addend: 0x0, symName: __ZNKSt3__122__compressed_pair_elemIPPNS_16__hash_node_baseIPNS_11__hash_nodeINS_17__hash_value_typeIPK7MonsterN11MonsterView12MonsterStatsEEEPvEEEELi0ELb0EE5__getB8ue170006Ev, symObjAddr: 0x34B4, symBinAddr: 0x100026D2C, symSize: 0x14 }
  - { offset: 0x12A162, size: 0x8, addend: 0x0, symName: __ZNSt3__117__compressed_pairIfNS_21__unordered_map_equalIPK7MonsterNS_17__hash_value_typeIS4_N11MonsterView12MonsterStatsEEENS_8equal_toIS4_EENS_4hashIS4_EELb1EEEE6secondB8ue170006Ev, symObjAddr: 0x34C8, symBinAddr: 0x100026D40, symSize: 0x24 }
  - { offset: 0x12A188, size: 0x8, addend: 0x0, symName: __ZNSt3__122__compressed_pair_elemINS_21__unordered_map_equalIPK7MonsterNS_17__hash_value_typeIS4_N11MonsterView12MonsterStatsEEENS_8equal_toIS4_EENS_4hashIS4_EELb1EEELi1ELb1EE5__getB8ue170006Ev, symObjAddr: 0x34EC, symBinAddr: 0x100026D64, symSize: 0x14 }
  - { offset: 0x12A1AE, size: 0x8, addend: 0x0, symName: __ZNKSt3__18equal_toIPK7MonsterEclB8ue170006ERKS3_S6_, symObjAddr: 0x3500, symBinAddr: 0x100026D78, symSize: 0x34 }
  - { offset: 0x12A1F2, size: 0x8, addend: 0x0, symName: __ZNKSt3__117__hash_value_typeIPK7MonsterN11MonsterView12MonsterStatsEE11__get_valueB8ue170006Ev, symObjAddr: 0x3534, symBinAddr: 0x100026DAC, symSize: 0x24 }
  - { offset: 0x12A218, size: 0x8, addend: 0x0, symName: __ZNSt3__115__hash_iteratorIPNS_11__hash_nodeINS_17__hash_value_typeIPK7MonsterN11MonsterView12MonsterStatsEEEPvEEEC2B8ue170006EPNS_16__hash_node_baseISB_EE, symObjAddr: 0x3590, symBinAddr: 0x100026E08, symSize: 0x20 }
  - { offset: 0x12A251, size: 0x8, addend: 0x0, symName: __ZNSt3__119__hash_map_iteratorINS_15__hash_iteratorIPNS_11__hash_nodeINS_17__hash_value_typeIPK7MonsterN11MonsterView12MonsterStatsEEEPvEEEEEC2B8ue170006ESD_, symObjAddr: 0x35B0, symBinAddr: 0x100026E28, symSize: 0x20 }
  - { offset: 0x12A28A, size: 0x8, addend: 0x0, symName: __ZNSt3__112__hash_tableINS_17__hash_value_typeIPK7MonsterN11MonsterView12MonsterStatsEEENS_22__unordered_map_hasherIS4_S7_NS_4hashIS4_EENS_8equal_toIS4_EELb1EEENS_21__unordered_map_equalIS4_S7_SC_SA_Lb1EEENS_9allocatorIS7_EEE5eraseENS_21__hash_const_iteratorIPNS_11__hash_nodeIS7_PvEEEE, symObjAddr: 0x3634, symBinAddr: 0x100026EAC, symSize: 0x70 }
  - { offset: 0x12A2DF, size: 0x8, addend: 0x0, symName: __ZNSt3__121__hash_const_iteratorIPNS_11__hash_nodeINS_17__hash_value_typeIPK7MonsterN11MonsterView12MonsterStatsEEEPvEEEC1B8ue170006ERKNS_15__hash_iteratorISB_EE, symObjAddr: 0x36A4, symBinAddr: 0x100026F1C, symSize: 0x34 }
  - { offset: 0x12A318, size: 0x8, addend: 0x0, symName: __ZNSt3__115__hash_iteratorIPNS_11__hash_nodeINS_17__hash_value_typeIPK7MonsterN11MonsterView12MonsterStatsEEEPvEEEppB8ue170006Ev, symObjAddr: 0x36D8, symBinAddr: 0x100026F50, symSize: 0x20 }
  - { offset: 0x12A33E, size: 0x8, addend: 0x0, symName: __ZNSt3__112__hash_tableINS_17__hash_value_typeIPK7MonsterN11MonsterView12MonsterStatsEEENS_22__unordered_map_hasherIS4_S7_NS_4hashIS4_EENS_8equal_toIS4_EELb1EEENS_21__unordered_map_equalIS4_S7_SC_SA_Lb1EEENS_9allocatorIS7_EEE6removeENS_21__hash_const_iteratorIPNS_11__hash_nodeIS7_PvEEEE, symObjAddr: 0x36F8, symBinAddr: 0x100026F70, symSize: 0x220 }
  - { offset: 0x12A3CF, size: 0x8, addend: 0x0, symName: __ZNSt3__110unique_ptrINS_11__hash_nodeINS_17__hash_value_typeIPK7MonsterN11MonsterView12MonsterStatsEEEPvEENS_22__hash_node_destructorINS_9allocatorISA_EEEEED1B8ue170006Ev, symObjAddr: 0x3918, symBinAddr: 0x100027190, symSize: 0x2C }
  - { offset: 0x12A3F9, size: 0x8, addend: 0x0, symName: __ZNSt3__116__hash_node_baseIPNS_11__hash_nodeINS_17__hash_value_typeIPK7MonsterN11MonsterView12MonsterStatsEEEPvEEE5__ptrB8ue170006Ev, symObjAddr: 0x3944, symBinAddr: 0x1000271BC, symSize: 0x24 }
  - { offset: 0x12A41F, size: 0x8, addend: 0x0, symName: __ZNSt3__112__hash_tableINS_17__hash_value_typeIPK7MonsterN11MonsterView12MonsterStatsEEENS_22__unordered_map_hasherIS4_S7_NS_4hashIS4_EENS_8equal_toIS4_EELb1EEENS_21__unordered_map_equalIS4_S7_SC_SA_Lb1EEENS_9allocatorIS7_EEE4sizeB8ue170006Ev, symObjAddr: 0x3968, symBinAddr: 0x1000271E0, symSize: 0x28 }
  - { offset: 0x12A445, size: 0x8, addend: 0x0, symName: __ZNSt3__122__hash_node_destructorINS_9allocatorINS_11__hash_nodeINS_17__hash_value_typeIPK7MonsterN11MonsterView12MonsterStatsEEEPvEEEEEC1B8ue170006ERSC_b, symObjAddr: 0x3990, symBinAddr: 0x100027208, symSize: 0x48 }
  - { offset: 0x12A493, size: 0x8, addend: 0x0, symName: __ZNSt3__110unique_ptrINS_11__hash_nodeINS_17__hash_value_typeIPK7MonsterN11MonsterView12MonsterStatsEEEPvEENS_22__hash_node_destructorINS_9allocatorISA_EEEEEC1B8ue170006ILb1EvEEPSA_NS_16__dependent_typeINS_27__unique_ptr_deleter_sfinaeISE_EEXT_EE20__good_rval_ref_typeE, symObjAddr: 0x39D8, symBinAddr: 0x100027250, symSize: 0x3C }
  - { offset: 0x12A4E4, size: 0x8, addend: 0x0, symName: __ZNSt3__117__compressed_pairImNS_22__unordered_map_hasherIPK7MonsterNS_17__hash_value_typeIS4_N11MonsterView12MonsterStatsEEENS_4hashIS4_EENS_8equal_toIS4_EELb1EEEE5firstB8ue170006Ev, symObjAddr: 0x3A14, symBinAddr: 0x10002728C, symSize: 0x24 }
  - { offset: 0x12A50A, size: 0x8, addend: 0x0, symName: __ZNSt3__122__hash_node_destructorINS_9allocatorINS_11__hash_nodeINS_17__hash_value_typeIPK7MonsterN11MonsterView12MonsterStatsEEEPvEEEEEC2B8ue170006ERSC_b, symObjAddr: 0x3A38, symBinAddr: 0x1000272B0, symSize: 0x38 }
  - { offset: 0x12A552, size: 0x8, addend: 0x0, symName: __ZNSt3__110unique_ptrINS_11__hash_nodeINS_17__hash_value_typeIPK7MonsterN11MonsterView12MonsterStatsEEEPvEENS_22__hash_node_destructorINS_9allocatorISA_EEEEEC2B8ue170006ILb1EvEEPSA_NS_16__dependent_typeINS_27__unique_ptr_deleter_sfinaeISE_EEXT_EE20__good_rval_ref_typeE, symObjAddr: 0x3A70, symBinAddr: 0x1000272E8, symSize: 0x48 }
  - { offset: 0x12A5A3, size: 0x8, addend: 0x0, symName: __ZNSt3__117__compressed_pairIPNS_11__hash_nodeINS_17__hash_value_typeIPK7MonsterN11MonsterView12MonsterStatsEEEPvEENS_22__hash_node_destructorINS_9allocatorISA_EEEEEC1B8ue170006IRSB_SF_EEOT_OT0_, symObjAddr: 0x3AB8, symBinAddr: 0x100027330, symSize: 0x3C }
  - { offset: 0x12A5FB, size: 0x8, addend: 0x0, symName: __ZNSt3__117__compressed_pairIPNS_11__hash_nodeINS_17__hash_value_typeIPK7MonsterN11MonsterView12MonsterStatsEEEPvEENS_22__hash_node_destructorINS_9allocatorISA_EEEEEC2B8ue170006IRSB_SF_EEOT_OT0_, symObjAddr: 0x3AF4, symBinAddr: 0x10002736C, symSize: 0x48 }
  - { offset: 0x12A653, size: 0x8, addend: 0x0, symName: __ZNSt3__122__compressed_pair_elemIPNS_11__hash_nodeINS_17__hash_value_typeIPK7MonsterN11MonsterView12MonsterStatsEEEPvEELi0ELb0EEC2B8ue170006IRSB_vEEOT_, symObjAddr: 0x3B3C, symBinAddr: 0x1000273B4, symSize: 0x24 }
  - { offset: 0x12A695, size: 0x8, addend: 0x0, symName: __ZNSt3__122__compressed_pair_elemINS_22__hash_node_destructorINS_9allocatorINS_11__hash_nodeINS_17__hash_value_typeIPK7MonsterN11MonsterView12MonsterStatsEEEPvEEEEEELi1ELb0EEC2B8ue170006ISE_vEEOT_, symObjAddr: 0x3B60, symBinAddr: 0x1000273D8, symSize: 0x24 }
  - { offset: 0x12A6D7, size: 0x8, addend: 0x0, symName: __ZNSt3__110unique_ptrINS_11__hash_nodeINS_17__hash_value_typeIPK7MonsterN11MonsterView12MonsterStatsEEEPvEENS_22__hash_node_destructorINS_9allocatorISA_EEEEED2B8ue170006Ev, symObjAddr: 0x3B84, symBinAddr: 0x1000273FC, symSize: 0x30 }
  - { offset: 0x12A701, size: 0x8, addend: 0x0, symName: __ZNSt3__110unique_ptrINS_11__hash_nodeINS_17__hash_value_typeIPK7MonsterN11MonsterView12MonsterStatsEEEPvEENS_22__hash_node_destructorINS_9allocatorISA_EEEEE5resetB8ue170006EPSA_, symObjAddr: 0x3BB4, symBinAddr: 0x10002742C, symSize: 0x78 }
  - { offset: 0x12A745, size: 0x8, addend: 0x0, symName: __ZNSt3__117__compressed_pairIPNS_11__hash_nodeINS_17__hash_value_typeIPK7MonsterN11MonsterView12MonsterStatsEEEPvEENS_22__hash_node_destructorINS_9allocatorISA_EEEEE5firstB8ue170006Ev, symObjAddr: 0x3C2C, symBinAddr: 0x1000274A4, symSize: 0x24 }
  - { offset: 0x12A76B, size: 0x8, addend: 0x0, symName: __ZNSt3__117__compressed_pairIPNS_11__hash_nodeINS_17__hash_value_typeIPK7MonsterN11MonsterView12MonsterStatsEEEPvEENS_22__hash_node_destructorINS_9allocatorISA_EEEEE6secondB8ue170006Ev, symObjAddr: 0x3C50, symBinAddr: 0x1000274C8, symSize: 0x28 }
  - { offset: 0x12A791, size: 0x8, addend: 0x0, symName: __ZNSt3__122__hash_node_destructorINS_9allocatorINS_11__hash_nodeINS_17__hash_value_typeIPK7MonsterN11MonsterView12MonsterStatsEEEPvEEEEEclB8ue170006EPSB_, symObjAddr: 0x3C78, symBinAddr: 0x1000274F0, symSize: 0x94 }
  - { offset: 0x12A7C6, size: 0x8, addend: 0x0, symName: __ZNSt3__122__compressed_pair_elemIPNS_11__hash_nodeINS_17__hash_value_typeIPK7MonsterN11MonsterView12MonsterStatsEEEPvEELi0ELb0EE5__getB8ue170006Ev, symObjAddr: 0x3D0C, symBinAddr: 0x100027584, symSize: 0x14 }
  - { offset: 0x12A7EC, size: 0x8, addend: 0x0, symName: __ZNSt3__122__compressed_pair_elemINS_22__hash_node_destructorINS_9allocatorINS_11__hash_nodeINS_17__hash_value_typeIPK7MonsterN11MonsterView12MonsterStatsEEEPvEEEEEELi1ELb0EE5__getB8ue170006Ev, symObjAddr: 0x3D20, symBinAddr: 0x100027598, symSize: 0x14 }
  - { offset: 0x12A812, size: 0x8, addend: 0x0, symName: __ZNSt3__121__hash_const_iteratorIPNS_11__hash_nodeINS_17__hash_value_typeIPK7MonsterN11MonsterView12MonsterStatsEEEPvEEEC2B8ue170006ERKNS_15__hash_iteratorISB_EE, symObjAddr: 0x3D34, symBinAddr: 0x1000275AC, symSize: 0x24 }
  - { offset: 0x12A862, size: 0x8, addend: 0x0, symName: __ZNSt3__112__hash_tableINS_17__hash_value_typeIPK7MonsterN11MonsterView12MonsterStatsEEENS_22__unordered_map_hasherIS4_S7_NS_4hashIS4_EENS_8equal_toIS4_EELb1EEENS_21__unordered_map_equalIS4_S7_SC_SA_Lb1EEENS_9allocatorIS7_EEE25__emplace_unique_key_argsIS4_JRKNS_21piecewise_construct_tENS_5tupleIJRKS4_EEENSN_IJEEEEEENS_4pairINS_15__hash_iteratorIPNS_11__hash_nodeIS7_PvEEEEbEERKT_DpOT0_, symObjAddr: 0x3D58, symBinAddr: 0x1000275D0, symSize: 0x4B8 }
  - { offset: 0x12A96C, size: 0x8, addend: 0x0, symName: __ZNKSt3__115__hash_iteratorIPNS_11__hash_nodeINS_17__hash_value_typeIPK7MonsterN11MonsterView12MonsterStatsEEEPvEEEptB8ue170006Ev, symObjAddr: 0x4240, symBinAddr: 0x100027AB8, symSize: 0x30 }
  - { offset: 0x12A992, size: 0x8, addend: 0x0, symName: __ZNSt3__112__hash_tableINS_17__hash_value_typeIPK7MonsterN11MonsterView12MonsterStatsEEENS_22__unordered_map_hasherIS4_S7_NS_4hashIS4_EENS_8equal_toIS4_EELb1EEENS_21__unordered_map_equalIS4_S7_SC_SA_Lb1EEENS_9allocatorIS7_EEE21__construct_node_hashIRKNS_21piecewise_construct_tEJNS_5tupleIJRKS4_EEENSN_IJEEEEEENS_10unique_ptrINS_11__hash_nodeIS7_PvEENS_22__hash_node_destructorINSG_ISV_EEEEEEmOT_DpOT0_, symObjAddr: 0x4270, symBinAddr: 0x100027AE8, symSize: 0x150 }
  - { offset: 0x12AA2E, size: 0x8, addend: 0x0, symName: __ZNSt3__112__hash_tableINS_17__hash_value_typeIPK7MonsterN11MonsterView12MonsterStatsEEENS_22__unordered_map_hasherIS4_S7_NS_4hashIS4_EENS_8equal_toIS4_EELb1EEENS_21__unordered_map_equalIS4_S7_SC_SA_Lb1EEENS_9allocatorIS7_EEE15max_load_factorB8ue170006Ev, symObjAddr: 0x43C0, symBinAddr: 0x100027C38, symSize: 0x28 }
  - { offset: 0x12AA54, size: 0x8, addend: 0x0, symName: __ZNSt3__112__hash_tableINS_17__hash_value_typeIPK7MonsterN11MonsterView12MonsterStatsEEENS_22__unordered_map_hasherIS4_S7_NS_4hashIS4_EENS_8equal_toIS4_EELb1EEENS_21__unordered_map_equalIS4_S7_SC_SA_Lb1EEENS_9allocatorIS7_EEE15__rehash_uniqueB8ue170006Em, symObjAddr: 0x43E8, symBinAddr: 0x100027C60, symSize: 0x2C }
  - { offset: 0x12AA88, size: 0x8, addend: 0x0, symName: __Z4ceilB8ue170006f, symObjAddr: 0x4490, symBinAddr: 0x100027CDC, symSize: 0x18 }
  - { offset: 0x12AAB7, size: 0x8, addend: 0x0, symName: __ZNKSt3__110unique_ptrINS_11__hash_nodeINS_17__hash_value_typeIPK7MonsterN11MonsterView12MonsterStatsEEEPvEENS_22__hash_node_destructorINS_9allocatorISA_EEEEEptB8ue170006Ev, symObjAddr: 0x44A8, symBinAddr: 0x100027CF4, symSize: 0x28 }
  - { offset: 0x12AADD, size: 0x8, addend: 0x0, symName: __ZNKSt3__110unique_ptrINS_11__hash_nodeINS_17__hash_value_typeIPK7MonsterN11MonsterView12MonsterStatsEEEPvEENS_22__hash_node_destructorINS_9allocatorISA_EEEEE3getB8ue170006Ev, symObjAddr: 0x44D0, symBinAddr: 0x100027D1C, symSize: 0x28 }
  - { offset: 0x12AB03, size: 0x8, addend: 0x0, symName: __ZNSt3__110unique_ptrINS_11__hash_nodeINS_17__hash_value_typeIPK7MonsterN11MonsterView12MonsterStatsEEEPvEENS_22__hash_node_destructorINS_9allocatorISA_EEEEE7releaseB8ue170006Ev, symObjAddr: 0x44F8, symBinAddr: 0x100027D44, symSize: 0x44 }
  - { offset: 0x12AB44, size: 0x8, addend: 0x0, symName: __ZNSt3__14pairINS_15__hash_iteratorIPNS_11__hash_nodeINS_17__hash_value_typeIPK7MonsterN11MonsterView12MonsterStatsEEEPvEEEEbEC1B8ue170006ISD_RbLSA_0EEEOT_OT0_, symObjAddr: 0x453C, symBinAddr: 0x100027D88, symSize: 0x3C }
  - { offset: 0x12ABA2, size: 0x8, addend: 0x0, symName: __ZNSt3__116allocator_traitsINS_9allocatorINS_11__hash_nodeINS_17__hash_value_typeIPK7MonsterN11MonsterView12MonsterStatsEEEPvEEEEE8allocateB8ue170006ERSC_m, symObjAddr: 0x4578, symBinAddr: 0x100027DC4, symSize: 0x2C }
  - { offset: 0x12ABD5, size: 0x8, addend: 0x0, symName: __ZNSt3__116allocator_traitsINS_9allocatorINS_11__hash_nodeINS_17__hash_value_typeIPK7MonsterN11MonsterView12MonsterStatsEEEPvEEEEE9constructB8ue170006INS_4pairIKS6_S8_EEJRKNS_21piecewise_construct_tENS_5tupleIJRSG_EEENSL_IJEEEEvEEvRSC_PT_DpOT0_, symObjAddr: 0x45A4, symBinAddr: 0x100027DF0, symSize: 0x44 }
  - { offset: 0x12AC54, size: 0x8, addend: 0x0, symName: __ZNSt3__110unique_ptrINS_11__hash_nodeINS_17__hash_value_typeIPK7MonsterN11MonsterView12MonsterStatsEEEPvEENS_22__hash_node_destructorINS_9allocatorISA_EEEEE11get_deleterB8ue170006Ev, symObjAddr: 0x45E8, symBinAddr: 0x100027E34, symSize: 0x24 }
  - { offset: 0x12AC7A, size: 0x8, addend: 0x0, symName: __ZNSt3__19allocatorINS_11__hash_nodeINS_17__hash_value_typeIPK7MonsterN11MonsterView12MonsterStatsEEEPvEEE8allocateB8ue170006Em, symObjAddr: 0x460C, symBinAddr: 0x100027E58, symSize: 0x5C }
  - { offset: 0x12ACB9, size: 0x8, addend: 0x0, symName: __ZNSt3__116allocator_traitsINS_9allocatorINS_11__hash_nodeINS_17__hash_value_typeIPK7MonsterN11MonsterView12MonsterStatsEEEPvEEEEE8max_sizeB8ue170006ISC_vEEmRKSC_, symObjAddr: 0x4668, symBinAddr: 0x100027EB4, symSize: 0x24 }
  - { offset: 0x12ACE7, size: 0x8, addend: 0x0, symName: __ZNKSt3__19allocatorINS_11__hash_nodeINS_17__hash_value_typeIPK7MonsterN11MonsterView12MonsterStatsEEEPvEEE8max_sizeB8ue170006Ev, symObjAddr: 0x4720, symBinAddr: 0x100027ED8, symSize: 0x18 }
  - { offset: 0x12AD0D, size: 0x8, addend: 0x0, symName: __ZNSt3__19allocatorINS_11__hash_nodeINS_17__hash_value_typeIPK7MonsterN11MonsterView12MonsterStatsEEEPvEEE9constructB8ue170006INS_4pairIKS5_S7_EEJRKNS_21piecewise_construct_tENS_5tupleIJRSE_EEENSJ_IJEEEEEEvPT_DpOT0_, symObjAddr: 0x4788, symBinAddr: 0x100027EF0, symSize: 0x44 }
  - { offset: 0x12AD89, size: 0x8, addend: 0x0, symName: __ZNSt3__14pairIKPK7MonsterN11MonsterView12MonsterStatsEEC1B8ue170006IJRS4_EJEEENS_21piecewise_construct_tENS_5tupleIJDpT_EEENSB_IJDpT0_EEE, symObjAddr: 0x47CC, symBinAddr: 0x100027F34, symSize: 0x44 }
  - { offset: 0x12ADF0, size: 0x8, addend: 0x0, symName: __ZNSt3__14pairIKPK7MonsterN11MonsterView12MonsterStatsEEC1B8ue170006IJRS4_EJEJLm0EEJEEENS_21piecewise_construct_tERNS_5tupleIJDpT_EEERNSB_IJDpT0_EEENS_15__tuple_indicesIJXspT1_EEEENSK_IJXspT2_EEEE, symObjAddr: 0x4810, symBinAddr: 0x100027F78, symSize: 0x3C }
  - { offset: 0x12AE7D, size: 0x8, addend: 0x0, symName: __ZNSt3__14pairIKPK7MonsterN11MonsterView12MonsterStatsEEC2B8ue170006IJRS4_EJEJLm0EEJEEENS_21piecewise_construct_tERNS_5tupleIJDpT_EEERNSB_IJDpT0_EEENS_15__tuple_indicesIJXspT1_EEEENSK_IJXspT2_EEEE, symObjAddr: 0x484C, symBinAddr: 0x100027FB4, symSize: 0x50 }
  - { offset: 0x12AF0A, size: 0x8, addend: 0x0, symName: __ZNSt3__112__tuple_leafILm0ERKPK7MonsterLb0EE3getB8ue170006Ev, symObjAddr: 0x48C0, symBinAddr: 0x100028028, symSize: 0x18 }
  - { offset: 0x12AF30, size: 0x8, addend: 0x0, symName: __ZNSt3__117__compressed_pairIfNS_21__unordered_map_equalIPK7MonsterNS_17__hash_value_typeIS4_N11MonsterView12MonsterStatsEEENS_8equal_toIS4_EENS_4hashIS4_EELb1EEEE5firstB8ue170006Ev, symObjAddr: 0x48D8, symBinAddr: 0x100028040, symSize: 0x24 }
  - { offset: 0x12AF56, size: 0x8, addend: 0x0, symName: __ZNSt3__122__compressed_pair_elemIfLi0ELb0EE5__getB8ue170006Ev, symObjAddr: 0x48FC, symBinAddr: 0x100028064, symSize: 0x14 }
  - { offset: 0x12AF7C, size: 0x8, addend: 0x0, symName: __ZNSt3__112__hash_tableINS_17__hash_value_typeIPK7MonsterN11MonsterView12MonsterStatsEEENS_22__unordered_map_hasherIS4_S7_NS_4hashIS4_EENS_8equal_toIS4_EELb1EEENS_21__unordered_map_equalIS4_S7_SC_SA_Lb1EEENS_9allocatorIS7_EEE8__rehashILb1EEEvm, symObjAddr: 0x4910, symBinAddr: 0x100028078, symSize: 0x1A8 }
  - { offset: 0x12AFCC, size: 0x8, addend: 0x0, symName: __ZNSt3__112__hash_tableINS_17__hash_value_typeIPK7MonsterN11MonsterView12MonsterStatsEEENS_22__unordered_map_hasherIS4_S7_NS_4hashIS4_EENS_8equal_toIS4_EELb1EEENS_21__unordered_map_equalIS4_S7_SC_SA_Lb1EEENS_9allocatorIS7_EEE11__do_rehashILb1EEEvm, symObjAddr: 0x4AB8, symBinAddr: 0x100028220, symSize: 0x288 }
  - { offset: 0x12B0AF, size: 0x8, addend: 0x0, symName: __ZNSt3__110unique_ptrIA_PNS_16__hash_node_baseIPNS_11__hash_nodeINS_17__hash_value_typeIPK7MonsterN11MonsterView12MonsterStatsEEEPvEEEENS_25__bucket_list_deallocatorINS_9allocatorISE_EEEEE11get_deleterB8ue170006Ev, symObjAddr: 0x4DAC, symBinAddr: 0x100028514, symSize: 0x24 }
  - { offset: 0x12B0D5, size: 0x8, addend: 0x0, symName: __ZNSt3__110unique_ptrIA_PNS_16__hash_node_baseIPNS_11__hash_nodeINS_17__hash_value_typeIPK7MonsterN11MonsterView12MonsterStatsEEEPvEEEENS_25__bucket_list_deallocatorINS_9allocatorISE_EEEEE5resetB8ue170006IPSE_EENS_9enable_ifIXsr28_CheckArrayPointerConversionIT_EE5valueEvE4typeESO_, symObjAddr: 0x4DD0, symBinAddr: 0x100028538, symSize: 0x78 }
  - { offset: 0x12B122, size: 0x8, addend: 0x0, symName: __ZNSt3__116allocator_traitsINS_9allocatorIPNS_16__hash_node_baseIPNS_11__hash_nodeINS_17__hash_value_typeIPK7MonsterN11MonsterView12MonsterStatsEEEPvEEEEEEE8allocateB8ue170006ERSG_m, symObjAddr: 0x4E48, symBinAddr: 0x1000285B0, symSize: 0x2C }
  - { offset: 0x12B155, size: 0x8, addend: 0x0, symName: __ZNSt3__19allocatorIPNS_16__hash_node_baseIPNS_11__hash_nodeINS_17__hash_value_typeIPK7MonsterN11MonsterView12MonsterStatsEEEPvEEEEE8allocateB8ue170006Em, symObjAddr: 0x4E74, symBinAddr: 0x1000285DC, symSize: 0x58 }
  - { offset: 0x12B194, size: 0x8, addend: 0x0, symName: __ZNSt3__116allocator_traitsINS_9allocatorIPNS_16__hash_node_baseIPNS_11__hash_nodeINS_17__hash_value_typeIPK7MonsterN11MonsterView12MonsterStatsEEEPvEEEEEEE8max_sizeB8ue170006ISG_vEEmRKSG_, symObjAddr: 0x4ECC, symBinAddr: 0x100028634, symSize: 0x24 }
  - { offset: 0x12B1C2, size: 0x8, addend: 0x0, symName: __ZNKSt3__19allocatorIPNS_16__hash_node_baseIPNS_11__hash_nodeINS_17__hash_value_typeIPK7MonsterN11MonsterView12MonsterStatsEEEPvEEEEE8max_sizeB8ue170006Ev, symObjAddr: 0x4EF0, symBinAddr: 0x100028658, symSize: 0x14 }
  - { offset: 0x12B1E8, size: 0x8, addend: 0x0, symName: __ZNKSt3__117__compressed_pairIPNS_11__hash_nodeINS_17__hash_value_typeIPK7MonsterN11MonsterView12MonsterStatsEEEPvEENS_22__hash_node_destructorINS_9allocatorISA_EEEEE5firstB8ue170006Ev, symObjAddr: 0x4FA8, symBinAddr: 0x10002866C, symSize: 0x24 }
  - { offset: 0x12B20E, size: 0x8, addend: 0x0, symName: __ZNKSt3__122__compressed_pair_elemIPNS_11__hash_nodeINS_17__hash_value_typeIPK7MonsterN11MonsterView12MonsterStatsEEEPvEELi0ELb0EE5__getB8ue170006Ev, symObjAddr: 0x4FCC, symBinAddr: 0x100028690, symSize: 0x14 }
  - { offset: 0x12B234, size: 0x8, addend: 0x0, symName: __ZNSt3__14pairINS_15__hash_iteratorIPNS_11__hash_nodeINS_17__hash_value_typeIPK7MonsterN11MonsterView12MonsterStatsEEEPvEEEEbEC2B8ue170006ISD_RbLSA_0EEEOT_OT0_, symObjAddr: 0x4FE0, symBinAddr: 0x1000286A4, symSize: 0x38 }
  - { offset: 0x12B292, size: 0x8, addend: 0x0, symName: __ZNSt3__15tupleIJRKPK7MonsterEEC1B8ue170006INS_4_AndELi0EEES5_, symObjAddr: 0x5018, symBinAddr: 0x1000286DC, symSize: 0x34 }
  - { offset: 0x12B2DB, size: 0x8, addend: 0x0, symName: __ZNSt3__15tupleIJRKPK7MonsterEEC2B8ue170006INS_4_AndELi0EEES5_, symObjAddr: 0x504C, symBinAddr: 0x100028710, symSize: 0x34 }
  - { offset: 0x12B324, size: 0x8, addend: 0x0, symName: __ZNSt3__112__tuple_implINS_15__tuple_indicesIJLm0EEEEJRKPK7MonsterEEC1B8ue170006IJLm0EEJS7_EJEJEJS7_EEENS1_IJXspT_EEEENS_13__tuple_typesIJDpT0_EEENS1_IJXspT1_EEEENSB_IJDpT2_EEEDpOT3_, symObjAddr: 0x5080, symBinAddr: 0x100028744, symSize: 0x34 }
  - { offset: 0x12B3B5, size: 0x8, addend: 0x0, symName: __ZNSt3__112__tuple_implINS_15__tuple_indicesIJLm0EEEEJRKPK7MonsterEEC2B8ue170006IJLm0EEJS7_EJEJEJS7_EEENS1_IJXspT_EEEENS_13__tuple_typesIJDpT0_EEENS1_IJXspT1_EEEENSB_IJDpT2_EEEDpOT3_, symObjAddr: 0x50B4, symBinAddr: 0x100028778, symSize: 0x34 }
  - { offset: 0x12B446, size: 0x8, addend: 0x0, symName: __ZNSt3__112__tuple_leafILm0ERKPK7MonsterLb0EEC2B8ue170006IS5_vEEOT_, symObjAddr: 0x50E8, symBinAddr: 0x1000287AC, symSize: 0x20 }
  - { offset: 0x12B489, size: 0x8, addend: 0x0, symName: __ZNSt3__114pointer_traitsIPNS_17__hash_value_typeIPK7MonsterN11MonsterView12MonsterStatsEEEE10pointer_toB8ue170006ERS7_, symObjAddr: 0x5108, symBinAddr: 0x1000287CC, symSize: 0x14 }
  - { offset: 0x12B4AC, size: 0x8, addend: 0x0, symName: __ZNKSt3__112__hash_tableINS_17__hash_value_typeIPK7MonsterN11MonsterView12MonsterStatsEEENS_22__unordered_map_hasherIS4_S7_NS_4hashIS4_EENS_8equal_toIS4_EELb1EEENS_21__unordered_map_equalIS4_S7_SC_SA_Lb1EEENS_9allocatorIS7_EEE4findIS4_EENS_21__hash_const_iteratorIPNS_11__hash_nodeIS7_PvEEEERKT_, symObjAddr: 0x511C, symBinAddr: 0x1000287E0, symSize: 0x1B8 }
  - { offset: 0x12B536, size: 0x8, addend: 0x0, symName: __ZNSt3__125__hash_map_const_iteratorINS_21__hash_const_iteratorIPNS_11__hash_nodeINS_17__hash_value_typeIPK7MonsterN11MonsterView12MonsterStatsEEEPvEEEEEC1B8ue170006ESD_, symObjAddr: 0x52D4, symBinAddr: 0x100028998, symSize: 0x34 }
  - { offset: 0x12B56F, size: 0x8, addend: 0x0, symName: __ZNKSt3__112__hash_tableINS_17__hash_value_typeIPK7MonsterN11MonsterView12MonsterStatsEEENS_22__unordered_map_hasherIS4_S7_NS_4hashIS4_EENS_8equal_toIS4_EELb1EEENS_21__unordered_map_equalIS4_S7_SC_SA_Lb1EEENS_9allocatorIS7_EEE13hash_functionB8ue170006Ev, symObjAddr: 0x5308, symBinAddr: 0x1000289CC, symSize: 0x28 }
  - { offset: 0x12B595, size: 0x8, addend: 0x0, symName: __ZNKSt3__112__hash_tableINS_17__hash_value_typeIPK7MonsterN11MonsterView12MonsterStatsEEENS_22__unordered_map_hasherIS4_S7_NS_4hashIS4_EENS_8equal_toIS4_EELb1EEENS_21__unordered_map_equalIS4_S7_SC_SA_Lb1EEENS_9allocatorIS7_EEE6key_eqB8ue170006Ev, symObjAddr: 0x5330, symBinAddr: 0x1000289F4, symSize: 0x28 }
  - { offset: 0x12B5BB, size: 0x8, addend: 0x0, symName: __ZNSt3__121__hash_const_iteratorIPNS_11__hash_nodeINS_17__hash_value_typeIPK7MonsterN11MonsterView12MonsterStatsEEEPvEEEC1B8ue170006EPNS_16__hash_node_baseISB_EE, symObjAddr: 0x5358, symBinAddr: 0x100028A1C, symSize: 0x34 }
  - { offset: 0x12B5F4, size: 0x8, addend: 0x0, symName: __ZNKSt3__112__hash_tableINS_17__hash_value_typeIPK7MonsterN11MonsterView12MonsterStatsEEENS_22__unordered_map_hasherIS4_S7_NS_4hashIS4_EENS_8equal_toIS4_EELb1EEENS_21__unordered_map_equalIS4_S7_SC_SA_Lb1EEENS_9allocatorIS7_EEE3endEv, symObjAddr: 0x538C, symBinAddr: 0x100028A50, symSize: 0x2C }
  - { offset: 0x12B61C, size: 0x8, addend: 0x0, symName: __ZNKSt3__117__compressed_pairImNS_22__unordered_map_hasherIPK7MonsterNS_17__hash_value_typeIS4_N11MonsterView12MonsterStatsEEENS_4hashIS4_EENS_8equal_toIS4_EELb1EEEE6secondB8ue170006Ev, symObjAddr: 0x53B8, symBinAddr: 0x100028A7C, symSize: 0x24 }
  - { offset: 0x12B642, size: 0x8, addend: 0x0, symName: __ZNKSt3__122__compressed_pair_elemINS_22__unordered_map_hasherIPK7MonsterNS_17__hash_value_typeIS4_N11MonsterView12MonsterStatsEEENS_4hashIS4_EENS_8equal_toIS4_EELb1EEELi1ELb1EE5__getB8ue170006Ev, symObjAddr: 0x53DC, symBinAddr: 0x100028AA0, symSize: 0x14 }
  - { offset: 0x12B668, size: 0x8, addend: 0x0, symName: __ZNKSt3__117__compressed_pairIfNS_21__unordered_map_equalIPK7MonsterNS_17__hash_value_typeIS4_N11MonsterView12MonsterStatsEEENS_8equal_toIS4_EENS_4hashIS4_EELb1EEEE6secondB8ue170006Ev, symObjAddr: 0x53F0, symBinAddr: 0x100028AB4, symSize: 0x24 }
  - { offset: 0x12B68E, size: 0x8, addend: 0x0, symName: __ZNKSt3__122__compressed_pair_elemINS_21__unordered_map_equalIPK7MonsterNS_17__hash_value_typeIS4_N11MonsterView12MonsterStatsEEENS_8equal_toIS4_EENS_4hashIS4_EELb1EEELi1ELb1EE5__getB8ue170006Ev, symObjAddr: 0x5414, symBinAddr: 0x100028AD8, symSize: 0x14 }
  - { offset: 0x12B6B4, size: 0x8, addend: 0x0, symName: __ZNSt3__121__hash_const_iteratorIPNS_11__hash_nodeINS_17__hash_value_typeIPK7MonsterN11MonsterView12MonsterStatsEEEPvEEEC2B8ue170006EPNS_16__hash_node_baseISB_EE, symObjAddr: 0x5428, symBinAddr: 0x100028AEC, symSize: 0x20 }
  - { offset: 0x12B6ED, size: 0x8, addend: 0x0, symName: __ZNSt3__125__hash_map_const_iteratorINS_21__hash_const_iteratorIPNS_11__hash_nodeINS_17__hash_value_typeIPK7MonsterN11MonsterView12MonsterStatsEEEPvEEEEEC2B8ue170006ESD_, symObjAddr: 0x5448, symBinAddr: 0x100028B0C, symSize: 0x20 }
  - { offset: 0x12B726, size: 0x8, addend: 0x0, symName: __ZNSt3__114pointer_traitsIPKNS_4pairIKPK7MonsterN11MonsterView12MonsterStatsEEEE10pointer_toB8ue170006ERS9_, symObjAddr: 0x54CC, symBinAddr: 0x100028B90, symSize: 0x14 }
  - { offset: 0x12B749, size: 0x8, addend: 0x0, symName: __ZNKSt3__121__hash_const_iteratorIPNS_11__hash_nodeINS_17__hash_value_typeIPK7MonsterN11MonsterView12MonsterStatsEEEPvEEEptB8ue170006Ev, symObjAddr: 0x54E0, symBinAddr: 0x100028BA4, symSize: 0x30 }
  - { offset: 0x12B76F, size: 0x8, addend: 0x0, symName: __ZNSt3__114pointer_traitsIPKNS_17__hash_value_typeIPK7MonsterN11MonsterView12MonsterStatsEEEE10pointer_toB8ue170006ERS8_, symObjAddr: 0x5510, symBinAddr: 0x100028BD4, symSize: 0x14 }
  - { offset: 0x13E65E, size: 0x8, addend: 0x0, symName: __ZNSt3__17advanceB8ue170006IPN2sf7Vector2IfEEllvEEvRT_T0_, symObjAddr: 0x62A0, symBinAddr: 0x10002D2A0, symSize: 0x38 }
  - { offset: 0x13F362, size: 0x8, addend: 0x0, symName: __ZNSt3__1neB8ue170006ERKNS_19__hash_map_iteratorINS_15__hash_iteratorIPNS_11__hash_nodeINS_17__hash_value_typeIPK8MapSetupN12MapSetupView12MapSetupDataEEEPvEEEEEESG_, symObjAddr: 0x111C, symBinAddr: 0x100029B44, symSize: 0x30 }
  - { offset: 0x13F39F, size: 0x8, addend: 0x0, symName: __ZNSt3__1neB8ue170006IPKNS_6vectorI4TileNS_9allocatorIS2_EEEEEEbRKNS_11__wrap_iterIT_EESC_, symObjAddr: 0x11D4, symBinAddr: 0x100029BFC, symSize: 0x34 }
  - { offset: 0x13F3E2, size: 0x8, addend: 0x0, symName: __ZNSt3__1neB8ue170006IPK4TileEEbRKNS_11__wrap_iterIT_EES8_, symObjAddr: 0x1280, symBinAddr: 0x100029CA8, symSize: 0x34 }
  - { offset: 0x13F425, size: 0x8, addend: 0x0, symName: __ZNSt3__1eqB8ue170006IPKNS_6vectorI4TileNS_9allocatorIS2_EEEEEEbRKNS_11__wrap_iterIT_EESC_, symObjAddr: 0x13B4, symBinAddr: 0x100029DDC, symSize: 0x48 }
  - { offset: 0x13F468, size: 0x8, addend: 0x0, symName: __ZNSt3__1eqB8ue170006IPK4TileEEbRKNS_11__wrap_iterIT_EES8_, symObjAddr: 0x1414, symBinAddr: 0x100029E3C, symSize: 0x48 }
  - { offset: 0x13F4DE, size: 0x8, addend: 0x0, symName: __ZNSt3__112__to_addressB8ue170006INS_6vectorI4TileNS_9allocatorIS2_EEEEEEPT_S7_, symObjAddr: 0x28AC, symBinAddr: 0x10002ACA4, symSize: 0x14 }
  - { offset: 0x13F513, size: 0x8, addend: 0x0, symName: __ZNSt3__17launderB8ue170006INS_4pairIKPK8MapSetupN12MapSetupView12MapSetupDataEEEEEPT_SA_, symObjAddr: 0x2A58, symBinAddr: 0x10002AE50, symSize: 0x24 }
  - { offset: 0x13F54A, size: 0x8, addend: 0x0, symName: __ZNSt3__19__launderB8ue170006INS_4pairIKPK8MapSetupN12MapSetupView12MapSetupDataEEEEEPT_SA_, symObjAddr: 0x2A7C, symBinAddr: 0x10002AE74, symSize: 0x14 }
  - { offset: 0x13F581, size: 0x8, addend: 0x0, symName: __ZNSt3__116forward_as_tupleB8ue170006IJRKPK8MapSetupEEENS_5tupleIJDpOT_EEES9_, symObjAddr: 0x340C, symBinAddr: 0x10002B648, symSize: 0x2C }
  - { offset: 0x13F5BA, size: 0x8, addend: 0x0, symName: __ZNSt3__17launderB8ue170006IKNS_4pairIKPK8MapSetupN12MapSetupView12MapSetupDataEEEEEPT_SB_, symObjAddr: 0x4970, symBinAddr: 0x10002BCF4, symSize: 0x24 }
  - { offset: 0x13F5F1, size: 0x8, addend: 0x0, symName: __ZNSt3__19__launderB8ue170006IKNS_4pairIKPK8MapSetupN12MapSetupView12MapSetupDataEEEEEPT_SB_, symObjAddr: 0x4994, symBinAddr: 0x10002BD18, symSize: 0x14 }
  - { offset: 0x13F646, size: 0x8, addend: 0x0, symName: __ZNSt3__13getB8ue170006ILm0EJRKPK8MapSetupEEERNS_13tuple_elementIXT_ENS_5tupleIJDpT0_EEEE4typeERSA_, symObjAddr: 0x4EAC, symBinAddr: 0x10002C14C, symSize: 0x24 }
  - { offset: 0x13F6D1, size: 0x8, addend: 0x0, symName: __ZNSt3__18distanceB8ue170006IPN2sf7Vector2IfEEEENS_15iterator_traitsIT_E15difference_typeES6_S6_, symObjAddr: 0x5EF0, symBinAddr: 0x10002CEF0, symSize: 0x2C }
  - { offset: 0x13F714, size: 0x8, addend: 0x0, symName: __ZNSt3__14nextB8ue170006IPN2sf7Vector2IfEEEENS_9enable_ifIXsr29__has_input_iterator_categoryIT_EE5valueES6_E4typeES6_NS_15iterator_traitsIS6_E15difference_typeE, symObjAddr: 0x5F1C, symBinAddr: 0x10002CF1C, symSize: 0x34 }
  - { offset: 0x13F757, size: 0x8, addend: 0x0, symName: __ZNSt3__14copyB8ue170006IPN2sf7Vector2IfEES4_EET0_T_S6_S5_, symObjAddr: 0x5F50, symBinAddr: 0x10002CF50, symSize: 0x40 }
  - { offset: 0x13F7B1, size: 0x8, addend: 0x0, symName: __ZNSt3__16__copyB8ue170006INS_17_ClassicAlgPolicyEPN2sf7Vector2IfEES5_S5_EENS_4pairIT0_T2_EES7_T1_S8_, symObjAddr: 0x601C, symBinAddr: 0x10002D01C, symSize: 0x44 }
  - { offset: 0x13F81D, size: 0x8, addend: 0x0, symName: __ZNSt3__19__advanceB8ue170006IPN2sf7Vector2IfEEEEvRT_NS_15iterator_traitsIS5_E15difference_typeENS_26random_access_iterator_tagE, symObjAddr: 0x62EC, symBinAddr: 0x10002D2D8, symSize: 0x28 }
  - { offset: 0x13F866, size: 0x8, addend: 0x0, symName: __ZNSt3__130__uninitialized_allocator_copyB8ue170006INS_9allocatorIN2sf7Vector2IfEEEEPS4_S6_S6_EET2_RT_T0_T1_S7_, symObjAddr: 0x6350, symBinAddr: 0x10002D33C, symSize: 0x80 }
  - { offset: 0x13F903, size: 0x8, addend: 0x0, symName: __ZNSt3__114__unwrap_rangeB8ue170006IPN2sf7Vector2IfEES4_EENS_4pairIT0_S6_EET_S8_, symObjAddr: 0x6440, symBinAddr: 0x10002D42C, symSize: 0x60 }
  - { offset: 0x13F94F, size: 0x8, addend: 0x0, symName: __ZNSt3__135__uninitialized_allocator_copy_implB8ue170006INS_9allocatorIN2sf7Vector2IfEEEES4_S4_S4_LPv0EEEPT2_RT_PT0_SC_S8_, symObjAddr: 0x64A0, symBinAddr: 0x10002D48C, symSize: 0x38 }
  - { offset: 0x13F9D0, size: 0x8, addend: 0x0, symName: __ZNSt3__113__unwrap_iterB8ue170006IPN2sf7Vector2IfEENS_18__unwrap_iter_implIS4_Lb1EEELi0EEEDTclsrT0_8__unwrapclsr3stdE7declvalIT_EEEES8_, symObjAddr: 0x64D8, symBinAddr: 0x10002D4C4, symSize: 0x24 }
  - { offset: 0x13FA14, size: 0x8, addend: 0x0, symName: __ZNSt3__113__rewrap_iterB8ue170006IPN2sf7Vector2IfEES4_NS_18__unwrap_iter_implIS4_Lb1EEEEET_S7_T0_, symObjAddr: 0x64FC, symBinAddr: 0x10002D4E8, symSize: 0x3C }
  - { offset: 0x13FA69, size: 0x8, addend: 0x0, symName: __ZNSt3__19make_pairB8ue170006IPN2sf7Vector2IfEES4_EENS_4pairINS_18__unwrap_ref_decayIT_E4typeENS6_IT0_E4typeEEEOS7_OSA_, symObjAddr: 0x6538, symBinAddr: 0x10002D524, symSize: 0x38 }
  - { offset: 0x13FC0E, size: 0x8, addend: 0x0, symName: __ZNSt3__123__dispatch_copy_or_moveB8ue170006INS_17_ClassicAlgPolicyENS_11__copy_loopIS1_EENS_14__copy_trivialEPN2sf7Vector2IfEES8_S8_EENS_4pairIT2_T4_EESA_T3_SB_, symObjAddr: 0x6674, symBinAddr: 0x10002D660, symSize: 0x44 }
  - { offset: 0x13FC8C, size: 0x8, addend: 0x0, symName: __ZNSt3__121__unwrap_and_dispatchB8ue170006INS_10__overloadINS_11__copy_loopINS_17_ClassicAlgPolicyEEENS_14__copy_trivialEEEPN2sf7Vector2IfEESA_SA_Li0EEENS_4pairIT0_T2_EESC_T1_SD_, symObjAddr: 0x66B8, symBinAddr: 0x10002D6A4, symSize: 0xB4 }
  - { offset: 0x13FD60, size: 0x8, addend: 0x0, symName: __ZNSt3__114__rewrap_rangeB8ue170006IPN2sf7Vector2IfEES4_EET_S5_T0_, symObjAddr: 0x67B4, symBinAddr: 0x10002D7A0, symSize: 0x2C }
  - { offset: 0x13FDAC, size: 0x8, addend: 0x0, symName: __ZNSt3__119__copy_trivial_implB8ue170006IN2sf7Vector2IfEES3_EENS_4pairIPT_PT0_EES6_S6_S8_, symObjAddr: 0x67E0, symBinAddr: 0x10002D7CC, symSize: 0x80 }
  - { offset: 0x13FE14, size: 0x8, addend: 0x0, symName: __ZNSt3__119__constexpr_memmoveB8ue170006IN2sf7Vector2IfEES3_Li0EEEPT_S5_PT0_NS_15__element_countE, symObjAddr: 0x6860, symBinAddr: 0x10002D84C, symSize: 0x64 }
  - { offset: 0x13FE82, size: 0x8, addend: 0x0, symName: __ZNSt3__19make_pairB8ue170006IRPN2sf7Vector2IfEES4_EENS_4pairINS_18__unwrap_ref_decayIT_E4typeENS7_IT0_E4typeEEEOS8_OSB_, symObjAddr: 0x68C4, symBinAddr: 0x10002D8B0, symSize: 0x38 }
  - { offset: 0x13FED1, size: 0x8, addend: 0x0, symName: __ZNSt3__119__allocate_at_leastB8ue170006INS_9allocatorIN2sf7Vector2IfEEEEEENS_19__allocation_resultINS_16allocator_traitsIT_E7pointerEEERS8_m, symObjAddr: 0x6B40, symBinAddr: 0x10002DB2C, symSize: 0x40 }
  - { offset: 0x13FF14, size: 0x8, addend: 0x0, symName: __ZNSt3__110__distanceB8ue170006IPN2sf7Vector2IfEEEENS_15iterator_traitsIT_E15difference_typeES6_S6_NS_26random_access_iterator_tagE, symObjAddr: 0x6E94, symBinAddr: 0x10002DD08, symSize: 0x28 }
  - { offset: 0x13FF61, size: 0x8, addend: 0x0, symName: __ZNSt3__112__to_addressB8ue170006I4TileEEPT_S3_, symObjAddr: 0x7454, symBinAddr: 0x10002E2C8, symSize: 0x14 }
  - { offset: 0x13FF96, size: 0x8, addend: 0x0, symName: __ZNSt3__119__allocate_at_leastB8ue170006INS_9allocatorI4TileEEEENS_19__allocation_resultINS_16allocator_traitsIT_E7pointerEEERS6_m, symObjAddr: 0x801C, symBinAddr: 0x10002ECAC, symSize: 0x40 }
  - { offset: 0x13FFD9, size: 0x8, addend: 0x0, symName: __ZNSt3__142__uninitialized_allocator_move_if_noexceptB8ue170006INS_9allocatorI4TileEENS_16reverse_iteratorIPS2_EES6_S6_EET2_RT_T0_T1_S7_, symObjAddr: 0x81D4, symBinAddr: 0x10002EE64, symSize: 0x12C }
  - { offset: 0x140079, size: 0x8, addend: 0x0, symName: __ZNSt3__14swapB8ue170006IP4TileEENS_9enable_ifIXaasr21is_move_constructibleIT_EE5valuesr18is_move_assignableIS4_EE5valueEvE4typeERS4_S7_, symObjAddr: 0x834C, symBinAddr: 0x10002EFDC, symSize: 0x3C }
  - { offset: 0x1400CA, size: 0x8, addend: 0x0, symName: __ZNSt3__122__make_exception_guardB8ue170006INS_29_AllocatorDestroyRangeReverseINS_9allocatorI4TileEENS_16reverse_iteratorIPS3_EEEEEENS_28__exception_guard_exceptionsIT_EESA_, symObjAddr: 0x8450, symBinAddr: 0x10002F0E0, symSize: 0x4C }
  - { offset: 0x140100, size: 0x8, addend: 0x0, symName: __ZNSt3__1neB8ue170006IP4TileS2_EEbRKNS_16reverse_iteratorIT_EERKNS3_IT0_EE, symObjAddr: 0x84E0, symBinAddr: 0x10002F170, symSize: 0x48 }
  - { offset: 0x14014C, size: 0x8, addend: 0x0, symName: __ZNSt3__112__to_addressB8ue170006INS_16reverse_iteratorIP4TileEEvEEu7__decayIDTclsr19__to_address_helperIT_EE6__callclsr3stdE7declvalIRKS5_EEEEES7_, symObjAddr: 0x855C, symBinAddr: 0x10002F1EC, symSize: 0x24 }
  - { offset: 0x1401AB, size: 0x8, addend: 0x0, symName: __ZNSt3__119__allocator_destroyB8ue170006INS_9allocatorI4TileEENS_16reverse_iteratorINS4_IPS2_EEEES7_EEvRT_T0_T1_, symObjAddr: 0x883C, symBinAddr: 0x10002F4CC, symSize: 0x70 }
  - { offset: 0x140210, size: 0x8, addend: 0x0, symName: __ZNSt3__1neB8ue170006INS_16reverse_iteratorIP4TileEES4_EEbRKNS1_IT_EERKNS1_IT0_EE, symObjAddr: 0x88E8, symBinAddr: 0x10002F578, symSize: 0x60 }
  - { offset: 0x14025C, size: 0x8, addend: 0x0, symName: __ZNSt3__112__to_addressB8ue170006INS_16reverse_iteratorINS1_IP4TileEEEEvEEu7__decayIDTclsr19__to_address_helperIT_EE6__callclsr3stdE7declvalIRKS6_EEEEES8_, symObjAddr: 0x8948, symBinAddr: 0x10002F5D8, symSize: 0x24 }
  - { offset: 0x1402BB, size: 0x8, addend: 0x0, symName: __ZNSt3__122__make_exception_guardB8ue170006INS_6vectorI4TileNS_9allocatorIS2_EEE16__destroy_vectorEEENS_28__exception_guard_exceptionsIT_EES8_, symObjAddr: 0x91D4, symBinAddr: 0x10002FE64, symSize: 0x40 }
  - { offset: 0x1402F0, size: 0x8, addend: 0x0, symName: __ZNSt3__130__uninitialized_allocator_copyB8ue170006INS_9allocatorI4TileEEPS2_S4_S4_EET2_RT_T0_T1_S5_, symObjAddr: 0x93F4, symBinAddr: 0x100030084, symSize: 0x80 }
  - { offset: 0x14038D, size: 0x8, addend: 0x0, symName: __ZNSt3__114__unwrap_rangeB8ue170006IP4TileS2_EENS_4pairIT0_S4_EET_S6_, symObjAddr: 0x9474, symBinAddr: 0x100030104, symSize: 0x60 }
  - { offset: 0x1403D9, size: 0x8, addend: 0x0, symName: __ZNSt3__135__uninitialized_allocator_copy_implB8ue170006INS_9allocatorI4TileEEPS2_S4_S4_EET2_RT_T0_T1_S5_, symObjAddr: 0x94D4, symBinAddr: 0x100030164, symSize: 0xF4 }
  - { offset: 0x140477, size: 0x8, addend: 0x0, symName: __ZNSt3__113__unwrap_iterB8ue170006IP4TileNS_18__unwrap_iter_implIS2_Lb1EEELi0EEEDTclsrT0_8__unwrapclsr3stdE7declvalIT_EEEES6_, symObjAddr: 0x95C8, symBinAddr: 0x100030258, symSize: 0x24 }
  - { offset: 0x1404BB, size: 0x8, addend: 0x0, symName: __ZNSt3__113__rewrap_iterB8ue170006IP4TileS2_NS_18__unwrap_iter_implIS2_Lb1EEEEET_S5_T0_, symObjAddr: 0x95EC, symBinAddr: 0x10003027C, symSize: 0x3C }
  - { offset: 0x140510, size: 0x8, addend: 0x0, symName: __ZNSt3__19make_pairB8ue170006IP4TileS2_EENS_4pairINS_18__unwrap_ref_decayIT_E4typeENS4_IT0_E4typeEEEOS5_OS8_, symObjAddr: 0x9628, symBinAddr: 0x1000302B8, symSize: 0x38 }
  - { offset: 0x140633, size: 0x8, addend: 0x0, symName: __ZNSt3__122__make_exception_guardB8ue170006INS_29_AllocatorDestroyRangeReverseINS_9allocatorI4TileEEPS3_EEEENS_28__exception_guard_exceptionsIT_EES8_, symObjAddr: 0x96D0, symBinAddr: 0x100030360, symSize: 0x4C }
  - { offset: 0x140669, size: 0x8, addend: 0x0, symName: __ZNSt3__119__allocator_destroyB8ue170006INS_9allocatorI4TileEENS_16reverse_iteratorIPS2_EES6_EEvRT_T0_T1_, symObjAddr: 0x98FC, symBinAddr: 0x10003058C, symSize: 0x70 }
  - { offset: 0x14071F, size: 0x8, addend: 0x0, symName: __ZNSt3__119__allocate_at_leastB8ue170006INS_9allocatorINS_6vectorI4TileNS1_IS3_EEEEEEEENS_19__allocation_resultINS_16allocator_traitsIT_E7pointerEEERS9_m, symObjAddr: 0x9EB8, symBinAddr: 0x100030B48, symSize: 0x40 }
  - { offset: 0x140762, size: 0x8, addend: 0x0, symName: __ZNSt3__142__uninitialized_allocator_move_if_noexceptB8ue170006INS_9allocatorINS_6vectorI4TileNS1_IS3_EEEEEENS_16reverse_iteratorIPS5_EES9_S9_EET2_RT_T0_T1_SA_, symObjAddr: 0xA070, symBinAddr: 0x100030D00, symSize: 0x12C }
  - { offset: 0x140802, size: 0x8, addend: 0x0, symName: __ZNSt3__14swapB8ue170006IPNS_6vectorI4TileNS_9allocatorIS2_EEEEEENS_9enable_ifIXaasr21is_move_constructibleIT_EE5valuesr18is_move_assignableIS8_EE5valueEvE4typeERS8_SB_, symObjAddr: 0xA1E8, symBinAddr: 0x100030E78, symSize: 0x3C }
  - { offset: 0x140853, size: 0x8, addend: 0x0, symName: __ZNSt3__122__make_exception_guardB8ue170006INS_29_AllocatorDestroyRangeReverseINS_9allocatorINS_6vectorI4TileNS2_IS4_EEEEEENS_16reverse_iteratorIPS6_EEEEEENS_28__exception_guard_exceptionsIT_EESD_, symObjAddr: 0xA2EC, symBinAddr: 0x100030F7C, symSize: 0x4C }
  - { offset: 0x140889, size: 0x8, addend: 0x0, symName: __ZNSt3__1neB8ue170006IPNS_6vectorI4TileNS_9allocatorIS2_EEEES6_EEbRKNS_16reverse_iteratorIT_EERKNS7_IT0_EE, symObjAddr: 0xA37C, symBinAddr: 0x10003100C, symSize: 0x48 }
  - { offset: 0x1408D5, size: 0x8, addend: 0x0, symName: __ZNSt3__112__to_addressB8ue170006INS_16reverse_iteratorIPNS_6vectorI4TileNS_9allocatorIS3_EEEEEEvEEu7__decayIDTclsr19__to_address_helperIT_EE6__callclsr3stdE7declvalIRKS9_EEEEESB_, symObjAddr: 0xA3F8, symBinAddr: 0x100031088, symSize: 0x24 }
  - { offset: 0x140934, size: 0x8, addend: 0x0, symName: __ZNSt3__119__allocator_destroyB8ue170006INS_9allocatorINS_6vectorI4TileNS1_IS3_EEEEEENS_16reverse_iteratorINS7_IPS5_EEEESA_EEvRT_T0_T1_, symObjAddr: 0xA7D0, symBinAddr: 0x100031460, symSize: 0x70 }
  - { offset: 0x140999, size: 0x8, addend: 0x0, symName: __ZNSt3__1neB8ue170006INS_16reverse_iteratorIPNS_6vectorI4TileNS_9allocatorIS3_EEEEEES8_EEbRKNS1_IT_EERKNS1_IT0_EE, symObjAddr: 0xA87C, symBinAddr: 0x10003150C, symSize: 0x60 }
  - { offset: 0x1409E5, size: 0x8, addend: 0x0, symName: __ZNSt3__112__to_addressB8ue170006INS_16reverse_iteratorINS1_IPNS_6vectorI4TileNS_9allocatorIS3_EEEEEEEEvEEu7__decayIDTclsr19__to_address_helperIT_EE6__callclsr3stdE7declvalIRKSA_EEEEESC_, symObjAddr: 0xA8DC, symBinAddr: 0x10003156C, symSize: 0x24 }
  - { offset: 0x140A44, size: 0x8, addend: 0x0, symName: __ZNSt3__1neB8ue170006ERKNS_15__hash_iteratorIPNS_11__hash_nodeINS_17__hash_value_typeIPK8MapSetupN12MapSetupView12MapSetupDataEEEPvEEEESE_, symObjAddr: 0xACFC, symBinAddr: 0x10003198C, symSize: 0x34 }
  - { offset: 0x140A81, size: 0x8, addend: 0x0, symName: __ZNSt3__1eqB8ue170006ERKNS_15__hash_iteratorIPNS_11__hash_nodeINS_17__hash_value_typeIPK8MapSetupN12MapSetupView12MapSetupDataEEEPvEEEESE_, symObjAddr: 0xAD30, symBinAddr: 0x1000319C0, symSize: 0x30 }
  - { offset: 0x147209, size: 0x8, addend: 0x0, symName: __ZNSt3__16vectorI4TileNS_9allocatorIS1_EEE26__swap_out_circular_bufferERNS_14__split_bufferIS1_RS3_EE, symObjAddr: 0x7CA4, symBinAddr: 0x10002E934, symSize: 0x110 }
  - { offset: 0x1472E8, size: 0x8, addend: 0x0, symName: __ZNSt3__16vectorINS0_I4TileNS_9allocatorIS1_EEEENS2_IS4_EEE26__swap_out_circular_bufferERNS_14__split_bufferIS4_RS5_EE, symObjAddr: 0x9B48, symBinAddr: 0x1000307D8, symSize: 0x110 }
  - { offset: 0x147380, size: 0x8, addend: 0x0, symName: __ZN12MapSetupViewC2ERN2sf12RenderWindowE, symObjAddr: 0x0, symBinAddr: 0x100028BE8, symSize: 0x2CC }
  - { offset: 0x1473BA, size: 0x8, addend: 0x0, symName: __ZN13IGameObserverC2Ev, symObjAddr: 0x2CC, symBinAddr: 0x100028EB4, symSize: 0x24 }
  - { offset: 0x1473E6, size: 0x8, addend: 0x0, symName: __ZNSt3__113unordered_mapIPK8MapSetupN12MapSetupView12MapSetupDataENS_4hashIS3_EENS_8equal_toIS3_EENS_9allocatorINS_4pairIKS3_S5_EEEEEC1B8ue170006Ev, symObjAddr: 0x2F0, symBinAddr: 0x100028ED8, symSize: 0x2C }
  - { offset: 0x147415, size: 0x8, addend: 0x0, symName: __ZN2sf4RectIiEC1Ev, symObjAddr: 0x350, symBinAddr: 0x100028F04, symSize: 0x2C }
  - { offset: 0x147441, size: 0x8, addend: 0x0, symName: __ZNSt3__113unordered_mapIPK8MapSetupN12MapSetupView12MapSetupDataENS_4hashIS3_EENS_8equal_toIS3_EENS_9allocatorINS_4pairIKS3_S5_EEEEED1B8ue170006Ev, symObjAddr: 0x37C, symBinAddr: 0x100028F30, symSize: 0x2C }
  - { offset: 0x14746B, size: 0x8, addend: 0x0, symName: __ZN12MapSetupViewC1ERN2sf12RenderWindowE, symObjAddr: 0x3BC, symBinAddr: 0x100028F5C, symSize: 0x34 }
  - { offset: 0x1474A5, size: 0x8, addend: 0x0, symName: __ZN12MapSetupView6UpdateERK12IGameSubject, symObjAddr: 0x3F0, symBinAddr: 0x100028F90, symSize: 0x298 }
  - { offset: 0x14754B, size: 0x8, addend: 0x0, symName: __ZNSt3__113unordered_mapIPK8MapSetupN12MapSetupView12MapSetupDataENS_4hashIS3_EENS_8equal_toIS3_EENS_9allocatorINS_4pairIKS3_S5_EEEEEixERSC_, symObjAddr: 0x688, symBinAddr: 0x100029228, symSize: 0x80 }
  - { offset: 0x147582, size: 0x8, addend: 0x0, symName: __ZNK8MapSetup8GetTilesEv, symObjAddr: 0x708, symBinAddr: 0x1000292A8, symSize: 0x18 }
  - { offset: 0x1475A8, size: 0x8, addend: 0x0, symName: __ZNKSt3__16vectorINS0_I4TileNS_9allocatorIS1_EEEENS2_IS4_EEE5emptyB8ue170006Ev, symObjAddr: 0x720, symBinAddr: 0x1000292C0, symSize: 0x28 }
  - { offset: 0x1475CE, size: 0x8, addend: 0x0, symName: __ZN12MapSetupView15InitializeTilesERNSt3__16vectorINS1_I4TileNS0_9allocatorIS2_EEEENS3_IS5_EEEERKNS1_INS1_IN8MapSetup8TileDataENS3_ISA_EEEENS3_ISC_EEEE, symObjAddr: 0x748, symBinAddr: 0x1000292E8, symSize: 0x240 }
  - { offset: 0x14766D, size: 0x8, addend: 0x0, symName: __ZNKSt3__16vectorINS0_IN8MapSetup8TileDataENS_9allocatorIS2_EEEENS3_IS5_EEEixB8ue170006Em, symObjAddr: 0x9B0, symBinAddr: 0x100029528, symSize: 0x2C }
  - { offset: 0x1476A4, size: 0x8, addend: 0x0, symName: __ZN12MapSetupView15UpdateTilesTypeER4TileNS0_4TypeE, symObjAddr: 0xA04, symBinAddr: 0x100029554, symSize: 0xF0 }
  - { offset: 0x1476E8, size: 0x8, addend: 0x0, symName: __ZNSt3__16vectorINS0_I4TileNS_9allocatorIS1_EEEENS2_IS4_EEEixB8ue170006Em, symObjAddr: 0xB0C, symBinAddr: 0x10002965C, symSize: 0x2C }
  - { offset: 0x14771F, size: 0x8, addend: 0x0, symName: __ZNSt3__16vectorI4TileNS_9allocatorIS1_EEEixB8ue170006Em, symObjAddr: 0xB38, symBinAddr: 0x100029688, symSize: 0x2C }
  - { offset: 0x147756, size: 0x8, addend: 0x0, symName: __ZNKSt3__16vectorIN8MapSetup8TileDataENS_9allocatorIS2_EEEixB8ue170006Em, symObjAddr: 0xB64, symBinAddr: 0x1000296B4, symSize: 0x2C }
  - { offset: 0x14778D, size: 0x8, addend: 0x0, symName: __ZNK8MapSetup11GetExitTileEv, symObjAddr: 0xBB4, symBinAddr: 0x1000296E0, symSize: 0x24 }
  - { offset: 0x1477B3, size: 0x8, addend: 0x0, symName: __ZNK8MapSetup7GetPathEv, symObjAddr: 0xBD8, symBinAddr: 0x100029704, symSize: 0x18 }
  - { offset: 0x1477D9, size: 0x8, addend: 0x0, symName: __ZNSt3__16vectorIN2sf7Vector2IfEENS_9allocatorIS3_EEEaSB8ue170006ERKS6_, symObjAddr: 0xBF0, symBinAddr: 0x10002971C, symSize: 0x68 }
  - { offset: 0x147810, size: 0x8, addend: 0x0, symName: __ZNSt3__16vectorINS0_I4TileNS_9allocatorIS1_EEEENS2_IS4_EEE5clearB8ue170006Ev, symObjAddr: 0xC58, symBinAddr: 0x100029784, symSize: 0x44 }
  - { offset: 0x147845, size: 0x8, addend: 0x0, symName: __ZNSt3__16vectorI4TileNS_9allocatorIS1_EEEC1B8ue170006Ev, symObjAddr: 0xC9C, symBinAddr: 0x1000297C8, symSize: 0x2C }
  - { offset: 0x14786F, size: 0x8, addend: 0x0, symName: __ZN6Entity14SetTextureRectEN2sf4RectIiEE, symObjAddr: 0xD34, symBinAddr: 0x1000297F4, symSize: 0x38 }
  - { offset: 0x1478A3, size: 0x8, addend: 0x0, symName: __ZN2sf4RectIiEC1Eiiii, symObjAddr: 0xD6C, symBinAddr: 0x10002982C, symSize: 0x4C }
  - { offset: 0x147907, size: 0x8, addend: 0x0, symName: __ZNSt3__16vectorI4TileNS_9allocatorIS1_EEE12emplace_backIJRS1_EEES6_DpOT_, symObjAddr: 0xE18, symBinAddr: 0x100029878, symSize: 0x74 }
  - { offset: 0x147949, size: 0x8, addend: 0x0, symName: __ZNSt3__16vectorINS0_I4TileNS_9allocatorIS1_EEEENS2_IS4_EEE12emplace_backIJRS4_EEES8_DpOT_, symObjAddr: 0xE8C, symBinAddr: 0x1000298EC, symSize: 0x74 }
  - { offset: 0x14798B, size: 0x8, addend: 0x0, symName: __ZNSt3__16vectorI4TileNS_9allocatorIS1_EEED1B8ue170006Ev, symObjAddr: 0xF00, symBinAddr: 0x100029960, symSize: 0x2C }
  - { offset: 0x1479B5, size: 0x8, addend: 0x0, symName: __ZN12MapSetupView4DrawEv, symObjAddr: 0xF64, symBinAddr: 0x10002998C, symSize: 0x148 }
  - { offset: 0x147AED, size: 0x8, addend: 0x0, symName: __ZNSt3__113unordered_mapIPK8MapSetupN12MapSetupView12MapSetupDataENS_4hashIS3_EENS_8equal_toIS3_EENS_9allocatorINS_4pairIKS3_S5_EEEEE5beginB8ue170006Ev, symObjAddr: 0x10AC, symBinAddr: 0x100029AD4, symSize: 0x38 }
  - { offset: 0x147B13, size: 0x8, addend: 0x0, symName: __ZNSt3__113unordered_mapIPK8MapSetupN12MapSetupView12MapSetupDataENS_4hashIS3_EENS_8equal_toIS3_EENS_9allocatorINS_4pairIKS3_S5_EEEEE3endB8ue170006Ev, symObjAddr: 0x10E4, symBinAddr: 0x100029B0C, symSize: 0x38 }
  - { offset: 0x147B39, size: 0x8, addend: 0x0, symName: __ZNKSt3__119__hash_map_iteratorINS_15__hash_iteratorIPNS_11__hash_nodeINS_17__hash_value_typeIPK8MapSetupN12MapSetupView12MapSetupDataEEEPvEEEEEdeB8ue170006Ev, symObjAddr: 0x114C, symBinAddr: 0x100029B74, symSize: 0x28 }
  - { offset: 0x147B5F, size: 0x8, addend: 0x0, symName: __ZNKSt3__16vectorINS0_I4TileNS_9allocatorIS1_EEEENS2_IS4_EEE5beginB8ue170006Ev, symObjAddr: 0x1174, symBinAddr: 0x100029B9C, symSize: 0x30 }
  - { offset: 0x147B87, size: 0x8, addend: 0x0, symName: __ZNKSt3__16vectorINS0_I4TileNS_9allocatorIS1_EEEENS2_IS4_EEE3endB8ue170006Ev, symObjAddr: 0x11A4, symBinAddr: 0x100029BCC, symSize: 0x30 }
  - { offset: 0x147BAF, size: 0x8, addend: 0x0, symName: __ZNKSt3__111__wrap_iterIPKNS_6vectorI4TileNS_9allocatorIS2_EEEEEdeB8ue170006Ev, symObjAddr: 0x1208, symBinAddr: 0x100029C30, symSize: 0x18 }
  - { offset: 0x147BD5, size: 0x8, addend: 0x0, symName: __ZNKSt3__16vectorI4TileNS_9allocatorIS1_EEE5beginB8ue170006Ev, symObjAddr: 0x1220, symBinAddr: 0x100029C48, symSize: 0x30 }
  - { offset: 0x147BFD, size: 0x8, addend: 0x0, symName: __ZNKSt3__16vectorI4TileNS_9allocatorIS1_EEE3endB8ue170006Ev, symObjAddr: 0x1250, symBinAddr: 0x100029C78, symSize: 0x30 }
  - { offset: 0x147C25, size: 0x8, addend: 0x0, symName: __ZNKSt3__111__wrap_iterIPK4TileEdeB8ue170006Ev, symObjAddr: 0x12B4, symBinAddr: 0x100029CDC, symSize: 0x18 }
  - { offset: 0x147C4B, size: 0x8, addend: 0x0, symName: __ZNSt3__111__wrap_iterIPK4TileEppB8ue170006Ev, symObjAddr: 0x12CC, symBinAddr: 0x100029CF4, symSize: 0x20 }
  - { offset: 0x147C71, size: 0x8, addend: 0x0, symName: __ZNSt3__111__wrap_iterIPKNS_6vectorI4TileNS_9allocatorIS2_EEEEEppB8ue170006Ev, symObjAddr: 0x12EC, symBinAddr: 0x100029D14, symSize: 0x20 }
  - { offset: 0x147C97, size: 0x8, addend: 0x0, symName: __ZNSt3__119__hash_map_iteratorINS_15__hash_iteratorIPNS_11__hash_nodeINS_17__hash_value_typeIPK8MapSetupN12MapSetupView12MapSetupDataEEEPvEEEEEppB8ue170006Ev, symObjAddr: 0x130C, symBinAddr: 0x100029D34, symSize: 0x2C }
  - { offset: 0x147CBD, size: 0x8, addend: 0x0, symName: __ZN12MapSetupViewD1Ev, symObjAddr: 0x1338, symBinAddr: 0x100029D60, symSize: 0x2C }
  - { offset: 0x147CE7, size: 0x8, addend: 0x0, symName: __ZN12MapSetupViewD0Ev, symObjAddr: 0x1364, symBinAddr: 0x100029D8C, symSize: 0x30 }
  - { offset: 0x147D11, size: 0x8, addend: 0x0, symName: __ZN13IGameObserverD1Ev, symObjAddr: 0x1394, symBinAddr: 0x100029DBC, symSize: 0x14 }
  - { offset: 0x147D3B, size: 0x8, addend: 0x0, symName: __ZN13IGameObserverD0Ev, symObjAddr: 0x13A8, symBinAddr: 0x100029DD0, symSize: 0xC }
  - { offset: 0x147D65, size: 0x8, addend: 0x0, symName: __ZNKSt3__111__wrap_iterIPKNS_6vectorI4TileNS_9allocatorIS2_EEEEE4baseB8ue170006Ev, symObjAddr: 0x13FC, symBinAddr: 0x100029E24, symSize: 0x18 }
  - { offset: 0x147D8B, size: 0x8, addend: 0x0, symName: __ZNKSt3__111__wrap_iterIPK4TileE4baseB8ue170006Ev, symObjAddr: 0x145C, symBinAddr: 0x100029E84, symSize: 0x18 }
  - { offset: 0x147DB1, size: 0x8, addend: 0x0, symName: __ZN12MapSetupViewD2Ev, symObjAddr: 0x1474, symBinAddr: 0x100029E9C, symSize: 0x78 }
  - { offset: 0x147DDB, size: 0x8, addend: 0x0, symName: __ZN2sf4RectIiEC2Ev, symObjAddr: 0x14EC, symBinAddr: 0x100029F14, symSize: 0x24 }
  - { offset: 0x147E07, size: 0x8, addend: 0x0, symName: __ZNSt3__113unordered_mapIPK8MapSetupN12MapSetupView12MapSetupDataENS_4hashIS3_EENS_8equal_toIS3_EENS_9allocatorINS_4pairIKS3_S5_EEEEEC2B8ue170006Ev, symObjAddr: 0x1510, symBinAddr: 0x100029F38, symSize: 0x2C }
  - { offset: 0x147E31, size: 0x8, addend: 0x0, symName: __ZNSt3__112__hash_tableINS_17__hash_value_typeIPK8MapSetupN12MapSetupView12MapSetupDataEEENS_22__unordered_map_hasherIS4_S7_NS_4hashIS4_EENS_8equal_toIS4_EELb1EEENS_21__unordered_map_equalIS4_S7_SC_SA_Lb1EEENS_9allocatorIS7_EEEC1Ev, symObjAddr: 0x153C, symBinAddr: 0x100029F64, symSize: 0x2C }
  - { offset: 0x147E5D, size: 0x8, addend: 0x0, symName: __ZNSt3__112__hash_tableINS_17__hash_value_typeIPK8MapSetupN12MapSetupView12MapSetupDataEEENS_22__unordered_map_hasherIS4_S7_NS_4hashIS4_EENS_8equal_toIS4_EELb1EEENS_21__unordered_map_equalIS4_S7_SC_SA_Lb1EEENS_9allocatorIS7_EEEC2Ev, symObjAddr: 0x1568, symBinAddr: 0x100029F90, symSize: 0x7C }
  - { offset: 0x147E89, size: 0x8, addend: 0x0, symName: __ZNSt3__110unique_ptrIA_PNS_16__hash_node_baseIPNS_11__hash_nodeINS_17__hash_value_typeIPK8MapSetupN12MapSetupView12MapSetupDataEEEPvEEEENS_25__bucket_list_deallocatorINS_9allocatorISE_EEEEEC1B8ue170006ILb1EvEEv, symObjAddr: 0x15E4, symBinAddr: 0x10002A00C, symSize: 0x2C }
  - { offset: 0x147EBE, size: 0x8, addend: 0x0, symName: __ZNSt3__117__compressed_pairINS_16__hash_node_baseIPNS_11__hash_nodeINS_17__hash_value_typeIPK8MapSetupN12MapSetupView12MapSetupDataEEEPvEEEENS_9allocatorISB_EEEC1B8ue170006ILb1EvEEv, symObjAddr: 0x1610, symBinAddr: 0x10002A038, symSize: 0x2C }
  - { offset: 0x147EFF, size: 0x8, addend: 0x0, symName: __ZNSt3__117__compressed_pairImNS_22__unordered_map_hasherIPK8MapSetupNS_17__hash_value_typeIS4_N12MapSetupView12MapSetupDataEEENS_4hashIS4_EENS_8equal_toIS4_EELb1EEEEC1B8ue170006IiNS_18__default_init_tagEEEOT_OT0_, symObjAddr: 0x164C, symBinAddr: 0x10002A064, symSize: 0x3C }
  - { offset: 0x147F5D, size: 0x8, addend: 0x0, symName: __ZNSt3__117__compressed_pairIfNS_21__unordered_map_equalIPK8MapSetupNS_17__hash_value_typeIS4_N12MapSetupView12MapSetupDataEEENS_8equal_toIS4_EENS_4hashIS4_EELb1EEEEC1B8ue170006IfNS_18__default_init_tagEEEOT_OT0_, symObjAddr: 0x1688, symBinAddr: 0x10002A0A0, symSize: 0x3C }
  - { offset: 0x147FB5, size: 0x8, addend: 0x0, symName: __ZNSt3__110unique_ptrIA_PNS_16__hash_node_baseIPNS_11__hash_nodeINS_17__hash_value_typeIPK8MapSetupN12MapSetupView12MapSetupDataEEEPvEEEENS_25__bucket_list_deallocatorINS_9allocatorISE_EEEEEC2B8ue170006ILb1EvEEv, symObjAddr: 0x16C4, symBinAddr: 0x10002A0DC, symSize: 0x3C }
  - { offset: 0x147FF0, size: 0x8, addend: 0x0, symName: __ZNSt3__117__compressed_pairIPPNS_16__hash_node_baseIPNS_11__hash_nodeINS_17__hash_value_typeIPK8MapSetupN12MapSetupView12MapSetupDataEEEPvEEEENS_25__bucket_list_deallocatorINS_9allocatorISE_EEEEEC1B8ue170006INS_16__value_init_tagESM_EEOT_OT0_, symObjAddr: 0x1700, symBinAddr: 0x10002A118, symSize: 0x3C }
  - { offset: 0x148048, size: 0x8, addend: 0x0, symName: __ZNSt3__117__compressed_pairIPPNS_16__hash_node_baseIPNS_11__hash_nodeINS_17__hash_value_typeIPK8MapSetupN12MapSetupView12MapSetupDataEEEPvEEEENS_25__bucket_list_deallocatorINS_9allocatorISE_EEEEEC2B8ue170006INS_16__value_init_tagESM_EEOT_OT0_, symObjAddr: 0x173C, symBinAddr: 0x10002A154, symSize: 0x40 }
  - { offset: 0x1480A0, size: 0x8, addend: 0x0, symName: __ZNSt3__122__compressed_pair_elemIPPNS_16__hash_node_baseIPNS_11__hash_nodeINS_17__hash_value_typeIPK8MapSetupN12MapSetupView12MapSetupDataEEEPvEEEELi0ELb0EEC2B8ue170006ENS_16__value_init_tagE, symObjAddr: 0x177C, symBinAddr: 0x10002A194, symSize: 0x18 }
  - { offset: 0x1480D4, size: 0x8, addend: 0x0, symName: __ZNSt3__122__compressed_pair_elemINS_25__bucket_list_deallocatorINS_9allocatorIPNS_16__hash_node_baseIPNS_11__hash_nodeINS_17__hash_value_typeIPK8MapSetupN12MapSetupView12MapSetupDataEEEPvEEEEEEEELi1ELb0EEC2B8ue170006ENS_16__value_init_tagE, symObjAddr: 0x1794, symBinAddr: 0x10002A1AC, symSize: 0x2C }
  - { offset: 0x148108, size: 0x8, addend: 0x0, symName: __ZNSt3__125__bucket_list_deallocatorINS_9allocatorIPNS_16__hash_node_baseIPNS_11__hash_nodeINS_17__hash_value_typeIPK8MapSetupN12MapSetupView12MapSetupDataEEEPvEEEEEEEC1B8ue170006Ev, symObjAddr: 0x17C0, symBinAddr: 0x10002A1D8, symSize: 0x2C }
  - { offset: 0x148132, size: 0x8, addend: 0x0, symName: __ZNSt3__125__bucket_list_deallocatorINS_9allocatorIPNS_16__hash_node_baseIPNS_11__hash_nodeINS_17__hash_value_typeIPK8MapSetupN12MapSetupView12MapSetupDataEEEPvEEEEEEEC2B8ue170006Ev, symObjAddr: 0x17EC, symBinAddr: 0x10002A204, symSize: 0x40 }
  - { offset: 0x14815C, size: 0x8, addend: 0x0, symName: __ZNSt3__117__compressed_pairImNS_9allocatorIPNS_16__hash_node_baseIPNS_11__hash_nodeINS_17__hash_value_typeIPK8MapSetupN12MapSetupView12MapSetupDataEEEPvEEEEEEEC1B8ue170006IiNS_18__default_init_tagEEEOT_OT0_, symObjAddr: 0x182C, symBinAddr: 0x10002A244, symSize: 0x3C }
  - { offset: 0x1481B4, size: 0x8, addend: 0x0, symName: __ZNSt3__117__compressed_pairImNS_9allocatorIPNS_16__hash_node_baseIPNS_11__hash_nodeINS_17__hash_value_typeIPK8MapSetupN12MapSetupView12MapSetupDataEEEPvEEEEEEEC2B8ue170006IiNS_18__default_init_tagEEEOT_OT0_, symObjAddr: 0x1868, symBinAddr: 0x10002A280, symSize: 0x40 }
  - { offset: 0x14820C, size: 0x8, addend: 0x0, symName: __ZNSt3__122__compressed_pair_elemImLi0ELb0EEC2B8ue170006IivEEOT_, symObjAddr: 0x18A8, symBinAddr: 0x10002A2C0, symSize: 0x24 }
  - { offset: 0x14824E, size: 0x8, addend: 0x0, symName: __ZNSt3__122__compressed_pair_elemINS_9allocatorIPNS_16__hash_node_baseIPNS_11__hash_nodeINS_17__hash_value_typeIPK8MapSetupN12MapSetupView12MapSetupDataEEEPvEEEEEELi1ELb1EEC2B8ue170006ENS_18__default_init_tagE, symObjAddr: 0x18CC, symBinAddr: 0x10002A2E4, symSize: 0x2C }
  - { offset: 0x148282, size: 0x8, addend: 0x0, symName: __ZNSt3__19allocatorIPNS_16__hash_node_baseIPNS_11__hash_nodeINS_17__hash_value_typeIPK8MapSetupN12MapSetupView12MapSetupDataEEEPvEEEEEC2B8ue170006Ev, symObjAddr: 0x18F8, symBinAddr: 0x10002A310, symSize: 0x2C }
  - { offset: 0x1482AC, size: 0x8, addend: 0x0, symName: __ZNSt3__116__non_trivial_ifILb1ENS_9allocatorIPNS_16__hash_node_baseIPNS_11__hash_nodeINS_17__hash_value_typeIPK8MapSetupN12MapSetupView12MapSetupDataEEEPvEEEEEEEC2B8ue170006Ev, symObjAddr: 0x1924, symBinAddr: 0x10002A33C, symSize: 0x14 }
  - { offset: 0x1482D6, size: 0x8, addend: 0x0, symName: __ZNSt3__117__compressed_pairINS_16__hash_node_baseIPNS_11__hash_nodeINS_17__hash_value_typeIPK8MapSetupN12MapSetupView12MapSetupDataEEEPvEEEENS_9allocatorISB_EEEC2B8ue170006ILb1EvEEv, symObjAddr: 0x1938, symBinAddr: 0x10002A350, symSize: 0x34 }
  - { offset: 0x14830B, size: 0x8, addend: 0x0, symName: __ZNSt3__122__compressed_pair_elemINS_16__hash_node_baseIPNS_11__hash_nodeINS_17__hash_value_typeIPK8MapSetupN12MapSetupView12MapSetupDataEEEPvEEEELi0ELb0EEC2B8ue170006ENS_16__value_init_tagE, symObjAddr: 0x196C, symBinAddr: 0x10002A384, symSize: 0x2C }
  - { offset: 0x14833F, size: 0x8, addend: 0x0, symName: __ZNSt3__122__compressed_pair_elemINS_9allocatorINS_11__hash_nodeINS_17__hash_value_typeIPK8MapSetupN12MapSetupView12MapSetupDataEEEPvEEEELi1ELb1EEC2B8ue170006ENS_16__value_init_tagE, symObjAddr: 0x1998, symBinAddr: 0x10002A3B0, symSize: 0x2C }
  - { offset: 0x148373, size: 0x8, addend: 0x0, symName: __ZNSt3__116__hash_node_baseIPNS_11__hash_nodeINS_17__hash_value_typeIPK8MapSetupN12MapSetupView12MapSetupDataEEEPvEEEC1B8ue170006Ev, symObjAddr: 0x19C4, symBinAddr: 0x10002A3DC, symSize: 0x2C }
  - { offset: 0x14839D, size: 0x8, addend: 0x0, symName: __ZNSt3__116__hash_node_baseIPNS_11__hash_nodeINS_17__hash_value_typeIPK8MapSetupN12MapSetupView12MapSetupDataEEEPvEEEC2B8ue170006Ev, symObjAddr: 0x19F0, symBinAddr: 0x10002A408, symSize: 0x18 }
  - { offset: 0x1483C7, size: 0x8, addend: 0x0, symName: __ZNSt3__19allocatorINS_11__hash_nodeINS_17__hash_value_typeIPK8MapSetupN12MapSetupView12MapSetupDataEEEPvEEEC2B8ue170006Ev, symObjAddr: 0x1A08, symBinAddr: 0x10002A420, symSize: 0x2C }
  - { offset: 0x1483F1, size: 0x8, addend: 0x0, symName: __ZNSt3__116__non_trivial_ifILb1ENS_9allocatorINS_11__hash_nodeINS_17__hash_value_typeIPK8MapSetupN12MapSetupView12MapSetupDataEEEPvEEEEEC2B8ue170006Ev, symObjAddr: 0x1A34, symBinAddr: 0x10002A44C, symSize: 0x14 }
  - { offset: 0x14841B, size: 0x8, addend: 0x0, symName: __ZNSt3__117__compressed_pairImNS_22__unordered_map_hasherIPK8MapSetupNS_17__hash_value_typeIS4_N12MapSetupView12MapSetupDataEEENS_4hashIS4_EENS_8equal_toIS4_EELb1EEEEC2B8ue170006IiNS_18__default_init_tagEEEOT_OT0_, symObjAddr: 0x1A48, symBinAddr: 0x10002A460, symSize: 0x40 }
  - { offset: 0x148473, size: 0x8, addend: 0x0, symName: __ZNSt3__122__compressed_pair_elemINS_22__unordered_map_hasherIPK8MapSetupNS_17__hash_value_typeIS4_N12MapSetupView12MapSetupDataEEENS_4hashIS4_EENS_8equal_toIS4_EELb1EEELi1ELb1EEC2B8ue170006ENS_18__default_init_tagE, symObjAddr: 0x1A88, symBinAddr: 0x10002A4A0, symSize: 0x2C }
  - { offset: 0x1484A7, size: 0x8, addend: 0x0, symName: __ZNSt3__122__unordered_map_hasherIPK8MapSetupNS_17__hash_value_typeIS3_N12MapSetupView12MapSetupDataEEENS_4hashIS3_EENS_8equal_toIS3_EELb1EEC2B8ue170006Ev, symObjAddr: 0x1AB4, symBinAddr: 0x10002A4CC, symSize: 0x14 }
  - { offset: 0x1484D1, size: 0x8, addend: 0x0, symName: __ZNSt3__117__compressed_pairIfNS_21__unordered_map_equalIPK8MapSetupNS_17__hash_value_typeIS4_N12MapSetupView12MapSetupDataEEENS_8equal_toIS4_EENS_4hashIS4_EELb1EEEEC2B8ue170006IfNS_18__default_init_tagEEEOT_OT0_, symObjAddr: 0x1AC8, symBinAddr: 0x10002A4E0, symSize: 0x40 }
  - { offset: 0x148529, size: 0x8, addend: 0x0, symName: __ZNSt3__122__compressed_pair_elemIfLi0ELb0EEC2B8ue170006IfvEEOT_, symObjAddr: 0x1B08, symBinAddr: 0x10002A520, symSize: 0x24 }
  - { offset: 0x14856B, size: 0x8, addend: 0x0, symName: __ZNSt3__122__compressed_pair_elemINS_21__unordered_map_equalIPK8MapSetupNS_17__hash_value_typeIS4_N12MapSetupView12MapSetupDataEEENS_8equal_toIS4_EENS_4hashIS4_EELb1EEELi1ELb1EEC2B8ue170006ENS_18__default_init_tagE, symObjAddr: 0x1B2C, symBinAddr: 0x10002A544, symSize: 0x2C }
  - { offset: 0x14859F, size: 0x8, addend: 0x0, symName: __ZNSt3__121__unordered_map_equalIPK8MapSetupNS_17__hash_value_typeIS3_N12MapSetupView12MapSetupDataEEENS_8equal_toIS3_EENS_4hashIS3_EELb1EEC2B8ue170006Ev, symObjAddr: 0x1B58, symBinAddr: 0x10002A570, symSize: 0x14 }
  - { offset: 0x1485C9, size: 0x8, addend: 0x0, symName: __ZNSt3__113unordered_mapIPK8MapSetupN12MapSetupView12MapSetupDataENS_4hashIS3_EENS_8equal_toIS3_EENS_9allocatorINS_4pairIKS3_S5_EEEEED2B8ue170006Ev, symObjAddr: 0x1B6C, symBinAddr: 0x10002A584, symSize: 0x2C }
  - { offset: 0x1485F3, size: 0x8, addend: 0x0, symName: __ZNSt3__112__hash_tableINS_17__hash_value_typeIPK8MapSetupN12MapSetupView12MapSetupDataEEENS_22__unordered_map_hasherIS4_S7_NS_4hashIS4_EENS_8equal_toIS4_EELb1EEENS_21__unordered_map_equalIS4_S7_SC_SA_Lb1EEENS_9allocatorIS7_EEED1Ev, symObjAddr: 0x1B98, symBinAddr: 0x10002A5B0, symSize: 0x2C }
  - { offset: 0x14861F, size: 0x8, addend: 0x0, symName: __ZNSt3__112__hash_tableINS_17__hash_value_typeIPK8MapSetupN12MapSetupView12MapSetupDataEEENS_22__unordered_map_hasherIS4_S7_NS_4hashIS4_EENS_8equal_toIS4_EELb1EEENS_21__unordered_map_equalIS4_S7_SC_SA_Lb1EEENS_9allocatorIS7_EEED2Ev, symObjAddr: 0x1BC4, symBinAddr: 0x10002A5DC, symSize: 0x48 }
  - { offset: 0x14864B, size: 0x8, addend: 0x0, symName: __ZNSt3__112__hash_tableINS_17__hash_value_typeIPK8MapSetupN12MapSetupView12MapSetupDataEEENS_22__unordered_map_hasherIS4_S7_NS_4hashIS4_EENS_8equal_toIS4_EELb1EEENS_21__unordered_map_equalIS4_S7_SC_SA_Lb1EEENS_9allocatorIS7_EEE17__deallocate_nodeEPNS_16__hash_node_baseIPNS_11__hash_nodeIS7_PvEEEE, symObjAddr: 0x1C0C, symBinAddr: 0x10002A624, symSize: 0xA8 }
  - { offset: 0x1486B5, size: 0x8, addend: 0x0, symName: __ZNSt3__117__compressed_pairINS_16__hash_node_baseIPNS_11__hash_nodeINS_17__hash_value_typeIPK8MapSetupN12MapSetupView12MapSetupDataEEEPvEEEENS_9allocatorISB_EEE5firstB8ue170006Ev, symObjAddr: 0x1CB4, symBinAddr: 0x10002A6CC, symSize: 0x24 }
  - { offset: 0x1486DB, size: 0x8, addend: 0x0, symName: __ZNSt3__110unique_ptrIA_PNS_16__hash_node_baseIPNS_11__hash_nodeINS_17__hash_value_typeIPK8MapSetupN12MapSetupView12MapSetupDataEEEPvEEEENS_25__bucket_list_deallocatorINS_9allocatorISE_EEEEED1B8ue170006Ev, symObjAddr: 0x1CD8, symBinAddr: 0x10002A6F0, symSize: 0x2C }
  - { offset: 0x148705, size: 0x8, addend: 0x0, symName: __ZNSt3__112__hash_tableINS_17__hash_value_typeIPK8MapSetupN12MapSetupView12MapSetupDataEEENS_22__unordered_map_hasherIS4_S7_NS_4hashIS4_EENS_8equal_toIS4_EELb1EEENS_21__unordered_map_equalIS4_S7_SC_SA_Lb1EEENS_9allocatorIS7_EEE12__node_allocB8ue170006Ev, symObjAddr: 0x1D04, symBinAddr: 0x10002A71C, symSize: 0x28 }
  - { offset: 0x14872B, size: 0x8, addend: 0x0, symName: __ZNSt3__116__hash_node_baseIPNS_11__hash_nodeINS_17__hash_value_typeIPK8MapSetupN12MapSetupView12MapSetupDataEEEPvEEE8__upcastB8ue170006Ev, symObjAddr: 0x1D2C, symBinAddr: 0x10002A744, symSize: 0x24 }
  - { offset: 0x148751, size: 0x8, addend: 0x0, symName: __ZNSt3__116allocator_traitsINS_9allocatorINS_11__hash_nodeINS_17__hash_value_typeIPK8MapSetupN12MapSetupView12MapSetupDataEEEPvEEEEE7destroyB8ue170006INS_4pairIKS6_S8_EEvvEEvRSC_PT_, symObjAddr: 0x1D50, symBinAddr: 0x10002A768, symSize: 0x28 }
  - { offset: 0x14878B, size: 0x8, addend: 0x0, symName: __ZNSt3__122__hash_key_value_typesINS_17__hash_value_typeIPK8MapSetupN12MapSetupView12MapSetupDataEEEE9__get_ptrB8ue170006ERS7_, symObjAddr: 0x1D78, symBinAddr: 0x10002A790, symSize: 0x24 }
  - { offset: 0x1487AE, size: 0x8, addend: 0x0, symName: __ZNSt3__116allocator_traitsINS_9allocatorINS_11__hash_nodeINS_17__hash_value_typeIPK8MapSetupN12MapSetupView12MapSetupDataEEEPvEEEEE10deallocateB8ue170006ERSC_PSB_m, symObjAddr: 0x1D9C, symBinAddr: 0x10002A7B4, symSize: 0x34 }
  - { offset: 0x1487F0, size: 0x8, addend: 0x0, symName: __ZNSt3__117__compressed_pairINS_16__hash_node_baseIPNS_11__hash_nodeINS_17__hash_value_typeIPK8MapSetupN12MapSetupView12MapSetupDataEEEPvEEEENS_9allocatorISB_EEE6secondB8ue170006Ev, symObjAddr: 0x1DD0, symBinAddr: 0x10002A7E8, symSize: 0x24 }
  - { offset: 0x148816, size: 0x8, addend: 0x0, symName: __ZNSt3__122__compressed_pair_elemINS_9allocatorINS_11__hash_nodeINS_17__hash_value_typeIPK8MapSetupN12MapSetupView12MapSetupDataEEEPvEEEELi1ELb1EE5__getB8ue170006Ev, symObjAddr: 0x1DF4, symBinAddr: 0x10002A80C, symSize: 0x14 }
  - { offset: 0x14883C, size: 0x8, addend: 0x0, symName: __ZNSt3__114pointer_traitsIPNS_16__hash_node_baseIPNS_11__hash_nodeINS_17__hash_value_typeIPK8MapSetupN12MapSetupView12MapSetupDataEEEPvEEEEE10pointer_toB8ue170006ERSD_, symObjAddr: 0x1E08, symBinAddr: 0x10002A820, symSize: 0x14 }
  - { offset: 0x14885F, size: 0x8, addend: 0x0, symName: __ZNSt3__14pairIKPK8MapSetupN12MapSetupView12MapSetupDataEED1Ev, symObjAddr: 0x1E1C, symBinAddr: 0x10002A834, symSize: 0x2C }
  - { offset: 0x14888B, size: 0x8, addend: 0x0, symName: __ZNSt3__14pairIKPK8MapSetupN12MapSetupView12MapSetupDataEED2Ev, symObjAddr: 0x1E48, symBinAddr: 0x10002A860, symSize: 0x30 }
  - { offset: 0x1488BC, size: 0x8, addend: 0x0, symName: __ZN12MapSetupView12MapSetupDataD1Ev, symObjAddr: 0x1E78, symBinAddr: 0x10002A890, symSize: 0x2C }
  - { offset: 0x1488E8, size: 0x8, addend: 0x0, symName: __ZN12MapSetupView12MapSetupDataD2Ev, symObjAddr: 0x1EA4, symBinAddr: 0x10002A8BC, symSize: 0x44 }
  - { offset: 0x148914, size: 0x8, addend: 0x0, symName: __ZNSt3__16vectorINS0_I4TileNS_9allocatorIS1_EEEENS2_IS4_EEED1B8ue170006Ev, symObjAddr: 0x1F14, symBinAddr: 0x10002A900, symSize: 0x2C }
  - { offset: 0x14893E, size: 0x8, addend: 0x0, symName: __ZNSt3__16vectorINS0_I4TileNS_9allocatorIS1_EEEENS2_IS4_EEED2B8ue170006Ev, symObjAddr: 0x2534, symBinAddr: 0x10002A92C, symSize: 0x44 }
  - { offset: 0x148968, size: 0x8, addend: 0x0, symName: __ZNSt3__16vectorINS0_I4TileNS_9allocatorIS1_EEEENS2_IS4_EEE16__destroy_vectorC1B8ue170006ERS6_, symObjAddr: 0x2578, symBinAddr: 0x10002A970, symSize: 0x34 }
  - { offset: 0x1489A1, size: 0x8, addend: 0x0, symName: __ZNSt3__16vectorINS0_I4TileNS_9allocatorIS1_EEEENS2_IS4_EEE16__destroy_vectorclB8ue170006Ev, symObjAddr: 0x25AC, symBinAddr: 0x10002A9A4, symSize: 0x90 }
  - { offset: 0x1489C7, size: 0x8, addend: 0x0, symName: __ZNSt3__16vectorINS0_I4TileNS_9allocatorIS1_EEEENS2_IS4_EEE16__destroy_vectorC2B8ue170006ERS6_, symObjAddr: 0x263C, symBinAddr: 0x10002AA34, symSize: 0x20 }
  - { offset: 0x148A00, size: 0x8, addend: 0x0, symName: __ZNSt3__16vectorINS0_I4TileNS_9allocatorIS1_EEEENS2_IS4_EEE7__clearB8ue170006Ev, symObjAddr: 0x265C, symBinAddr: 0x10002AA54, symSize: 0x28 }
  - { offset: 0x148A26, size: 0x8, addend: 0x0, symName: __ZNKSt3__16vectorINS0_I4TileNS_9allocatorIS1_EEEENS2_IS4_EEE17__annotate_deleteB8ue170006Ev, symObjAddr: 0x2684, symBinAddr: 0x10002AA7C, symSize: 0xD4 }
  - { offset: 0x148A4C, size: 0x8, addend: 0x0, symName: __ZNSt3__116allocator_traitsINS_9allocatorINS_6vectorI4TileNS1_IS3_EEEEEEE10deallocateB8ue170006ERS6_PS5_m, symObjAddr: 0x2758, symBinAddr: 0x10002AB50, symSize: 0x34 }
  - { offset: 0x148A8E, size: 0x8, addend: 0x0, symName: __ZNSt3__16vectorINS0_I4TileNS_9allocatorIS1_EEEENS2_IS4_EEE7__allocB8ue170006Ev, symObjAddr: 0x278C, symBinAddr: 0x10002AB84, symSize: 0x28 }
  - { offset: 0x148AB4, size: 0x8, addend: 0x0, symName: __ZNKSt3__16vectorINS0_I4TileNS_9allocatorIS1_EEEENS2_IS4_EEE8capacityB8ue170006Ev, symObjAddr: 0x27B4, symBinAddr: 0x10002ABAC, symSize: 0x40 }
  - { offset: 0x148ADA, size: 0x8, addend: 0x0, symName: __ZNSt3__16vectorINS0_I4TileNS_9allocatorIS1_EEEENS2_IS4_EEE22__base_destruct_at_endB8ue170006EPS4_, symObjAddr: 0x27F4, symBinAddr: 0x10002ABEC, symSize: 0x8C }
  - { offset: 0x148B1E, size: 0x8, addend: 0x0, symName: __ZNSt3__116allocator_traitsINS_9allocatorINS_6vectorI4TileNS1_IS3_EEEEEEE7destroyB8ue170006IS5_vEEvRS6_PT_, symObjAddr: 0x2880, symBinAddr: 0x10002AC78, symSize: 0x2C }
  - { offset: 0x148B5B, size: 0x8, addend: 0x0, symName: __ZNSt3__19allocatorINS_6vectorI4TileNS0_IS2_EEEEE7destroyB8ue170006EPS4_, symObjAddr: 0x28C0, symBinAddr: 0x10002ACB8, symSize: 0x28 }
  - { offset: 0x148B8F, size: 0x8, addend: 0x0, symName: __ZNKSt3__16vectorINS0_I4TileNS_9allocatorIS1_EEEENS2_IS4_EEE31__annotate_contiguous_containerB8ue170006EPKvS8_S8_S8_, symObjAddr: 0x28E8, symBinAddr: 0x10002ACE0, symSize: 0x20 }
  - { offset: 0x148BE1, size: 0x8, addend: 0x0, symName: __ZNKSt3__16vectorINS0_I4TileNS_9allocatorIS1_EEEENS2_IS4_EEE4dataB8ue170006Ev, symObjAddr: 0x2908, symBinAddr: 0x10002AD00, symSize: 0x28 }
  - { offset: 0x148C07, size: 0x8, addend: 0x0, symName: __ZNKSt3__16vectorINS0_I4TileNS_9allocatorIS1_EEEENS2_IS4_EEE4sizeB8ue170006Ev, symObjAddr: 0x2930, symBinAddr: 0x10002AD28, symSize: 0x28 }
  - { offset: 0x148C2D, size: 0x8, addend: 0x0, symName: __ZNSt3__19allocatorINS_6vectorI4TileNS0_IS2_EEEEE10deallocateB8ue170006EPS4_m, symObjAddr: 0x2958, symBinAddr: 0x10002AD50, symSize: 0x44 }
  - { offset: 0x148C6F, size: 0x8, addend: 0x0, symName: __ZNSt3__117__compressed_pairIPNS_6vectorI4TileNS_9allocatorIS2_EEEENS3_IS5_EEE6secondB8ue170006Ev, symObjAddr: 0x299C, symBinAddr: 0x10002AD94, symSize: 0x24 }
  - { offset: 0x148C95, size: 0x8, addend: 0x0, symName: __ZNSt3__122__compressed_pair_elemINS_9allocatorINS_6vectorI4TileNS1_IS3_EEEEEELi1ELb1EE5__getB8ue170006Ev, symObjAddr: 0x29C0, symBinAddr: 0x10002ADB8, symSize: 0x14 }
  - { offset: 0x148CBB, size: 0x8, addend: 0x0, symName: __ZNKSt3__16vectorINS0_I4TileNS_9allocatorIS1_EEEENS2_IS4_EEE9__end_capB8ue170006Ev, symObjAddr: 0x29D4, symBinAddr: 0x10002ADCC, symSize: 0x28 }
  - { offset: 0x148CE1, size: 0x8, addend: 0x0, symName: __ZNKSt3__117__compressed_pairIPNS_6vectorI4TileNS_9allocatorIS2_EEEENS3_IS5_EEE5firstB8ue170006Ev, symObjAddr: 0x29FC, symBinAddr: 0x10002ADF4, symSize: 0x24 }
  - { offset: 0x148D07, size: 0x8, addend: 0x0, symName: __ZNKSt3__122__compressed_pair_elemIPNS_6vectorI4TileNS_9allocatorIS2_EEEELi0ELb0EE5__getB8ue170006Ev, symObjAddr: 0x2A20, symBinAddr: 0x10002AE18, symSize: 0x14 }
  - { offset: 0x148D2D, size: 0x8, addend: 0x0, symName: __ZNSt3__117__hash_value_typeIPK8MapSetupN12MapSetupView12MapSetupDataEE11__get_valueB8ue170006Ev, symObjAddr: 0x2A34, symBinAddr: 0x10002AE2C, symSize: 0x24 }
  - { offset: 0x148D53, size: 0x8, addend: 0x0, symName: __ZNSt3__19allocatorINS_11__hash_nodeINS_17__hash_value_typeIPK8MapSetupN12MapSetupView12MapSetupDataEEEPvEEE10deallocateB8ue170006EPSA_m, symObjAddr: 0x2A90, symBinAddr: 0x10002AE88, symSize: 0x44 }
  - { offset: 0x148D95, size: 0x8, addend: 0x0, symName: __ZNSt3__122__compressed_pair_elemINS_16__hash_node_baseIPNS_11__hash_nodeINS_17__hash_value_typeIPK8MapSetupN12MapSetupView12MapSetupDataEEEPvEEEELi0ELb0EE5__getB8ue170006Ev, symObjAddr: 0x2AD4, symBinAddr: 0x10002AECC, symSize: 0x14 }
  - { offset: 0x148DBB, size: 0x8, addend: 0x0, symName: __ZNSt3__110unique_ptrIA_PNS_16__hash_node_baseIPNS_11__hash_nodeINS_17__hash_value_typeIPK8MapSetupN12MapSetupView12MapSetupDataEEEPvEEEENS_25__bucket_list_deallocatorINS_9allocatorISE_EEEEED2B8ue170006Ev, symObjAddr: 0x2AE8, symBinAddr: 0x10002AEE0, symSize: 0x30 }
  - { offset: 0x148DE5, size: 0x8, addend: 0x0, symName: __ZNSt3__110unique_ptrIA_PNS_16__hash_node_baseIPNS_11__hash_nodeINS_17__hash_value_typeIPK8MapSetupN12MapSetupView12MapSetupDataEEEPvEEEENS_25__bucket_list_deallocatorINS_9allocatorISE_EEEEE5resetB8ue170006EDn, symObjAddr: 0x2B18, symBinAddr: 0x10002AF10, symSize: 0x6C }
  - { offset: 0x148E25, size: 0x8, addend: 0x0, symName: __ZNSt3__117__compressed_pairIPPNS_16__hash_node_baseIPNS_11__hash_nodeINS_17__hash_value_typeIPK8MapSetupN12MapSetupView12MapSetupDataEEEPvEEEENS_25__bucket_list_deallocatorINS_9allocatorISE_EEEEE5firstB8ue170006Ev, symObjAddr: 0x2B84, symBinAddr: 0x10002AF7C, symSize: 0x24 }
  - { offset: 0x148E4B, size: 0x8, addend: 0x0, symName: __ZNSt3__117__compressed_pairIPPNS_16__hash_node_baseIPNS_11__hash_nodeINS_17__hash_value_typeIPK8MapSetupN12MapSetupView12MapSetupDataEEEPvEEEENS_25__bucket_list_deallocatorINS_9allocatorISE_EEEEE6secondB8ue170006Ev, symObjAddr: 0x2BA8, symBinAddr: 0x10002AFA0, symSize: 0x28 }
  - { offset: 0x148E71, size: 0x8, addend: 0x0, symName: __ZNSt3__125__bucket_list_deallocatorINS_9allocatorIPNS_16__hash_node_baseIPNS_11__hash_nodeINS_17__hash_value_typeIPK8MapSetupN12MapSetupView12MapSetupDataEEEPvEEEEEEEclB8ue170006EPSF_, symObjAddr: 0x2BD0, symBinAddr: 0x10002AFC8, symSize: 0x58 }
  - { offset: 0x148EA6, size: 0x8, addend: 0x0, symName: __ZNSt3__122__compressed_pair_elemIPPNS_16__hash_node_baseIPNS_11__hash_nodeINS_17__hash_value_typeIPK8MapSetupN12MapSetupView12MapSetupDataEEEPvEEEELi0ELb0EE5__getB8ue170006Ev, symObjAddr: 0x2C28, symBinAddr: 0x10002B020, symSize: 0x14 }
  - { offset: 0x148ECC, size: 0x8, addend: 0x0, symName: __ZNSt3__122__compressed_pair_elemINS_25__bucket_list_deallocatorINS_9allocatorIPNS_16__hash_node_baseIPNS_11__hash_nodeINS_17__hash_value_typeIPK8MapSetupN12MapSetupView12MapSetupDataEEEPvEEEEEEEELi1ELb0EE5__getB8ue170006Ev, symObjAddr: 0x2C3C, symBinAddr: 0x10002B034, symSize: 0x14 }
  - { offset: 0x148EF2, size: 0x8, addend: 0x0, symName: __ZNSt3__116allocator_traitsINS_9allocatorIPNS_16__hash_node_baseIPNS_11__hash_nodeINS_17__hash_value_typeIPK8MapSetupN12MapSetupView12MapSetupDataEEEPvEEEEEEE10deallocateB8ue170006ERSG_PSF_m, symObjAddr: 0x2C50, symBinAddr: 0x10002B048, symSize: 0x34 }
  - { offset: 0x148F34, size: 0x8, addend: 0x0, symName: __ZNSt3__125__bucket_list_deallocatorINS_9allocatorIPNS_16__hash_node_baseIPNS_11__hash_nodeINS_17__hash_value_typeIPK8MapSetupN12MapSetupView12MapSetupDataEEEPvEEEEEEE7__allocB8ue170006Ev, symObjAddr: 0x2C84, symBinAddr: 0x10002B07C, symSize: 0x24 }
  - { offset: 0x148F5A, size: 0x8, addend: 0x0, symName: __ZNSt3__125__bucket_list_deallocatorINS_9allocatorIPNS_16__hash_node_baseIPNS_11__hash_nodeINS_17__hash_value_typeIPK8MapSetupN12MapSetupView12MapSetupDataEEEPvEEEEEEE4sizeB8ue170006Ev, symObjAddr: 0x2CA8, symBinAddr: 0x10002B0A0, symSize: 0x24 }
  - { offset: 0x148F80, size: 0x8, addend: 0x0, symName: __ZNSt3__19allocatorIPNS_16__hash_node_baseIPNS_11__hash_nodeINS_17__hash_value_typeIPK8MapSetupN12MapSetupView12MapSetupDataEEEPvEEEEE10deallocateB8ue170006EPSE_m, symObjAddr: 0x2CCC, symBinAddr: 0x10002B0C4, symSize: 0x40 }
  - { offset: 0x148FC2, size: 0x8, addend: 0x0, symName: __ZNSt3__117__compressed_pairImNS_9allocatorIPNS_16__hash_node_baseIPNS_11__hash_nodeINS_17__hash_value_typeIPK8MapSetupN12MapSetupView12MapSetupDataEEEPvEEEEEEE6secondB8ue170006Ev, symObjAddr: 0x2D0C, symBinAddr: 0x10002B104, symSize: 0x24 }
  - { offset: 0x148FE8, size: 0x8, addend: 0x0, symName: __ZNSt3__122__compressed_pair_elemINS_9allocatorIPNS_16__hash_node_baseIPNS_11__hash_nodeINS_17__hash_value_typeIPK8MapSetupN12MapSetupView12MapSetupDataEEEPvEEEEEELi1ELb1EE5__getB8ue170006Ev, symObjAddr: 0x2D30, symBinAddr: 0x10002B128, symSize: 0x14 }
  - { offset: 0x14900E, size: 0x8, addend: 0x0, symName: __ZNSt3__117__compressed_pairImNS_9allocatorIPNS_16__hash_node_baseIPNS_11__hash_nodeINS_17__hash_value_typeIPK8MapSetupN12MapSetupView12MapSetupDataEEEPvEEEEEEE5firstB8ue170006Ev, symObjAddr: 0x2D44, symBinAddr: 0x10002B13C, symSize: 0x24 }
  - { offset: 0x149046, size: 0x8, addend: 0x0, symName: __ZNSt3__112__hash_tableINS_17__hash_value_typeIPK8MapSetupN12MapSetupView12MapSetupDataEEENS_22__unordered_map_hasherIS4_S7_NS_4hashIS4_EENS_8equal_toIS4_EELb1EEENS_21__unordered_map_equalIS4_S7_SC_SA_Lb1EEENS_9allocatorIS7_EEE25__emplace_unique_key_argsIS4_JRKNS_21piecewise_construct_tENS_5tupleIJRKS4_EEENSN_IJEEEEEENS_4pairINS_15__hash_iteratorIPNS_11__hash_nodeIS7_PvEEEEbEERKT_DpOT0_, symObjAddr: 0x2F24, symBinAddr: 0x10002B160, symSize: 0x4E8 }
  - { offset: 0x149150, size: 0x8, addend: 0x0, symName: __ZNKSt3__115__hash_iteratorIPNS_11__hash_nodeINS_17__hash_value_typeIPK8MapSetupN12MapSetupView12MapSetupDataEEEPvEEEptB8ue170006Ev, symObjAddr: 0x343C, symBinAddr: 0x10002B674, symSize: 0x30 }
  - { offset: 0x149176, size: 0x8, addend: 0x0, symName: __ZNSt3__112__hash_tableINS_17__hash_value_typeIPK8MapSetupN12MapSetupView12MapSetupDataEEENS_22__unordered_map_hasherIS4_S7_NS_4hashIS4_EENS_8equal_toIS4_EELb1EEENS_21__unordered_map_equalIS4_S7_SC_SA_Lb1EEENS_9allocatorIS7_EEE13hash_functionB8ue170006Ev, symObjAddr: 0x346C, symBinAddr: 0x10002B6A4, symSize: 0x28 }
  - { offset: 0x14919C, size: 0x8, addend: 0x0, symName: __ZNKSt3__122__unordered_map_hasherIPK8MapSetupNS_17__hash_value_typeIS3_N12MapSetupView12MapSetupDataEEENS_4hashIS3_EENS_8equal_toIS3_EELb1EEclB8ue170006ERKS3_, symObjAddr: 0x3494, symBinAddr: 0x10002B6CC, symSize: 0x30 }
  - { offset: 0x1491D1, size: 0x8, addend: 0x0, symName: __ZNKSt3__112__hash_tableINS_17__hash_value_typeIPK8MapSetupN12MapSetupView12MapSetupDataEEENS_22__unordered_map_hasherIS4_S7_NS_4hashIS4_EENS_8equal_toIS4_EELb1EEENS_21__unordered_map_equalIS4_S7_SC_SA_Lb1EEENS_9allocatorIS7_EEE12bucket_countB8ue170006Ev, symObjAddr: 0x34C4, symBinAddr: 0x10002B6FC, symSize: 0x28 }
  - { offset: 0x1491F7, size: 0x8, addend: 0x0, symName: __ZNKSt3__110unique_ptrIA_PNS_16__hash_node_baseIPNS_11__hash_nodeINS_17__hash_value_typeIPK8MapSetupN12MapSetupView12MapSetupDataEEEPvEEEENS_25__bucket_list_deallocatorINS_9allocatorISE_EEEEEixB8ue170006Em, symObjAddr: 0x3584, symBinAddr: 0x10002B724, symSize: 0x34 }
  - { offset: 0x14922C, size: 0x8, addend: 0x0, symName: __ZNKSt3__116__hash_node_baseIPNS_11__hash_nodeINS_17__hash_value_typeIPK8MapSetupN12MapSetupView12MapSetupDataEEEPvEEE6__hashB8ue170006Ev, symObjAddr: 0x35B8, symBinAddr: 0x10002B758, symSize: 0x18 }
  - { offset: 0x149252, size: 0x8, addend: 0x0, symName: __ZNSt3__112__hash_tableINS_17__hash_value_typeIPK8MapSetupN12MapSetupView12MapSetupDataEEENS_22__unordered_map_hasherIS4_S7_NS_4hashIS4_EENS_8equal_toIS4_EELb1EEENS_21__unordered_map_equalIS4_S7_SC_SA_Lb1EEENS_9allocatorIS7_EEE6key_eqB8ue170006Ev, symObjAddr: 0x35D0, symBinAddr: 0x10002B770, symSize: 0x28 }
  - { offset: 0x149278, size: 0x8, addend: 0x0, symName: __ZNKSt3__121__unordered_map_equalIPK8MapSetupNS_17__hash_value_typeIS3_N12MapSetupView12MapSetupDataEEENS_8equal_toIS3_EENS_4hashIS3_EELb1EEclB8ue170006ERKS7_RKS3_, symObjAddr: 0x35F8, symBinAddr: 0x10002B798, symSize: 0x48 }
  - { offset: 0x1492BC, size: 0x8, addend: 0x0, symName: __ZNSt3__112__hash_tableINS_17__hash_value_typeIPK8MapSetupN12MapSetupView12MapSetupDataEEENS_22__unordered_map_hasherIS4_S7_NS_4hashIS4_EENS_8equal_toIS4_EELb1EEENS_21__unordered_map_equalIS4_S7_SC_SA_Lb1EEENS_9allocatorIS7_EEE21__construct_node_hashIRKNS_21piecewise_construct_tEJNS_5tupleIJRKS4_EEENSN_IJEEEEEENS_10unique_ptrINS_11__hash_nodeIS7_PvEENS_22__hash_node_destructorINSG_ISV_EEEEEEmOT_DpOT0_, symObjAddr: 0x3640, symBinAddr: 0x10002B7E0, symSize: 0x150 }
  - { offset: 0x149358, size: 0x8, addend: 0x0, symName: __ZNSt3__112__hash_tableINS_17__hash_value_typeIPK8MapSetupN12MapSetupView12MapSetupDataEEENS_22__unordered_map_hasherIS4_S7_NS_4hashIS4_EENS_8equal_toIS4_EELb1EEENS_21__unordered_map_equalIS4_S7_SC_SA_Lb1EEENS_9allocatorIS7_EEE4sizeB8ue170006Ev, symObjAddr: 0x3790, symBinAddr: 0x10002B930, symSize: 0x28 }
  - { offset: 0x14937E, size: 0x8, addend: 0x0, symName: __ZNSt3__112__hash_tableINS_17__hash_value_typeIPK8MapSetupN12MapSetupView12MapSetupDataEEENS_22__unordered_map_hasherIS4_S7_NS_4hashIS4_EENS_8equal_toIS4_EELb1EEENS_21__unordered_map_equalIS4_S7_SC_SA_Lb1EEENS_9allocatorIS7_EEE15max_load_factorB8ue170006Ev, symObjAddr: 0x37B8, symBinAddr: 0x10002B958, symSize: 0x28 }
  - { offset: 0x1493A4, size: 0x8, addend: 0x0, symName: __ZNSt3__112__hash_tableINS_17__hash_value_typeIPK8MapSetupN12MapSetupView12MapSetupDataEEENS_22__unordered_map_hasherIS4_S7_NS_4hashIS4_EENS_8equal_toIS4_EELb1EEENS_21__unordered_map_equalIS4_S7_SC_SA_Lb1EEENS_9allocatorIS7_EEE15__rehash_uniqueB8ue170006Em, symObjAddr: 0x37E0, symBinAddr: 0x10002B980, symSize: 0x2C }
  - { offset: 0x1493D9, size: 0x8, addend: 0x0, symName: __ZNSt3__116__hash_node_baseIPNS_11__hash_nodeINS_17__hash_value_typeIPK8MapSetupN12MapSetupView12MapSetupDataEEEPvEEE5__ptrB8ue170006Ev, symObjAddr: 0x38A0, symBinAddr: 0x10002B9AC, symSize: 0x24 }
  - { offset: 0x1493FF, size: 0x8, addend: 0x0, symName: __ZNKSt3__110unique_ptrINS_11__hash_nodeINS_17__hash_value_typeIPK8MapSetupN12MapSetupView12MapSetupDataEEEPvEENS_22__hash_node_destructorINS_9allocatorISA_EEEEEptB8ue170006Ev, symObjAddr: 0x38C4, symBinAddr: 0x10002B9D0, symSize: 0x28 }
  - { offset: 0x149425, size: 0x8, addend: 0x0, symName: __ZNKSt3__110unique_ptrINS_11__hash_nodeINS_17__hash_value_typeIPK8MapSetupN12MapSetupView12MapSetupDataEEEPvEENS_22__hash_node_destructorINS_9allocatorISA_EEEEE3getB8ue170006Ev, symObjAddr: 0x38EC, symBinAddr: 0x10002B9F8, symSize: 0x28 }
  - { offset: 0x14944B, size: 0x8, addend: 0x0, symName: __ZNSt3__110unique_ptrINS_11__hash_nodeINS_17__hash_value_typeIPK8MapSetupN12MapSetupView12MapSetupDataEEEPvEENS_22__hash_node_destructorINS_9allocatorISA_EEEEE7releaseB8ue170006Ev, symObjAddr: 0x3914, symBinAddr: 0x10002BA20, symSize: 0x44 }
